 canvas

 Timestamp is 564945dc (Sun Nov 15 20:56:28 2015)

 Preferred load address is 0000000180000000

 Start         Length     Name                   Class
 0001:00000000 00000193H .text$di                CODE
 0001:000001a0 00029320H .text$mn                CODE
 0001:000294c0 00000bf0H .text$x                 CODE
 0001:0002a0b0 00000053H .text$yd                CODE
 0002:00000000 000005c8H .idata$5                DATA
 0002:000005c8 00000008H .CRT$XCA                DATA
 0002:000005d0 000000a8H .CRT$XCU                DATA
 0002:00000678 00000008H .CRT$XCZ                DATA
 0002:00000680 00000008H .CRT$XIA                DATA
 0002:00000688 00000028H .CRT$XIC                DATA
 0002:000006b0 00000008H .CRT$XIZ                DATA
 0002:000006b8 00000008H .CRT$XPA                DATA
 0002:000006c0 00000010H .CRT$XPX                DATA
 0002:000006d0 00000008H .CRT$XPXA               DATA
 0002:000006d8 00000008H .CRT$XPZ                DATA
 0002:000006e0 00000008H .CRT$XTA                DATA
 0002:000006e8 00000008H .CRT$XTZ                DATA
 0002:000006f0 0000a550H .rdata                  DATA
 0002:0000ac40 000000a0H .rdata$debug            DATA
 0002:0000ace0 000002f4H .rdata$r                DATA
 0002:0000afd8 00000008H .rtc$IAA                DATA
 0002:0000afe0 00000008H .rtc$IZZ                DATA
 0002:0000afe8 00000008H .rtc$TAA                DATA
 0002:0000aff0 00000008H .rtc$TZZ                DATA
 0002:0000b000 00002c24H .xdata                  DATA
 0002:0000dc28 00000174H .xdata$x                DATA
 0002:0000dd9c 00000020H .didat$2                DATA
 0002:0000ddbc 00000020H .didat$3                DATA
 0002:0000dde0 000003b8H .didat$4                DATA
 0002:0000e198 00001f54H .didat$6                DATA
 0002:000100f0 000003b8H .didat$7                DATA
 0002:000104b0 00003b58H .edata                  DATA
 0002:00014008 0000003cH .idata$2                DATA
 0002:00014044 00000014H .idata$3                DATA
 0002:00014058 000005c8H .idata$4                DATA
 0002:00014620 00000f4aH .idata$6                DATA
 0003:00000000 00001a20H .data                   DATA
 0003:00001a20 000000e8H .data$r                 DATA
 0003:00001b08 000003b8H .didat$5                DATA
 0003:00001ec0 000024e8H .bss                    DATA
 0004:00000000 00001d58H .pdata                  DATA
 0005:00000000 00000058H .rsrc$01                DATA
 0005:00000060 00000180H .rsrc$02                DATA

  Address         Publics by Value              Rva+Base               Lib:Object

 0000:00000000       ___safe_se_handler_table   0000000000000000     <absolute>
 0000:00000000       __guard_fids_table         0000000000000000     <absolute>
 0000:00000000       __guard_fids_count         0000000000000000     <absolute>
 0000:00000000       ___safe_se_handler_count   0000000000000000     <absolute>
 0000:00000000       __guard_flags              0000000000000000     <absolute>
 0000:00000000       __ImageBase                0000000180000000     <linker-defined>
 0001:000001a0       ?space_name@HeapSpaceStatistics@v8@@QEAAPEBDXZ 00000001800011a0 f i Canvas.obj
 0001:000001a0       ?Data@Contents@ArrayBuffer@v8@@QEBAPEAXXZ 00000001800011a0 f i Canvas.obj
 0001:000001a0       ?object_type@HeapObjectStatistics@v8@@QEAAPEBDXZ 00000001800011a0 f i Canvas.obj
 0001:000001a0       ??DUtf8Value@String@v8@@QEBAPEBDXZ 00000001800011a0 f i Canvas.obj
 0001:000001a0       ?impl@StreamedSource@ScriptCompiler@v8@@QEBAPEAU1internal@3@XZ 00000001800011a0 f i Canvas.obj
 0001:000001a0       ??DUtf8Value@String@v8@@QEAAPEADXZ 00000001800011a0 f i Canvas.obj
 0001:000001a0       ?GetIsolate@HandleScope@v8@@QEBAPEAVIsolate@2@XZ 00000001800011a0 f i Canvas.obj
 0001:000001a0       ??DValue@String@v8@@QEAAPEAGXZ 00000001800011a0 f i Canvas.obj
 0001:000001a0       ?Data@Contents@SharedArrayBuffer@v8@@QEBAPEAXXZ 00000001800011a0 f i Canvas.obj
 0001:000001a0       ?total_heap_size@HeapStatistics@v8@@QEAA_KXZ 00000001800011a0 f i Canvas.obj
 0001:000001a0       ??DValue@String@v8@@QEBAPEBGXZ 00000001800011a0 f i Canvas.obj
 0001:000001b0       ?Cast@Date@v8@@SAPEAV12@PEAVValue@2@@Z 00000001800011b0 f i Canvas.obj
 0001:000001b0       ??4ExternalResourceVisitor@v8@@QEAAAEAV01@AEBV01@@Z 00000001800011b0 f i Canvas.obj
 0001:000001b0       ??4Allocator@ArrayBuffer@v8@@QEAAAEAV012@AEBV012@@Z 00000001800011b0 f i Canvas.obj
 0001:000001b0       ?Cast@Int32@v8@@SAPEAV12@PEAVValue@2@@Z 00000001800011b0 f i Canvas.obj
 0001:000001b0       ??4Message@v8@@QEAAAEAV01@AEBV01@@Z 00000001800011b0 f i Canvas.obj
 0001:000001b0       ??4Exception@v8@@QEAAAEAV01@AEBV01@@Z 00000001800011b0 f i Canvas.obj
 0001:000001b0       ?Cast@Set@v8@@SAPEAV12@PEAVValue@2@@Z 00000001800011b0 f i Canvas.obj
 0001:000001b0       ?Cast@Uint32@v8@@SAPEAV12@PEAVValue@2@@Z 00000001800011b0 f i Canvas.obj
 0001:000001b0       ??4Primitive@v8@@QEAAAEAV01@AEBV01@@Z 00000001800011b0 f i Canvas.obj
 0001:000001b0       ??4BooleanObject@v8@@QEAAAEAV01@AEBV01@@Z 00000001800011b0 f i Canvas.obj
 0001:000001b0       ??4Float32Array@v8@@QEAAAEAV01@AEBV01@@Z 00000001800011b0 f i Canvas.obj
 0001:000001b0       ?Cast@BooleanObject@v8@@SAPEAV12@PEAVValue@2@@Z 00000001800011b0 f i Canvas.obj
 0001:000001b0       ??4TypeSwitch@v8@@QEAAAEAV01@AEBV01@@Z 00000001800011b0 f i Canvas.obj
 0001:000001b0       ??4JSON@v8@@QEAAAEAV01@AEBV01@@Z 00000001800011b0 f i Canvas.obj
 0001:000001b0       ??4AccessorSignature@v8@@QEAAAEAV01@AEBV01@@Z 00000001800011b0 f i Canvas.obj
 0001:000001b0       ?Cast@Int32Array@v8@@SAPEAV12@PEAVValue@2@@Z 00000001800011b0 f i Canvas.obj
 0001:000001b0       ?Cast@NumberObject@v8@@SAPEAV12@PEAVValue@2@@Z 00000001800011b0 f i Canvas.obj
 0001:000001b0       ??4Promise@v8@@QEAAAEAV01@AEBV01@@Z 00000001800011b0 f i Canvas.obj
 0001:000001b0       ?Cast@RegExp@v8@@SAPEAV12@PEAVValue@2@@Z 00000001800011b0 f i Canvas.obj
 0001:000001b0       ??4StringObject@v8@@QEAAAEAV01@AEBV01@@Z 00000001800011b0 f i Canvas.obj
 0001:000001b0       ??4Context@v8@@QEAAAEAV01@AEBV01@@Z 00000001800011b0 f i Canvas.obj
 0001:000001b0       ??4RegExp@v8@@QEAAAEAV01@AEBV01@@Z 00000001800011b0 f i Canvas.obj
 0001:000001b0       ??4ExternalSourceStream@ScriptCompiler@v8@@QEAAAEAV012@AEBV012@@Z 00000001800011b0 f i Canvas.obj
 0001:000001b0       ??4NativeWeakMap@v8@@QEAAAEAV01@AEBV01@@Z 00000001800011b0 f i Canvas.obj
 0001:000001b0       ??4FunctionTemplate@v8@@QEAAAEAV01@AEBV01@@Z 00000001800011b0 f i Canvas.obj
 0001:000001b0       ?Cast@String@v8@@SAPEAV12@PEAVValue@2@@Z 00000001800011b0 f i Canvas.obj
 0001:000001b0       ??4ObjectTemplate@v8@@QEAAAEAV01@AEBV01@@Z 00000001800011b0 f i Canvas.obj
 0001:000001b0       ??4External@v8@@QEAAAEAV01@AEBV01@@Z 00000001800011b0 f i Canvas.obj
 0001:000001b0       ?Cast@StringObject@v8@@SAPEAV12@PEAVValue@2@@Z 00000001800011b0 f i Canvas.obj
 0001:000001b0       ?Cast@Uint8Array@v8@@SAPEAV12@PEAVValue@2@@Z 00000001800011b0 f i Canvas.obj
 0001:000001b0       ??4ScriptCompiler@v8@@QEAAAEAV01@AEBV01@@Z 00000001800011b0 f i Canvas.obj
 0001:000001b0       ?Cast@TypedArray@v8@@SAPEAV12@PEAVValue@2@@Z 00000001800011b0 f i Canvas.obj
 0001:000001b0       ??4Integer@v8@@QEAAAEAV01@AEBV01@@Z 00000001800011b0 f i Canvas.obj
 0001:000001b0       ??4Float64Array@v8@@QEAAAEAV01@AEBV01@@Z 00000001800011b0 f i Canvas.obj
 0001:000001b0       ??4Number@v8@@QEAAAEAV01@AEBV01@@Z 00000001800011b0 f i Canvas.obj
 0001:000001b0       ??4Uint16Array@v8@@QEAAAEAV01@AEBV01@@Z 00000001800011b0 f i Canvas.obj
 0001:000001b0       ?Cast@DataView@v8@@SAPEAV12@PEAVValue@2@@Z 00000001800011b0 f i Canvas.obj
 0001:000001b0       ?Cast@Boolean@v8@@SAPEAV12@PEAVValue@2@@Z 00000001800011b0 f i Canvas.obj
 0001:000001b0       ??4StackTrace@v8@@QEAAAEAV01@AEBV01@@Z 00000001800011b0 f i Canvas.obj
 0001:000001b0       ??4NumberObject@v8@@QEAAAEAV01@AEBV01@@Z 00000001800011b0 f i Canvas.obj
 0001:000001b0       ??4Map@v8@@QEAAAEAV01@AEBV01@@Z 00000001800011b0 f i Canvas.obj
 0001:000001b0       ??4UnboundScript@v8@@QEAAAEAV01@AEBV01@@Z 00000001800011b0 f i Canvas.obj
 0001:000001b0       ?Cast@Int16Array@v8@@SAPEAV12@PEAVValue@2@@Z 00000001800011b0 f i Canvas.obj
 0001:000001b0       ?Cast@Function@v8@@SAPEAV12@PEAVValue@2@@Z 00000001800011b0 f i Canvas.obj
 0001:000001b0       ?Cast@SymbolObject@v8@@SAPEAV12@PEAVValue@2@@Z 00000001800011b0 f i Canvas.obj
 0001:000001b0       ??4Name@v8@@QEAAAEAV01@AEBV01@@Z 00000001800011b0 f i Canvas.obj
 0001:000001b0       ??4Int16Array@v8@@QEAAAEAV01@AEBV01@@Z 00000001800011b0 f i Canvas.obj
 0001:000001b0       ??4TypedArray@v8@@QEAAAEAV01@AEBV01@@Z 00000001800011b0 f i Canvas.obj
 0001:000001b0       ??4StackFrame@v8@@QEAAAEAV01@AEBV01@@Z 00000001800011b0 f i Canvas.obj
 0001:000001b0       ?Cast@SharedArrayBuffer@v8@@SAPEAV12@PEAVValue@2@@Z 00000001800011b0 f i Canvas.obj
 0001:000001b0       ?Cast@Promise@v8@@SAPEAV12@PEAVValue@2@@Z 00000001800011b0 f i Canvas.obj
 0001:000001b0       ?Cast@Float32Array@v8@@SAPEAV12@PEAVValue@2@@Z 00000001800011b0 f i Canvas.obj
 0001:000001b0       ?Cast@Symbol@v8@@SAPEAV12@PEAVValue@2@@Z 00000001800011b0 f i Canvas.obj
 0001:000001b0       ??4PersistentHandleVisitor@v8@@QEAAAEAV01@AEBV01@@Z 00000001800011b0 f i Canvas.obj
 0001:000001b0       ?Cast@Array@v8@@SAPEAV12@PEAVValue@2@@Z 00000001800011b0 f i Canvas.obj
 0001:000001b0       ??4Value@v8@@QEAAAEAV01@AEBV01@@Z 00000001800011b0 f i Canvas.obj
 0001:000001b0       ?Cast@Uint16Array@v8@@SAPEAV12@PEAVValue@2@@Z 00000001800011b0 f i Canvas.obj
 0001:000001b0       ??4String@v8@@QEAAAEAV01@AEBV01@@Z 00000001800011b0 f i Canvas.obj
 0001:000001b0       ?Cast@Name@v8@@SAPEAV12@PEAVValue@2@@Z 00000001800011b0 f i Canvas.obj
 0001:000001b0       ??4Set@v8@@QEAAAEAV01@AEBV01@@Z 00000001800011b0 f i Canvas.obj
 0001:000001b0       ?Cast@Number@v8@@SAPEAV12@PEAVValue@2@@Z 00000001800011b0 f i Canvas.obj
 0001:000001b0       ?Cast@ArrayBufferView@v8@@SAPEAV12@PEAVValue@2@@Z 00000001800011b0 f i Canvas.obj
 0001:000001b0       ??4Uint32Array@v8@@QEAAAEAV01@AEBV01@@Z 00000001800011b0 f i Canvas.obj
 0001:000001b0       ?Cast@Float64Array@v8@@SAPEAV12@PEAVValue@2@@Z 00000001800011b0 f i Canvas.obj
 0001:000001b0       ?Cast@External@v8@@SAPEAV12@PEAVValue@2@@Z 00000001800011b0 f i Canvas.obj
 0001:000001b0       ??0HandleScope@v8@@IEAA@XZ 00000001800011b0 f i Canvas.obj
 0001:000001b0       ??4Boolean@v8@@QEAAAEAV01@AEBV01@@Z 00000001800011b0 f i Canvas.obj
 0001:000001b0       ??4Uint32@v8@@QEAAAEAV01@AEBV01@@Z 00000001800011b0 f i Canvas.obj
 0001:000001b0       ??4Function@v8@@QEAAAEAV01@AEBV01@@Z 00000001800011b0 f i Canvas.obj
 0001:000001b0       ?Cast@Int8Array@v8@@SAPEAV12@PEAVValue@2@@Z 00000001800011b0 f i Canvas.obj
 0001:000001b0       ??4Signature@v8@@QEAAAEAV01@AEBV01@@Z 00000001800011b0 f i Canvas.obj
 0001:000001b0       ??4Script@v8@@QEAAAEAV01@AEBV01@@Z 00000001800011b0 f i Canvas.obj
 0001:000001b0       ?Cast@Uint32Array@v8@@SAPEAV12@PEAVValue@2@@Z 00000001800011b0 f i Canvas.obj
 0001:000001b0       ??4SharedArrayBuffer@v8@@QEAAAEAV01@AEBV01@@Z 00000001800011b0 f i Canvas.obj
 0001:000001b0       ?Cast@Object@v8@@SAPEAV12@PEAVValue@2@@Z 00000001800011b0 f i Canvas.obj
 0001:000001b0       ??4Uint8Array@v8@@QEAAAEAV01@AEBV01@@Z 00000001800011b0 f i Canvas.obj
 0001:000001b0       ??4Int8Array@v8@@QEAAAEAV01@AEBV01@@Z 00000001800011b0 f i Canvas.obj
 0001:000001b0       ?Cast@Uint8ClampedArray@v8@@SAPEAV12@PEAVValue@2@@Z 00000001800011b0 f i Canvas.obj
 0001:000001b0       ??4Symbol@v8@@QEAAAEAV01@AEBV01@@Z 00000001800011b0 f i Canvas.obj
 0001:000001b0       ??4Template@v8@@QEAAAEAV01@AEBV01@@Z 00000001800011b0 f i Canvas.obj
 0001:000001b0       ??4Data@v8@@QEAAAEAV01@AEBV01@@Z 00000001800011b0 f i Canvas.obj
 0001:000001b0       ??4DataView@v8@@QEAAAEAV01@AEBV01@@Z 00000001800011b0 f i Canvas.obj
 0001:000001b0       ?Cast@ArrayBuffer@v8@@SAPEAV12@PEAVValue@2@@Z 00000001800011b0 f i Canvas.obj
 0001:000001b0       ??4Array@v8@@QEAAAEAV01@AEBV01@@Z 00000001800011b0 f i Canvas.obj
 0001:000001b0       ?Cast@Integer@v8@@SAPEAV12@PEAVValue@2@@Z 00000001800011b0 f i Canvas.obj
 0001:000001b0       ??4Date@v8@@QEAAAEAV01@AEBV01@@Z 00000001800011b0 f i Canvas.obj
 0001:000001b0       ??4Int32Array@v8@@QEAAAEAV01@AEBV01@@Z 00000001800011b0 f i Canvas.obj
 0001:000001b0       ?Cast@Map@v8@@SAPEAV12@PEAVValue@2@@Z 00000001800011b0 f i Canvas.obj
 0001:000001b0       ??4Object@v8@@QEAAAEAV01@AEBV01@@Z 00000001800011b0 f i Canvas.obj
 0001:000001b0       ?Cast@Resolver@Promise@v8@@SAPEAV123@PEAVValue@3@@Z 00000001800011b0 f i Canvas.obj
 0001:000001b0       ??4ArrayBuffer@v8@@QEAAAEAV01@AEBV01@@Z 00000001800011b0 f i Canvas.obj
 0001:000001b0       ??4SymbolObject@v8@@QEAAAEAV01@AEBV01@@Z 00000001800011b0 f i Canvas.obj
 0001:000001b0       ??4ArrayBufferView@v8@@QEAAAEAV01@AEBV01@@Z 00000001800011b0 f i Canvas.obj
 0001:000001b0       ??4Resolver@Promise@v8@@QEAAAEAV012@AEBV012@@Z 00000001800011b0 f i Canvas.obj
 0001:000001b0       ??4V8@v8@@QEAAAEAV01@AEBV01@@Z 00000001800011b0 f i Canvas.obj
 0001:000001b0       ??4Uint8ClampedArray@v8@@QEAAAEAV01@AEBV01@@Z 00000001800011b0 f i Canvas.obj
 0001:000001b0       ??4Int32@v8@@QEAAAEAV01@AEBV01@@Z 00000001800011b0 f i Canvas.obj
 0001:000001c0       ??1EscapableHandleScope@Nan@@QEAA@XZ 00000001800011c0 f i Canvas.obj
 0001:000001c0       ??1EscapableHandleScope@v8@@QEAA@XZ 00000001800011c0 f i Canvas.obj
 0001:000001c0       ??1HandleScope@Nan@@QEAA@XZ 00000001800011c0 f i Canvas.obj
 0001:000001d0       ?GetId@Script@v8@@QEAAHXZ  00000001800011d0 f i Canvas.obj
 0001:000001f0       ??0CachedData@ScriptCompiler@v8@@QEAA@XZ 00000001800011f0 f i Canvas.obj
 0001:00000210       ??1ExternalSourceStream@ScriptCompiler@v8@@UEAA@XZ 0000000180001210 f i Canvas.obj
 0001:00000220       ??0ExternalSourceStream@ScriptCompiler@v8@@QEAA@XZ 0000000180001220 f i Canvas.obj
 0001:00000220       ??0ExternalSourceStream@ScriptCompiler@v8@@QEAA@AEBV012@@Z 0000000180001220 f i Canvas.obj
 0001:00000230       ??_EExternalSourceStream@ScriptCompiler@v8@@UEAAPEAXI@Z 0000000180001230 f i Canvas.obj
 0001:000002b0       ??1ExternalStringResource@String@v8@@UEAA@XZ 00000001800012b0 f i Canvas.obj
 0001:000002b0       ??1ExternalStringResourceBase@String@v8@@UEAA@XZ 00000001800012b0 f i Canvas.obj
 0001:000002b0       ??1ExternalOneByteStringResourceImpl@v8@@UEAA@XZ 00000001800012b0 f i Canvas.obj
 0001:000002b0       ??1ExternalOneByteStringResource@String@v8@@UEAA@XZ 00000001800012b0 f i Canvas.obj
 0001:000002c0       ??0ExternalStringResourceBase@String@v8@@IEAA@XZ 00000001800012c0 f i Canvas.obj
 0001:000002d0       ?Dispose@ExternalStringResourceBase@String@v8@@MEAAXXZ 00000001800012d0 f i Canvas.obj
 0001:000002f0       ??0ExternalOneByteStringResource@String@v8@@IEAA@XZ 00000001800012f0 f i Canvas.obj
 0001:000002f0       ??0ExternalStringResource@String@v8@@IEAA@XZ 00000001800012f0 f i Canvas.obj
 0001:00000300       ?length@Value@String@v8@@QEBAHXZ 0000000180001300 f i Canvas.obj
 0001:00000300       ?max_executable_size@ResourceConstraints@v8@@QEBAHXZ 0000000180001300 f i Canvas.obj
 0001:00000300       ?length@Utf8Value@String@v8@@QEBAHXZ 0000000180001300 f i Canvas.obj
 0001:00000310       ??_EExternalStringResourceBase@String@v8@@UEAAPEAXI@Z 0000000180001310 f i Canvas.obj
 0001:00000310       ??_EExternalStringResource@String@v8@@UEAAPEAXI@Z 0000000180001310 f i Canvas.obj
 0001:00000310       ??_EExternalOneByteStringResource@String@v8@@UEAAPEAXI@Z 0000000180001310 f i Canvas.obj
 0001:00000390       ?InternalFieldCount@Object@v8@@SAHAEBV?$PersistentBase@VObject@v8@@@2@@Z 0000000180001390 f i Canvas.obj
 0001:000003a0       ?GetAlignedPointerFromInternalField@Object@v8@@SAPEAXAEBV?$PersistentBase@VObject@v8@@@2@H@Z 00000001800013a0 f i Canvas.obj
 0001:000003d0       ?NewInstance@Function@v8@@QEBA?AV?$MaybeLocal@VObject@v8@@@2@V?$Local@VContext@v8@@@2@@Z 00000001800013d0 f i Canvas.obj
 0001:00000400       ??1Allocator@ArrayBuffer@v8@@UEAA@XZ 0000000180001400 f i Canvas.obj
 0001:00000410       ??0Contents@ArrayBuffer@v8@@QEAA@XZ 0000000180001410 f i Canvas.obj
 0001:00000410       ??0Contents@SharedArrayBuffer@v8@@QEAA@XZ 0000000180001410 f i Canvas.obj
 0001:00000420       ?data@ExternalOneByteStringResourceImpl@v8@@UEBAPEBDXZ 0000000180001420 f i Canvas.obj
 0001:00000420       ?name@Extension@v8@@QEBAPEBDXZ 0000000180001420 f i Canvas.obj
 0001:00000420       ?space_size@HeapSpaceStatistics@v8@@QEAA_KXZ 0000000180001420 f i Canvas.obj
 0001:00000420       ?begin@ExtensionConfiguration@v8@@QEBAPEAPEBDXZ 0000000180001420 f i Canvas.obj
 0001:00000420       ?ByteLength@Contents@SharedArrayBuffer@v8@@QEBA_KXZ 0000000180001420 f i Canvas.obj
 0001:00000420       ?total_heap_size_executable@HeapStatistics@v8@@QEAA_KXZ 0000000180001420 f i Canvas.obj
 0001:00000420       ?ByteLength@Contents@ArrayBuffer@v8@@QEBA_KXZ 0000000180001420 f i Canvas.obj
 0001:00000420       ?object_sub_type@HeapObjectStatistics@v8@@QEAAPEBDXZ 0000000180001420 f i Canvas.obj
 0001:00000430       ??0Allocator@ArrayBuffer@v8@@QEAA@AEBV012@@Z 0000000180001430 f i Canvas.obj
 0001:00000430       ??0Allocator@ArrayBuffer@v8@@QEAA@XZ 0000000180001430 f i Canvas.obj
 0001:00000440       ??_EAllocator@ArrayBuffer@v8@@UEAAPEAXI@Z 0000000180001440 f i Canvas.obj
 0001:000004c0       ??4Contents@ArrayBuffer@v8@@QEAAAEAV012@AEBV012@@Z 00000001800014c0 f i Canvas.obj
 0001:000004c0       ??4StartupData@v8@@QEAAAEAV01@AEBV01@@Z 00000001800014c0 f i Canvas.obj
 0001:000004c0       ??4Contents@SharedArrayBuffer@v8@@QEAAAEAV012@AEBV012@@Z 00000001800014c0 f i Canvas.obj
 0001:000004d0       ?SetIndexedPropertyHandler@ObjectTemplate@v8@@QEAAXP6AXIAEBV?$PropertyCallbackInfo@VValue@v8@@@2@@ZP6AXIV?$Local@VValue@v8@@@2@0@ZP6AXIAEBV?$PropertyCallbackInfo@VInteger@v8@@@2@@ZP6AXIAEBV?$PropertyCallbackInfo@VBoolean@v8@@@2@@ZP6AXAEBV?$PropertyCallbackInfo@VArray@v8@@@2@@Z2@Z 00000001800014d0 f i Canvas.obj
 0001:00000520       ??0ExternalOneByteStringResourceImpl@v8@@QEAA@XZ 0000000180001520 f i Canvas.obj
 0001:00000540       ??0ExternalOneByteStringResourceImpl@v8@@QEAA@PEBD_K@Z 0000000180001540 f i Canvas.obj
 0001:00000560       ?length@ExternalOneByteStringResourceImpl@v8@@UEBA_KXZ 0000000180001560 f i Canvas.obj
 0001:00000560       ?stack_limit@ResourceConstraints@v8@@QEBAPEAIXZ 0000000180001560 f i Canvas.obj
 0001:00000560       ?object_count@HeapObjectStatistics@v8@@QEAA_KXZ 0000000180001560 f i Canvas.obj
 0001:00000560       ?space_used_size@HeapSpaceStatistics@v8@@QEAA_KXZ 0000000180001560 f i Canvas.obj
 0001:00000560       ?total_physical_size@HeapStatistics@v8@@QEAA_KXZ 0000000180001560 f i Canvas.obj
 0001:00000560       ?source_length@Extension@v8@@QEBA_KXZ 0000000180001560 f i Canvas.obj
 0001:00000570       ??_EExternalOneByteStringResourceImpl@v8@@UEAAPEAXI@Z 0000000180001570 f i Canvas.obj
 0001:000005f0       ??1Extension@v8@@UEAA@XZ   00000001800015f0 f i Canvas.obj
 0001:00000610       ?GetNativeFunctionTemplate@Extension@v8@@UEAA?AV?$Local@VFunctionTemplate@v8@@@2@PEAVIsolate@2@V?$Local@VString@v8@@@2@@Z 0000000180001610 f i Canvas.obj
 0001:00000620       ?source@Extension@v8@@QEBAPEBVExternalOneByteStringResource@String@2@XZ 0000000180001620 f i Canvas.obj
 0001:00000630       ?dependency_count@Extension@v8@@QEAAHXZ 0000000180001630 f i Canvas.obj
 0001:00000640       ?dependencies@Extension@v8@@QEAAPEAPEBDXZ 0000000180001640 f i Canvas.obj
 0001:00000650       ?set_auto_enable@Extension@v8@@QEAAX_N@Z 0000000180001650 f i Canvas.obj
 0001:00000660       ?auto_enable@Extension@v8@@QEAA_NXZ 0000000180001660 f i Canvas.obj
 0001:00000670       ??_EExtension@v8@@UEAAPEAXI@Z 0000000180001670 f i Canvas.obj
 0001:000006f0       ?max_semi_space_size@ResourceConstraints@v8@@QEBAHXZ 00000001800016f0 f i Canvas.obj
 0001:00000700       ?set_max_semi_space_size@ResourceConstraints@v8@@QEAAXH@Z 0000000180001700 f i Canvas.obj
 0001:00000710       ?max_old_space_size@ResourceConstraints@v8@@QEBAHXZ 0000000180001710 f i Canvas.obj
 0001:00000720       ?set_max_old_space_size@ResourceConstraints@v8@@QEAAXH@Z 0000000180001720 f i Canvas.obj
 0001:00000730       ?set_max_executable_size@ResourceConstraints@v8@@QEAAXH@Z 0000000180001730 f i Canvas.obj
 0001:00000740       ?set_stack_limit@ResourceConstraints@v8@@QEAAXPEAI@Z 0000000180001740 f i Canvas.obj
 0001:00000750       ?max_available_threads@ResourceConstraints@v8@@QEBAHXZ 0000000180001750 f i Canvas.obj
 0001:00000760       ?set_max_available_threads@ResourceConstraints@v8@@QEAAXH@Z 0000000180001760 f i Canvas.obj
 0001:00000770       ?code_range_size@ResourceConstraints@v8@@QEBA_KXZ 0000000180001770 f i Canvas.obj
 0001:00000770       ?used_heap_size@HeapStatistics@v8@@QEAA_KXZ 0000000180001770 f i Canvas.obj
 0001:00000770       ?physical_space_size@HeapSpaceStatistics@v8@@QEAA_KXZ 0000000180001770 f i Canvas.obj
 0001:00000780       ?set_code_range_size@ResourceConstraints@v8@@QEAAX_K@Z 0000000180001780 f i Canvas.obj
 0001:00000790       ??4ResourceConstraints@v8@@QEAAAEAV01@AEBV01@@Z 0000000180001790 f i Canvas.obj
 0001:00000790       ??4HeapSpaceStatistics@v8@@QEAAAEAV01@AEBV01@@Z 0000000180001790 f i Canvas.obj
 0001:000007b0       ?object_size@HeapObjectStatistics@v8@@QEAA_KXZ 00000001800017b0 f i Canvas.obj
 0001:000007b0       ?space_available_size@HeapSpaceStatistics@v8@@QEAA_KXZ 00000001800017b0 f i Canvas.obj
 0001:000007b0       ?total_available_size@HeapStatistics@v8@@QEAA_KXZ 00000001800017b0 f i Canvas.obj
 0001:000007c0       ?heap_size_limit@HeapStatistics@v8@@QEAA_KXZ 00000001800017c0 f i Canvas.obj
 0001:000007d0       ??4HeapStatistics@v8@@QEAAAEAV01@AEBV01@@Z 00000001800017d0 f i Canvas.obj
 0001:000007f0       ??4HeapObjectStatistics@v8@@QEAAAEAV01@AEBV01@@Z 00000001800017f0 f i Canvas.obj
 0001:00000810       ??1ExternalResourceVisitor@v8@@UEAA@XZ 0000000180001810 f i Canvas.obj
 0001:00000810       ??1PersistentHandleVisitor@v8@@UEAA@XZ 0000000180001810 f i Canvas.obj
 0001:00000820       ??1?$Persistent@VObject@v8@@V?$NonCopyablePersistentTraits@VObject@v8@@@2@@Nan@@QEAA@XZ 0000000180001820 f i Canvas.obj
 0001:00000820       ?VisitExternalString@ExternalResourceVisitor@v8@@UEAAXV?$Local@VString@v8@@@2@@Z 0000000180001820 f i Canvas.obj
 0001:00000820       ?VisitPersistentHandle@PersistentHandleVisitor@v8@@UEAAXPEAV?$Persistent@VValue@v8@@V?$NonCopyablePersistentTraits@VValue@v8@@@2@@2@G@Z 0000000180001820 f i Canvas.obj
 0001:00000830       ??0ExternalResourceVisitor@v8@@QEAA@XZ 0000000180001830 f i Canvas.obj
 0001:00000830       ??0PersistentHandleVisitor@v8@@QEAA@XZ 0000000180001830 f i Canvas.obj
 0001:00000830       ??0PersistentHandleVisitor@v8@@QEAA@AEBV01@@Z 0000000180001830 f i Canvas.obj
 0001:00000830       ??0ExternalResourceVisitor@v8@@QEAA@AEBV01@@Z 0000000180001830 f i Canvas.obj
 0001:00000840       ??_EExternalResourceVisitor@v8@@UEAAPEAXI@Z 0000000180001840 f i Canvas.obj
 0001:00000840       ??_EPersistentHandleVisitor@v8@@UEAAPEAXI@Z 0000000180001840 f i Canvas.obj
 0001:000008c0       ??0Scope@Isolate@v8@@QEAA@PEAV12@@Z 00000001800018c0 f i Canvas.obj
 0001:000008e0       ??1Scope@Isolate@v8@@QEAA@XZ 00000001800018e0 f i Canvas.obj
 0001:000008f0       ?JSStackComparableAddress@TryCatch@v8@@SAPEAXPEAV12@@Z 00000001800018f0 f i Canvas.obj
 0001:00000900       ??0ExtensionConfiguration@v8@@QEAA@XZ 0000000180001900 f i Canvas.obj
 0001:00000910       ??0ExtensionConfiguration@v8@@QEAA@HQEAPEBD@Z 0000000180001910 f i Canvas.obj
 0001:00000920       ?end@ExtensionConfiguration@v8@@QEBAPEAPEBDXZ 0000000180001920 f i Canvas.obj
 0001:00000930       ??0Unlocker@v8@@QEAA@PEAVIsolate@1@@Z 0000000180001930 f i Canvas.obj
 0001:00000950       ??4Unlocker@v8@@QEAAAEAV01@AEBV01@@Z 0000000180001950 f i Canvas.obj
 0001:00000960       ??0Locker@v8@@QEAA@PEAVIsolate@1@@Z 0000000180001960 f i Canvas.obj
 0001:00000980       ?New@Boolean@v8@@SA?AV?$Local@VBoolean@v8@@@2@PEAVIsolate@2@_N@Z 0000000180001980 f i Canvas.obj
 0001:000009b0       ?Set@Template@v8@@QEAAXPEAVIsolate@2@PEBDV?$Local@VData@v8@@@2@@Z 00000001800019b0 f i Canvas.obj
 0001:00000a10       ?GetInternalField@Object@v8@@QEAA?AV?$Local@VValue@v8@@@2@H@Z 0000000180001a10 f i Canvas.obj
 0001:00000a60       ?GetAlignedPointerFromInternalField@Object@v8@@QEAAPEAXH@Z 0000000180001a60 f i Canvas.obj
 0001:00000a80       ?Empty@String@v8@@SA?AV?$Local@VString@v8@@@2@PEAVIsolate@2@@Z 0000000180001a80 f i Canvas.obj
 0001:00000a90       ?GetExternalStringResource@String@v8@@QEBAPEAVExternalStringResource@12@XZ 0000000180001a90 f i Canvas.obj
 0001:00000ab0       ?GetExternalStringResourceBase@String@v8@@QEBAPEAVExternalStringResourceBase@12@PEAW4Encoding@12@@Z 0000000180001ab0 f i Canvas.obj
 0001:00000ae0       ?IsUndefined@Value@v8@@QEBA_NXZ 0000000180001ae0 f i Canvas.obj
 0001:00000b10       ?QuickIsUndefined@Value@v8@@AEBA_NXZ 0000000180001b10 f i Canvas.obj
 0001:00000b40       ?IsNull@Value@v8@@QEBA_NXZ 0000000180001b40 f i Canvas.obj
 0001:00000b70       ?QuickIsNull@Value@v8@@AEBA_NXZ 0000000180001b70 f i Canvas.obj
 0001:00000ba0       ?IsString@Value@v8@@QEBA_NXZ 0000000180001ba0 f i Canvas.obj
 0001:00000bd0       ?QuickIsString@Value@v8@@AEBA_NXZ 0000000180001bd0 f i Canvas.obj
 0001:00000c00       ?ToBoolean@Value@v8@@QEBA?AV?$Local@VBoolean@v8@@@2@XZ 0000000180001c00 f i Canvas.obj
 0001:00000c70       ?ToNumber@Value@v8@@QEBA?AV?$Local@VNumber@v8@@@2@XZ 0000000180001c70 f i Canvas.obj
 0001:00000ce0       ?ToString@Value@v8@@QEBA?AV?$Local@VString@v8@@@2@XZ 0000000180001ce0 f i Canvas.obj
 0001:00000d50       ?ToDetailString@Value@v8@@QEBA?AV?$Local@VString@v8@@@2@XZ 0000000180001d50 f i Canvas.obj
 0001:00000dc0       ?ToObject@Value@v8@@QEBA?AV?$Local@VObject@v8@@@2@XZ 0000000180001dc0 f i Canvas.obj
 0001:00000e30       ?ToInteger@Value@v8@@QEBA?AV?$Local@VInteger@v8@@@2@XZ 0000000180001e30 f i Canvas.obj
 0001:00000ea0       ?ToUint32@Value@v8@@QEBA?AV?$Local@VUint32@v8@@@2@XZ 0000000180001ea0 f i Canvas.obj
 0001:00000f10       ?ToInt32@Value@v8@@QEBA?AV?$Local@VInt32@v8@@@2@XZ 0000000180001f10 f i Canvas.obj
 0001:00000f80       ?SetData@Isolate@v8@@QEAAXIPEAX@Z 0000000180001f80 f i Canvas.obj
 0001:00000f90       ?GetData@Isolate@v8@@QEAAPEAXI@Z 0000000180001f90 f i Canvas.obj
 0001:00000fa0       ?GetNumberOfDataSlots@Isolate@v8@@SAIXZ 0000000180001fa0 f i Canvas.obj
 0001:00000fb0       ?AdjustAmountOfExternalAllocatedMemory@Isolate@v8@@QEAA_J_J@Z 0000000180001fb0 f i Canvas.obj
 0001:00001010       ?GetEmbedderData@Context@v8@@QEAA?AV?$Local@VValue@v8@@@2@H@Z 0000000180002010 f i Canvas.obj
 0001:00001040       ?GetAlignedPointerFromEmbedderData@Context@v8@@QEAAPEAXH@Z 0000000180002040 f i Canvas.obj
 0001:00001060       ?SetAllowCodeGenerationFromStringsCallback@V8@v8@@SAXP6A_NV?$Local@VContext@v8@@@2@@Z@Z 0000000180002060 f i Canvas.obj
 0001:00001090       ?IsDead@V8@v8@@SA_NXZ      0000000180002090 f i Canvas.obj
 0001:000010b0       ?AddMessageListener@V8@v8@@SA_NP6AXV?$Local@VMessage@v8@@@2@V?$Local@VValue@v8@@@2@@Z1@Z 00000001800020b0 f i Canvas.obj
 0001:000010e0       ?RemoveMessageListeners@V8@v8@@SAXP6AXV?$Local@VMessage@v8@@@2@V?$Local@VValue@v8@@@2@@Z@Z 00000001800020e0 f i Canvas.obj
 0001:00001110       ?SetFailedAccessCheckCallbackFunction@V8@v8@@SAXP6AXV?$Local@VObject@v8@@@2@W4AccessType@2@V?$Local@VValue@v8@@@2@@Z@Z 0000000180002110 f i Canvas.obj
 0001:00001140       ?SetCaptureStackTraceForUncaughtExceptions@V8@v8@@SAX_NHW4StackTraceOptions@StackTrace@2@@Z 0000000180002140 f i Canvas.obj
 0001:00001180       ?SetFatalErrorHandler@V8@v8@@SAXP6AXPEBD0@Z@Z 0000000180002180 f i Canvas.obj
 0001:000011b0       ?RemoveGCPrologueCallback@V8@v8@@SAXP6AXW4GCType@2@W4GCCallbackFlags@2@@Z@Z 00000001800021b0 f i Canvas.obj
 0001:000011e0       ?RemoveGCEpilogueCallback@V8@v8@@SAXP6AXW4GCType@2@W4GCCallbackFlags@2@@Z@Z 00000001800021e0 f i Canvas.obj
 0001:00001210       ?AddMemoryAllocationCallback@V8@v8@@SAXP6AXW4ObjectSpace@2@W4AllocationAction@2@H@Z01@Z 0000000180002210 f i Canvas.obj
 0001:00001250       ?RemoveMemoryAllocationCallback@V8@v8@@SAXP6AXW4ObjectSpace@2@W4AllocationAction@2@H@Z@Z 0000000180002250 f i Canvas.obj
 0001:00001280       ?TerminateExecution@V8@v8@@SAXPEAVIsolate@2@@Z 0000000180002280 f i Canvas.obj
 0001:00001290       ?IsExecutionTerminating@V8@v8@@SA_NPEAVIsolate@2@@Z 0000000180002290 f i Canvas.obj
 0001:000012b0       ?CancelTerminateExecution@V8@v8@@SAXPEAVIsolate@2@@Z 00000001800022b0 f i Canvas.obj
 0001:000012c0       ?VisitExternalResources@V8@v8@@SAXPEAVExternalResourceVisitor@2@@Z 00000001800022c0 f i Canvas.obj
 0001:000012f0       ?VisitHandlesWithClassIds@V8@v8@@SAXPEAVPersistentHandleVisitor@2@@Z 00000001800022f0 f i Canvas.obj
 0001:00001320       ?VisitHandlesWithClassIds@V8@v8@@SAXPEAVIsolate@2@PEAVPersistentHandleVisitor@2@@Z 0000000180002320 f i Canvas.obj
 0001:00001330       ?VisitHandlesForPartialDependence@V8@v8@@SAXPEAVIsolate@2@PEAVPersistentHandleVisitor@2@@Z 0000000180002330 f i Canvas.obj
 0001:00001560       ?New@?$Factory@VFunctionTemplate@v8@@@imp@Nan@@SA?AV?$Local@VFunctionTemplate@v8@@@v8@@P6AXAEBV?$FunctionCallbackInfo@VValue@v8@@@3@@ZV?$Local@VValue@v8@@@5@V?$Local@VSignature@v8@@@5@@Z 0000000180002560 f i Canvas.obj
 0001:000016f0       ??0Callback@Nan@@QEAA@AEBV?$Local@VFunction@v8@@@v8@@@Z 00000001800026f0 f i Canvas.obj
 0001:00001810       ?Call_@Callback@Nan@@AEBA?AV?$Local@VValue@v8@@@v8@@PEAVIsolate@4@V?$Local@VObject@v8@@@4@HQEAV34@@Z 0000000180002810 f i Canvas.obj
 0001:000018e0       ?SetAccessor@Nan@@YAXV?$Local@VObjectTemplate@v8@@@v8@@V?$Local@VString@v8@@@3@P6AX1AEBV?$PropertyCallbackInfo@VValue@v8@@@1@@ZP6AX1V?$Local@VValue@v8@@@3@AEBV?$PropertyCallbackInfo@X@1@@Z4W4AccessControl@3@W4PropertyAttribute@3@V?$Local@VAccessorSignature@v8@@@3@@Z 00000001800028e0 f i Canvas.obj
 0001:00001a70       ??1ObjectWrap@Nan@@UEAA@XZ 0000000180002a70 f i Canvas.obj
 0001:00001af0       ?Wrap@ObjectWrap@Nan@@IEAAXV?$Local@VObject@v8@@@v8@@@Z 0000000180002af0 f i Canvas.obj
 0001:00001bd0       ?Ref@ObjectWrap@Nan@@MEAAXXZ 0000000180002bd0 f i Canvas.obj
 0001:00001c10       ?Unref@ObjectWrap@Nan@@MEAAXXZ 0000000180002c10 f i Canvas.obj
 0001:00001cc0       ?WeakCallback@ObjectWrap@Nan@@CAXAEBV?$WeakCallbackInfo@VObjectWrap@Nan@@@v8@@@Z 0000000180002cc0 f i Canvas.obj
 0001:00001d50       ??_GObjectWrap@Nan@@UEAAPEAXI@Z 0000000180002d50 f i Canvas.obj
 0001:00001d50       ??_EObjectWrap@Nan@@UEAAPEAXI@Z 0000000180002d50 f i * CIL library *:* CIL module *
 0001:00001d50       ??_GImageData@@UEAAPEAXI@Z 0000000180002d50 f i ImageData.obj
 0001:00001d50       ??_EImageData@@UEAAPEAXI@Z 0000000180002d50 f i * CIL library *:* CIL module *
 0001:00001d80       ?closure_init@@YA?AW4_cairo_status@@PEAUclosure_t@@PEAVCanvas@@II@Z 0000000180002d80 f   Canvas.obj
 0001:00001df0       ?closure_destroy@@YAXPEAUclosure_t@@@Z 0000000180002df0 f   Canvas.obj
 0001:00002300       ?Initialize@Canvas@@SAXV?$Local@VObject@v8@@@v8@@@Z 0000000180003300 f   Canvas.obj
 0001:00002bc0       ?New@Canvas@@SAXAEBV?$FunctionCallbackInfo@VValue@v8@@@Nan@@@Z 0000000180003bc0 f   Canvas.obj
 0001:00002e30       ?GetType@Canvas@@SAXV?$Local@VString@v8@@@v8@@AEBV?$PropertyCallbackInfo@VValue@v8@@@Nan@@@Z 0000000180003e30 f   Canvas.obj
 0001:00002ee0       ?GetWidth@ImageData@@SAXV?$Local@VString@v8@@@v8@@AEBV?$PropertyCallbackInfo@VValue@v8@@@Nan@@@Z 0000000180003ee0 f   ImageData.obj
 0001:00002ee0       ?GetWidth@Canvas@@SAXV?$Local@VString@v8@@@v8@@AEBV?$PropertyCallbackInfo@VValue@v8@@@Nan@@@Z 0000000180003ee0 f   Canvas.obj
 0001:00002f60       ?SetWidth@Canvas@@SAXV?$Local@VString@v8@@@v8@@V?$Local@VValue@v8@@@3@AEBV?$PropertyCallbackInfo@X@Nan@@@Z 0000000180003f60 f   Canvas.obj
 0001:00002fc0       ?GetHeight@ImageData@@SAXV?$Local@VString@v8@@@v8@@AEBV?$PropertyCallbackInfo@VValue@v8@@@Nan@@@Z 0000000180003fc0 f   ImageData.obj
 0001:00002fc0       ?GetHeight@Canvas@@SAXV?$Local@VString@v8@@@v8@@AEBV?$PropertyCallbackInfo@VValue@v8@@@Nan@@@Z 0000000180003fc0 f   Canvas.obj
 0001:00003040       ?SetHeight@Canvas@@SAXV?$Local@VString@v8@@@v8@@V?$Local@VValue@v8@@@3@AEBV?$PropertyCallbackInfo@X@Nan@@@Z 0000000180004040 f   Canvas.obj
 0001:00003120       ?ToBufferAsync@Canvas@@SAXPEAUuv_work_s@@@Z 0000000180004120 f   Canvas.obj
 0001:00003190       ?ToBufferAsyncAfter@Canvas@@SAXPEAUuv_work_s@@@Z 0000000180004190 f   Canvas.obj
 0001:000033c0       ?ToBuffer@Canvas@@SAXAEBV?$FunctionCallbackInfo@VValue@v8@@@Nan@@@Z 00000001800043c0 f   Canvas.obj
 0001:00003d80       ?StreamPNGSync@Canvas@@SAXAEBV?$FunctionCallbackInfo@VValue@v8@@@Nan@@@Z 0000000180004d80 f   Canvas.obj
 0001:000044a0       ??0Canvas@@QEAA@HHW4canvas_type_t@@@Z 00000001800054a0 f   Canvas.obj
 0001:000046c0       ??_ECanvas@@EEAAPEAXI@Z    00000001800056c0 f i * CIL library *:* CIL module *
 0001:000046c0       ??_GCanvas@@EEAAPEAXI@Z    00000001800056c0 f i Canvas.obj
 0001:000046f0       ??1Canvas@@EEAA@XZ         00000001800056f0 f   Canvas.obj
 0001:000047d0       ?resurface@Canvas@@QEAAXV?$Local@VObject@v8@@@v8@@@Z 00000001800057d0 f   Canvas.obj
 0001:00004ac0       ??$Unwrap@VContext2d@@@ObjectWrap@Nan@@SAPEAVContext2d@@V?$Local@VObject@v8@@@v8@@@Z 0000000180005ac0 f i Canvas.obj
 0001:00004ac0       ??$Unwrap@VImage@@@ObjectWrap@Nan@@SAPEAVImage@@V?$Local@VObject@v8@@@v8@@@Z 0000000180005ac0 f i CanvasPattern.obj
 0001:00004ac0       ??$Unwrap@VPattern@@@ObjectWrap@Nan@@SAPEAVPattern@@V?$Local@VObject@v8@@@v8@@@Z 0000000180005ac0 f i CanvasRenderingContext2d.obj
 0001:00004ac0       ??$Unwrap@VCanvas@@@ObjectWrap@Nan@@SAPEAVCanvas@@V?$Local@VObject@v8@@@v8@@@Z 0000000180005ac0 f i Canvas.obj
 0001:00004ac0       ??$Unwrap@VGradient@@@ObjectWrap@Nan@@SAPEAVGradient@@V?$Local@VObject@v8@@@v8@@@Z 0000000180005ac0 f i CanvasGradient.obj
 0001:00004ac0       ??$Unwrap@VImageData@@@ObjectWrap@Nan@@SAPEAVImageData@@V?$Local@VObject@v8@@@v8@@@Z 0000000180005ac0 f i CanvasRenderingContext2d.obj
 0001:00004b40       ?Initialize@Gradient@@SAXV?$Local@VObject@v8@@@v8@@@Z 0000000180005b40 f   CanvasGradient.obj
 0001:00004db0       ?New@Gradient@@SAXAEBV?$FunctionCallbackInfo@VValue@v8@@@Nan@@@Z 0000000180005db0 f   CanvasGradient.obj
 0001:00005140       ?AddColorStop@Gradient@@SAXAEBV?$FunctionCallbackInfo@VValue@v8@@@Nan@@@Z 0000000180006140 f   CanvasGradient.obj
 0001:00005480       ??_EGradient@@EEAAPEAXI@Z  0000000180006480 f i * CIL library *:* CIL module *
 0001:00005480       ??_GGradient@@EEAAPEAXI@Z  0000000180006480 f i CanvasGradient.obj
 0001:000054d0       ?Initialize@Pattern@@SAXV?$Local@VObject@v8@@@v8@@@Z 00000001800064d0 f   CanvasPattern.obj
 0001:000056a0       ?New@Pattern@@SAXAEBV?$FunctionCallbackInfo@VValue@v8@@@Nan@@@Z 00000001800066a0 f   CanvasPattern.obj
 0001:00005970       ??_GPattern@@EEAAPEAXI@Z   0000000180006970 f i CanvasPattern.obj
 0001:00005970       ??_EPattern@@EEAAPEAXI@Z   0000000180006970 f i * CIL library *:* CIL module *
 0001:000059c0       ?Initialize@Context2d@@SAXV?$Local@VObject@v8@@@v8@@@Z 00000001800069c0 f   CanvasRenderingContext2d.obj
 0001:00008570       ??0Context2d@@QEAA@PEAVCanvas@@@Z 0000000180009570 f   CanvasRenderingContext2d.obj
 0001:000086b0       ??_EContext2d@@EEAAPEAXI@Z 00000001800096b0 f i * CIL library *:* CIL module *
 0001:000086b0       ??_GContext2d@@EEAAPEAXI@Z 00000001800096b0 f i CanvasRenderingContext2d.obj
 0001:00008720       ?saveState@Context2d@@QEAAXXZ 0000000180009720 f   CanvasRenderingContext2d.obj
 0001:000087f0       ?savePath@Context2d@@QEAAXXZ 00000001800097f0 f   CanvasRenderingContext2d.obj
 0001:00008820       ?restorePath@Context2d@@QEAAXXZ 0000000180009820 f   CanvasRenderingContext2d.obj
 0001:00008860       ?fill@Context2d@@QEAAX_N@Z 0000000180009860 f   CanvasRenderingContext2d.obj
 0001:000089f0       ?stroke@Context2d@@QEAAX_N@Z 00000001800099f0 f   CanvasRenderingContext2d.obj
 0001:00008b80       ?shadow@Context2d@@QEAAXP6AXPEAU_cairo@@@Z@Z 0000000180009b80 f   CanvasRenderingContext2d.obj
 0001:00008f40       ?blur@Context2d@@QEAAXPEAU_cairo_surface@@H@Z 0000000180009f40 f   CanvasRenderingContext2d.obj
 0001:00009590       ?New@Context2d@@SAXAEBV?$FunctionCallbackInfo@VValue@v8@@@Nan@@@Z 000000018000a590 f   CanvasRenderingContext2d.obj
 0001:00009720       ?AddPage@Context2d@@SAXAEBV?$FunctionCallbackInfo@VValue@v8@@@Nan@@@Z 000000018000a720 f   CanvasRenderingContext2d.obj
 0001:000097f0       ?PutImageData@Context2d@@SAXAEBV?$FunctionCallbackInfo@VValue@v8@@@Nan@@@Z 000000018000a7f0 f   CanvasRenderingContext2d.obj
 0001:0000a010       ?GetImageData@Context2d@@SAXAEBV?$FunctionCallbackInfo@VValue@v8@@@Nan@@@Z 000000018000b010 f   CanvasRenderingContext2d.obj
 0001:0000a7d0       ?DrawImage@Context2d@@SAXAEBV?$FunctionCallbackInfo@VValue@v8@@@Nan@@@Z 000000018000b7d0 f   CanvasRenderingContext2d.obj
 0001:0000b100       ?GetGlobalAlpha@Context2d@@SAXV?$Local@VString@v8@@@v8@@AEBV?$PropertyCallbackInfo@VValue@v8@@@Nan@@@Z 000000018000c100 f   CanvasRenderingContext2d.obj
 0001:0000b180       ?SetGlobalAlpha@Context2d@@SAXV?$Local@VString@v8@@@v8@@V?$Local@VValue@v8@@@3@AEBV?$PropertyCallbackInfo@X@Nan@@@Z 000000018000c180 f   CanvasRenderingContext2d.obj
 0001:0000b1e0       ?GetGlobalCompositeOperation@Context2d@@SAXV?$Local@VString@v8@@@v8@@AEBV?$PropertyCallbackInfo@VValue@v8@@@Nan@@@Z 000000018000c1e0 f   CanvasRenderingContext2d.obj
 0001:0000b440       ?SetPatternQuality@Context2d@@SAXV?$Local@VString@v8@@@v8@@V?$Local@VValue@v8@@@3@AEBV?$PropertyCallbackInfo@X@Nan@@@Z 000000018000c440 f   CanvasRenderingContext2d.obj
 0001:0000b5b0       ?GetPatternQuality@Context2d@@SAXV?$Local@VString@v8@@@v8@@AEBV?$PropertyCallbackInfo@VValue@v8@@@Nan@@@Z 000000018000c5b0 f   CanvasRenderingContext2d.obj
 0001:0000b680       ?SetGlobalCompositeOperation@Context2d@@SAXV?$Local@VString@v8@@@v8@@V?$Local@VValue@v8@@@3@AEBV?$PropertyCallbackInfo@X@Nan@@@Z 000000018000c680 f   CanvasRenderingContext2d.obj
 0001:0000bae0       ?GetShadowOffsetX@Context2d@@SAXV?$Local@VString@v8@@@v8@@AEBV?$PropertyCallbackInfo@VValue@v8@@@Nan@@@Z 000000018000cae0 f   CanvasRenderingContext2d.obj
 0001:0000bb60       ?SetShadowOffsetX@Context2d@@SAXV?$Local@VString@v8@@@v8@@V?$Local@VValue@v8@@@3@AEBV?$PropertyCallbackInfo@X@Nan@@@Z 000000018000cb60 f   CanvasRenderingContext2d.obj
 0001:0000bba0       ?GetShadowOffsetY@Context2d@@SAXV?$Local@VString@v8@@@v8@@AEBV?$PropertyCallbackInfo@VValue@v8@@@Nan@@@Z 000000018000cba0 f   CanvasRenderingContext2d.obj
 0001:0000bc20       ?SetShadowOffsetY@Context2d@@SAXV?$Local@VString@v8@@@v8@@V?$Local@VValue@v8@@@3@AEBV?$PropertyCallbackInfo@X@Nan@@@Z 000000018000cc20 f   CanvasRenderingContext2d.obj
 0001:0000bc60       ?GetShadowBlur@Context2d@@SAXV?$Local@VString@v8@@@v8@@AEBV?$PropertyCallbackInfo@VValue@v8@@@Nan@@@Z 000000018000cc60 f   CanvasRenderingContext2d.obj
 0001:0000bce0       ?SetShadowBlur@Context2d@@SAXV?$Local@VString@v8@@@v8@@V?$Local@VValue@v8@@@3@AEBV?$PropertyCallbackInfo@X@Nan@@@Z 000000018000cce0 f   CanvasRenderingContext2d.obj
 0001:0000bd30       ?GetAntiAlias@Context2d@@SAXV?$Local@VString@v8@@@v8@@AEBV?$PropertyCallbackInfo@VValue@v8@@@Nan@@@Z 000000018000cd30 f   CanvasRenderingContext2d.obj
 0001:0000bdf0       ?SetAntiAlias@Context2d@@SAXV?$Local@VString@v8@@@v8@@V?$Local@VValue@v8@@@3@AEBV?$PropertyCallbackInfo@X@Nan@@@Z 000000018000cdf0 f   CanvasRenderingContext2d.obj
 0001:0000bf30       ?GetTextDrawingMode@Context2d@@SAXV?$Local@VString@v8@@@v8@@AEBV?$PropertyCallbackInfo@VValue@v8@@@Nan@@@Z 000000018000cf30 f   CanvasRenderingContext2d.obj
 0001:0000bff0       ?SetTextDrawingMode@Context2d@@SAXV?$Local@VString@v8@@@v8@@V?$Local@VValue@v8@@@3@AEBV?$PropertyCallbackInfo@X@Nan@@@Z 000000018000cff0 f   CanvasRenderingContext2d.obj
 0001:0000c0f0       ?GetFilter@Context2d@@SAXV?$Local@VString@v8@@@v8@@AEBV?$PropertyCallbackInfo@VValue@v8@@@Nan@@@Z 000000018000d0f0 f   CanvasRenderingContext2d.obj
 0001:0000c1d0       ?SetFilter@Context2d@@SAXV?$Local@VString@v8@@@v8@@V?$Local@VValue@v8@@@3@AEBV?$PropertyCallbackInfo@X@Nan@@@Z 000000018000d1d0 f   CanvasRenderingContext2d.obj
 0001:0000c310       ?GetMiterLimit@Context2d@@SAXV?$Local@VString@v8@@@v8@@AEBV?$PropertyCallbackInfo@VValue@v8@@@Nan@@@Z 000000018000d310 f   CanvasRenderingContext2d.obj
 0001:0000c390       ?SetMiterLimit@Context2d@@SAXV?$Local@VString@v8@@@v8@@V?$Local@VValue@v8@@@3@AEBV?$PropertyCallbackInfo@X@Nan@@@Z 000000018000d390 f   CanvasRenderingContext2d.obj
 0001:0000c3e0       ?GetLineWidth@Context2d@@SAXV?$Local@VString@v8@@@v8@@AEBV?$PropertyCallbackInfo@VValue@v8@@@Nan@@@Z 000000018000d3e0 f   CanvasRenderingContext2d.obj
 0001:0000c460       ?SetLineWidth@Context2d@@SAXV?$Local@VString@v8@@@v8@@V?$Local@VValue@v8@@@3@AEBV?$PropertyCallbackInfo@X@Nan@@@Z 000000018000d460 f   CanvasRenderingContext2d.obj
 0001:0000c4c0       ?GetLineJoin@Context2d@@SAXV?$Local@VString@v8@@@v8@@AEBV?$PropertyCallbackInfo@VValue@v8@@@Nan@@@Z 000000018000d4c0 f   CanvasRenderingContext2d.obj
 0001:0000c580       ?SetLineJoin@Context2d@@SAXV?$Local@VString@v8@@@v8@@V?$Local@VValue@v8@@@3@AEBV?$PropertyCallbackInfo@X@Nan@@@Z 000000018000d580 f   CanvasRenderingContext2d.obj
 0001:0000c670       ?GetLineCap@Context2d@@SAXV?$Local@VString@v8@@@v8@@AEBV?$PropertyCallbackInfo@VValue@v8@@@Nan@@@Z 000000018000d670 f   CanvasRenderingContext2d.obj
 0001:0000c730       ?SetLineCap@Context2d@@SAXV?$Local@VString@v8@@@v8@@V?$Local@VValue@v8@@@3@AEBV?$PropertyCallbackInfo@X@Nan@@@Z 000000018000d730 f   CanvasRenderingContext2d.obj
 0001:0000c820       ?IsPointInPath@Context2d@@SAXAEBV?$FunctionCallbackInfo@VValue@v8@@@Nan@@@Z 000000018000d820 f   CanvasRenderingContext2d.obj
 0001:0000c9b0       ?SetFillPattern@Context2d@@SAXAEBV?$FunctionCallbackInfo@VValue@v8@@@Nan@@@Z 000000018000d9b0 f   CanvasRenderingContext2d.obj
 0001:0000cb70       ?SetStrokePattern@Context2d@@SAXAEBV?$FunctionCallbackInfo@VValue@v8@@@Nan@@@Z 000000018000db70 f   CanvasRenderingContext2d.obj
 0001:0000cd30       ?SetShadowColor@Context2d@@SAXV?$Local@VString@v8@@@v8@@V?$Local@VValue@v8@@@3@AEBV?$PropertyCallbackInfo@X@Nan@@@Z 000000018000dd30 f   CanvasRenderingContext2d.obj
 0001:0000ce70       ?GetShadowColor@Context2d@@SAXV?$Local@VString@v8@@@v8@@AEBV?$PropertyCallbackInfo@VValue@v8@@@Nan@@@Z 000000018000de70 f   CanvasRenderingContext2d.obj
 0001:0000cff0       ?SetFillColor@Context2d@@SAXAEBV?$FunctionCallbackInfo@VValue@v8@@@Nan@@@Z 000000018000dff0 f   CanvasRenderingContext2d.obj
 0001:0000d140       ?GetFillColor@Context2d@@SAXV?$Local@VString@v8@@@v8@@AEBV?$PropertyCallbackInfo@VValue@v8@@@Nan@@@Z 000000018000e140 f   CanvasRenderingContext2d.obj
 0001:0000d2c0       ?SetStrokeColor@Context2d@@SAXAEBV?$FunctionCallbackInfo@VValue@v8@@@Nan@@@Z 000000018000e2c0 f   CanvasRenderingContext2d.obj
 0001:0000d410       ?GetStrokeColor@Context2d@@SAXV?$Local@VString@v8@@@v8@@AEBV?$PropertyCallbackInfo@VValue@v8@@@Nan@@@Z 000000018000e410 f   CanvasRenderingContext2d.obj
 0001:0000d590       ?BezierCurveTo@Context2d@@SAXAEBV?$FunctionCallbackInfo@VValue@v8@@@Nan@@@Z 000000018000e590 f   CanvasRenderingContext2d.obj
 0001:0000d870       ?QuadraticCurveTo@Context2d@@SAXAEBV?$FunctionCallbackInfo@VValue@v8@@@Nan@@@Z 000000018000e870 f   CanvasRenderingContext2d.obj
 0001:0000daf0       ?Save@Context2d@@SAXAEBV?$FunctionCallbackInfo@VValue@v8@@@Nan@@@Z 000000018000eaf0 f   CanvasRenderingContext2d.obj
 0001:0000db30       ?Restore@Context2d@@SAXAEBV?$FunctionCallbackInfo@VValue@v8@@@Nan@@@Z 000000018000eb30 f   CanvasRenderingContext2d.obj
 0001:0000dba0       ?BeginPath@Context2d@@SAXAEBV?$FunctionCallbackInfo@VValue@v8@@@Nan@@@Z 000000018000eba0 f   CanvasRenderingContext2d.obj
 0001:0000dbd0       ?ClosePath@Context2d@@SAXAEBV?$FunctionCallbackInfo@VValue@v8@@@Nan@@@Z 000000018000ebd0 f   CanvasRenderingContext2d.obj
 0001:0000dc00       ?Rotate@Context2d@@SAXAEBV?$FunctionCallbackInfo@VValue@v8@@@Nan@@@Z 000000018000ec00 f   CanvasRenderingContext2d.obj
 0001:0000dc90       ?Transform@Context2d@@SAXAEBV?$FunctionCallbackInfo@VValue@v8@@@Nan@@@Z 000000018000ec90 f   CanvasRenderingContext2d.obj
 0001:0000df80       ?ResetTransform@Context2d@@SAXAEBV?$FunctionCallbackInfo@VValue@v8@@@Nan@@@Z 000000018000ef80 f   CanvasRenderingContext2d.obj
 0001:0000dfb0       ?Translate@Context2d@@SAXAEBV?$FunctionCallbackInfo@VValue@v8@@@Nan@@@Z 000000018000efb0 f   CanvasRenderingContext2d.obj
 0001:0000e0b0       ?Scale@Context2d@@SAXAEBV?$FunctionCallbackInfo@VValue@v8@@@Nan@@@Z 000000018000f0b0 f   CanvasRenderingContext2d.obj
 0001:0000e1b0       ?Clip@Context2d@@SAXAEBV?$FunctionCallbackInfo@VValue@v8@@@Nan@@@Z 000000018000f1b0 f   CanvasRenderingContext2d.obj
 0001:0000e1e0       ?Fill@Context2d@@SAXAEBV?$FunctionCallbackInfo@VValue@v8@@@Nan@@@Z 000000018000f1e0 f   CanvasRenderingContext2d.obj
 0001:0000e210       ?Stroke@Context2d@@SAXAEBV?$FunctionCallbackInfo@VValue@v8@@@Nan@@@Z 000000018000f210 f   CanvasRenderingContext2d.obj
 0001:0000e240       ?FillText@Context2d@@SAXAEBV?$FunctionCallbackInfo@VValue@v8@@@Nan@@@Z 000000018000f240 f   CanvasRenderingContext2d.obj
 0001:0000e450       ?StrokeText@Context2d@@SAXAEBV?$FunctionCallbackInfo@VValue@v8@@@Nan@@@Z 000000018000f450 f   CanvasRenderingContext2d.obj
 0001:0000e660       ?setTextPath@Context2d@@QEAAXPEBDNN@Z 000000018000f660 f   CanvasRenderingContext2d.obj
 0001:0000e7d0       ?LineTo@Context2d@@SAXAEBV?$FunctionCallbackInfo@VValue@v8@@@Nan@@@Z 000000018000f7d0 f   CanvasRenderingContext2d.obj
 0001:0000e9e0       ?MoveTo@Context2d@@SAXAEBV?$FunctionCallbackInfo@VValue@v8@@@Nan@@@Z 000000018000f9e0 f   CanvasRenderingContext2d.obj
 0001:0000ebf0       ?SetFont@Context2d@@SAXAEBV?$FunctionCallbackInfo@VValue@v8@@@Nan@@@Z 000000018000fbf0 f   CanvasRenderingContext2d.obj
 0001:0000ef30       ?MeasureText@Context2d@@SAXAEBV?$FunctionCallbackInfo@VValue@v8@@@Nan@@@Z 000000018000ff30 f   CanvasRenderingContext2d.obj
 0001:0000f440       ?SetTextBaseline@Context2d@@SAXAEBV?$FunctionCallbackInfo@VValue@v8@@@Nan@@@Z 0000000180010440 f   CanvasRenderingContext2d.obj
 0001:0000f4c0       ?SetTextAlignment@Context2d@@SAXAEBV?$FunctionCallbackInfo@VValue@v8@@@Nan@@@Z 00000001800104c0 f   CanvasRenderingContext2d.obj
 0001:0000f540       ?SetLineDash@Context2d@@SAXAEBV?$FunctionCallbackInfo@VValue@v8@@@Nan@@@Z 0000000180010540 f   CanvasRenderingContext2d.obj
 0001:0000f7a0       ?GetLineDash@Context2d@@SAXAEBV?$FunctionCallbackInfo@VValue@v8@@@Nan@@@Z 00000001800107a0 f   CanvasRenderingContext2d.obj
 0001:0000f950       ?SetLineDashOffset@Context2d@@SAXV?$Local@VString@v8@@@v8@@V?$Local@VValue@v8@@@3@AEBV?$PropertyCallbackInfo@X@Nan@@@Z 0000000180010950 f   CanvasRenderingContext2d.obj
 0001:0000fa60       ?GetLineDashOffset@Context2d@@SAXV?$Local@VString@v8@@@v8@@AEBV?$PropertyCallbackInfo@VValue@v8@@@Nan@@@Z 0000000180010a60 f   CanvasRenderingContext2d.obj
 0001:0000faf0       ?FillRect@Context2d@@SAXAEBV?$FunctionCallbackInfo@VValue@v8@@@Nan@@@Z 0000000180010af0 f   CanvasRenderingContext2d.obj
 0001:0000fcf0       ?StrokeRect@Context2d@@SAXAEBV?$FunctionCallbackInfo@VValue@v8@@@Nan@@@Z 0000000180010cf0 f   CanvasRenderingContext2d.obj
 0001:0000fef0       ?ClearRect@Context2d@@SAXAEBV?$FunctionCallbackInfo@VValue@v8@@@Nan@@@Z 0000000180010ef0 f   CanvasRenderingContext2d.obj
 0001:00010110       ?Rect@Context2d@@SAXAEBV?$FunctionCallbackInfo@VValue@v8@@@Nan@@@Z 0000000180011110 f   CanvasRenderingContext2d.obj
 0001:00010330       ?Arc@Context2d@@SAXAEBV?$FunctionCallbackInfo@VValue@v8@@@Nan@@@Z 0000000180011330 f   CanvasRenderingContext2d.obj
 0001:000106e0       ?ArcTo@Context2d@@SAXAEBV?$FunctionCallbackInfo@VValue@v8@@@Nan@@@Z 00000001800116e0 f   CanvasRenderingContext2d.obj
 0001:00010dd0       ??1?$vector@NV?$allocator@N@std@@@std@@QEAA@XZ 0000000180011dd0 f i CanvasRenderingContext2d.obj
 0001:00011ba0       ?rgba_from_string@@YAHPEBDPEAF@Z 0000000180012ba0 f   color.obj
 0001:00011e80       ?GetFunction@Callback@Nan@@QEBA?AV?$Local@VFunction@v8@@@v8@@XZ 0000000180012e80 f i Image.obj
 0001:00011f10       ?Initialize@Image@@SAXV?$Local@VObject@v8@@@v8@@@Z 0000000180012f10 f   Image.obj
 0001:00012430       ?New@Image@@SAXAEBV?$FunctionCallbackInfo@VValue@v8@@@Nan@@@Z 0000000180013430 f   Image.obj
 0001:000124d0       ?GetComplete@Image@@SAXV?$Local@VString@v8@@@v8@@AEBV?$PropertyCallbackInfo@VValue@v8@@@Nan@@@Z 00000001800134d0 f   Image.obj
 0001:00012550       ?GetDataMode@Image@@SAXV?$Local@VString@v8@@@v8@@AEBV?$PropertyCallbackInfo@VValue@v8@@@Nan@@@Z 0000000180013550 f   Image.obj
 0001:000125d0       ?SetDataMode@Image@@SAXV?$Local@VString@v8@@@v8@@V?$Local@VValue@v8@@@3@AEBV?$PropertyCallbackInfo@X@Nan@@@Z 00000001800135d0 f   Image.obj
 0001:00012610       ?GetWidth@Image@@SAXV?$Local@VString@v8@@@v8@@AEBV?$PropertyCallbackInfo@VValue@v8@@@Nan@@@Z 0000000180013610 f   Image.obj
 0001:00012690       ?GetHeight@Image@@SAXV?$Local@VString@v8@@@v8@@AEBV?$PropertyCallbackInfo@VValue@v8@@@Nan@@@Z 0000000180013690 f   Image.obj
 0001:00012710       ?GetSource@Image@@SAXV?$Local@VString@v8@@@v8@@AEBV?$PropertyCallbackInfo@VValue@v8@@@Nan@@@Z 0000000180013710 f   Image.obj
 0001:000127b0       ?clearData@Image@@QEAAXXZ  00000001800137b0 f   Image.obj
 0001:00012870       ?SetSource@Image@@SAXV?$Local@VString@v8@@@v8@@V?$Local@VValue@v8@@@3@AEBV?$PropertyCallbackInfo@X@Nan@@@Z 0000000180013870 f   Image.obj
 0001:00012a50       ?loadFromBuffer@Image@@QEAA?AW4_cairo_status@@PEAEI@Z 0000000180013a50 f   Image.obj
 0001:00012ae0       ?readPNG@Image@@SA?AW4_cairo_status@@PEAXPEAEI@Z 0000000180013ae0 f   Image.obj
 0001:00012b20       ?GetOnload@Image@@SAXV?$Local@VString@v8@@@v8@@AEBV?$PropertyCallbackInfo@VValue@v8@@@Nan@@@Z 0000000180013b20 f   Image.obj
 0001:00012b90       ?SetOnload@Image@@SAXV?$Local@VString@v8@@@v8@@V?$Local@VValue@v8@@@3@AEBV?$PropertyCallbackInfo@X@Nan@@@Z 0000000180013b90 f   Image.obj
 0001:00012c00       ?GetOnerror@Image@@SAXV?$Local@VString@v8@@@v8@@AEBV?$PropertyCallbackInfo@VValue@v8@@@Nan@@@Z 0000000180013c00 f   Image.obj
 0001:00012c70       ?SetOnerror@Image@@SAXV?$Local@VString@v8@@@v8@@V?$Local@VValue@v8@@@3@AEBV?$PropertyCallbackInfo@X@Nan@@@Z 0000000180013c70 f   Image.obj
 0001:00012ce0       ??_GImage@@EEAAPEAXI@Z     0000000180013ce0 f i Image.obj
 0001:00012ce0       ??_EImage@@EEAAPEAXI@Z     0000000180013ce0 f i * CIL library *:* CIL module *
 0001:00012d10       ??1Image@@EEAA@XZ          0000000180013d10 f   Image.obj
 0001:00012e10       ?loaded@Image@@QEAAXXZ     0000000180013e10 f   Image.obj
 0001:00012f50       ?error@Image@@QEAAXV?$Local@VValue@v8@@@v8@@@Z 0000000180013f50 f   Image.obj
 0001:00013030       ?loadSurface@Image@@QEAA?AW4_cairo_status@@XZ 0000000180014030 f   Image.obj
 0001:000130f0       ?Initialize@ImageData@@SAXV?$Local@VObject@v8@@@v8@@@Z 00000001800140f0 f   ImageData.obj
 0001:00013320       ?New@ImageData@@SAXAEBV?$FunctionCallbackInfo@VValue@v8@@@Nan@@@Z 0000000180014320 f   ImageData.obj
 0001:000139e0       ?init@@YAXV?$Local@VObject@v8@@@v8@@@Z 00000001800149e0 f   init.obj
 0001:00013b0c       __imp_load_?Data@Buffer@node@@YAPEADV?$Local@VObject@v8@@@v8@@@Z 0000000180014b0c f   node:node.exe
 0001:00013b18       __tailMerge_node_exe       0000000180014b18 f i node:node.exe
 0001:00013b91       __imp_load_?Copy@Buffer@node@@YA?AV?$MaybeLocal@VObject@v8@@@v8@@PEAVIsolate@4@PEBD_K@Z 0000000180014b91 f   node:node.exe
 0001:00013b9d       __imp_load_?MakeCallback@node@@YA?AV?$Local@VValue@v8@@@v8@@PEAVIsolate@3@V?$Local@VObject@v8@@@3@V?$Local@VFunction@v8@@@3@HPEAV23@@Z 0000000180014b9d f   node:node.exe
 0001:00013ba9       __imp_load_uv_default_loop 0000000180014ba9 f   node:node.exe
 0001:00013bb5       __imp_load_?ReThrow@TryCatch@v8@@QEAA?AV?$Local@VValue@v8@@@2@XZ 0000000180014bb5 f   node:node.exe
 0001:00013bc1       __imp_load_?HasCaught@TryCatch@v8@@QEBA_NXZ 0000000180014bc1 f   node:node.exe
 0001:00013bcd       __imp_load_??1TryCatch@v8@@QEAA@XZ 0000000180014bcd f   node:node.exe
 0001:00013bd9       __imp_load_??0TryCatch@v8@@QEAA@XZ 0000000180014bd9 f   node:node.exe
 0001:00013be5       __imp_load_?Initialize@Locker@v8@@AEAAXPEAVIsolate@2@@Z 0000000180014be5 f   node:node.exe
 0001:00013bf1       __imp_load_?New@Signature@v8@@SA?AV?$Local@VSignature@v8@@@2@PEAVIsolate@2@V?$Local@VFunctionTemplate@v8@@@2@@Z 0000000180014bf1 f   node:node.exe
 0001:00013bfd       __imp_load_?GetId@UnboundScript@v8@@QEAAHXZ 0000000180014bfd f   node:node.exe
 0001:00013c09       __imp_load_?Global@Context@v8@@QEAA?AV?$Local@VObject@v8@@@2@XZ 0000000180014c09 f   node:node.exe
 0001:00013c15       __imp_load_?GetUnboundScript@Script@v8@@QEAA?AV?$Local@VUnboundScript@v8@@@2@XZ 0000000180014c15 f   node:node.exe
 0001:00013c21       __imp_load_?ToLocalEmpty@V8@v8@@CAXXZ 0000000180014c21 f   node:node.exe
 0001:00013c2d       __imp_load_?ClearWeak@V8@v8@@CAPEAXPEAPEAVObject@internal@2@@Z 0000000180014c2d f   node:node.exe
 0001:00013c39       __imp_load_?MakeWeak@V8@v8@@CAXPEAPEAVObject@internal@2@PEAXP6AXAEBV?$WeakCallbackInfo@X@2@@ZW4WeakCallbackType@2@@Z 0000000180014c39 f   node:node.exe
 0001:00013c45       __imp_load_?DisposeGlobal@V8@v8@@CAXPEAPEAVObject@internal@2@@Z 0000000180014c45 f   node:node.exe
 0001:00013c51       __imp_load_?GlobalizeReference@V8@v8@@CAPEAPEAVObject@internal@2@PEAVIsolate@42@PEAPEAV342@@Z 0000000180014c51 f   node:node.exe
 0001:00013c5d       __imp_load_?Escape@EscapableHandleScope@v8@@AEAAPEAPEAVObject@internal@2@PEAPEAV342@@Z 0000000180014c5d f   node:node.exe
 0001:00013c69       __imp_load_??0EscapableHandleScope@v8@@QEAA@PEAVIsolate@1@@Z 0000000180014c69 f   node:node.exe
 0001:00013c75       __imp_load_?StrictEquals@Value@v8@@QEBA_NV?$Local@VValue@v8@@@2@@Z 0000000180014c75 f   node:node.exe
 0001:00013c81       __imp_load_?Uint32Value@Value@v8@@QEBAIXZ 0000000180014c81 f   node:node.exe
 0001:00013c8d       __imp_load_?ToInt32@Value@v8@@QEBA?AV?$MaybeLocal@VInt32@v8@@@2@V?$Local@VContext@v8@@@2@@Z 0000000180014c8d f   node:node.exe
 0001:00013c99       __imp_load_?ToUint32@Value@v8@@QEBA?AV?$MaybeLocal@VUint32@v8@@@2@V?$Local@VContext@v8@@@2@@Z 0000000180014c99 f   node:node.exe
 0001:00013ca5       __imp_load_?ToInteger@Value@v8@@QEBA?AV?$MaybeLocal@VInteger@v8@@@2@V?$Local@VContext@v8@@@2@@Z 0000000180014ca5 f   node:node.exe
 0001:00013cb1       __imp_load_?ToObject@Value@v8@@QEBA?AV?$MaybeLocal@VObject@v8@@@2@V?$Local@VContext@v8@@@2@@Z 0000000180014cb1 f   node:node.exe
 0001:00013cbd       __imp_load_?ToDetailString@Value@v8@@QEBA?AV?$MaybeLocal@VString@v8@@@2@V?$Local@VContext@v8@@@2@@Z 0000000180014cbd f   node:node.exe
 0001:00013cc9       __imp_load_?ToString@Value@v8@@QEBA?AV?$MaybeLocal@VString@v8@@@2@V?$Local@VContext@v8@@@2@@Z 0000000180014cc9 f   node:node.exe
 0001:00013cd5       __imp_load_?ToNumber@Value@v8@@QEBA?AV?$MaybeLocal@VNumber@v8@@@2@V?$Local@VContext@v8@@@2@@Z 0000000180014cd5 f   node:node.exe
 0001:00013ce1       __imp_load_?ToBoolean@Value@v8@@QEBA?AV?$MaybeLocal@VBoolean@v8@@@2@V?$Local@VContext@v8@@@2@@Z 0000000180014ce1 f   node:node.exe
 0001:00013ced       __imp_load_?IsUint32@Value@v8@@QEBA_NXZ 0000000180014ced f   node:node.exe
 0001:00013cf9       __imp_load_?IsNumber@Value@v8@@QEBA_NXZ 0000000180014cf9 f   node:node.exe
 0001:00013d05       __imp_load_?IsFunction@Value@v8@@QEBA_NXZ 0000000180014d05 f   node:node.exe
 0001:00013d11       __imp_load_?SetClassName@FunctionTemplate@v8@@QEAAXV?$Local@VString@v8@@@2@@Z 0000000180014d11 f   node:node.exe
 0001:00013d1d       __imp_load_?PrototypeTemplate@FunctionTemplate@v8@@QEAA?AV?$Local@VObjectTemplate@v8@@@2@XZ 0000000180014d1d f   node:node.exe
 0001:00013d29       __imp_load_?InstanceTemplate@FunctionTemplate@v8@@QEAA?AV?$Local@VObjectTemplate@v8@@@2@XZ 0000000180014d29 f   node:node.exe
 0001:00013d35       __imp_load_?GetFunction@FunctionTemplate@v8@@QEAA?AV?$Local@VFunction@v8@@@2@XZ 0000000180014d35 f   node:node.exe
 0001:00013d41       __imp_load_?GetFunction@FunctionTemplate@v8@@QEAA?AV?$MaybeLocal@VFunction@v8@@@2@V?$Local@VContext@v8@@@2@@Z 0000000180014d41 f   node:node.exe
 0001:00013d4d       __imp_load_?New@FunctionTemplate@v8@@SA?AV?$Local@VFunctionTemplate@v8@@@2@PEAVIsolate@2@P6AXAEBV?$FunctionCallbackInfo@VValue@v8@@@2@@ZV?$Local@VValue@v8@@@2@V?$Local@VSignature@v8@@@2@H@Z 0000000180014d4d f   node:node.exe
 0001:00013d59       __imp_load_?Error@Exception@v8@@SA?AV?$Local@VValue@v8@@@2@V?$Local@VString@v8@@@2@@Z 0000000180014d59 f   node:node.exe
 0001:00013d65       __imp_load_?TypeError@Exception@v8@@SA?AV?$Local@VValue@v8@@@2@V?$Local@VString@v8@@@2@@Z 0000000180014d65 f   node:node.exe
 0001:00013d71       __imp_load_?RangeError@Exception@v8@@SA?AV?$Local@VValue@v8@@@2@V?$Local@VString@v8@@@2@@Z 0000000180014d71 f   node:node.exe
 0001:00013d7d       __imp_load_??1Utf8Value@String@v8@@QEAA@XZ 0000000180014d7d f   node:node.exe
 0001:00013d89       __imp_load_??0Utf8Value@String@v8@@QEAA@V?$Local@VValue@v8@@@2@@Z 0000000180014d89 f   node:node.exe
 0001:00013d95       __imp_load_?NewFromUtf8@String@v8@@SA?AV?$MaybeLocal@VString@v8@@@2@PEAVIsolate@2@PEBDW4NewStringType@2@H@Z 0000000180014d95 f   node:node.exe
 0001:00013da1       __imp_load_?CreateHandle@HandleScope@v8@@KAPEAPEAVObject@internal@2@PEAVIsolate@42@PEAV342@@Z 0000000180014da1 f   node:node.exe
 0001:00013dad       __imp_load_?CreateHandle@HandleScope@v8@@CAPEAPEAVObject@internal@2@PEAVHeapObject@42@PEAV342@@Z 0000000180014dad f   node:node.exe
 0001:00013db9       __imp_load_??1HandleScope@v8@@QEAA@XZ 0000000180014db9 f   node:node.exe
 0001:00013dc5       __imp_load_??0HandleScope@v8@@QEAA@PEAVIsolate@1@@Z 0000000180014dc5 f   node:node.exe
 0001:00013dd1       __imp_load_?New@Number@v8@@SA?AV?$Local@VNumber@v8@@@2@PEAVIsolate@2@N@Z 0000000180014dd1 f   node:node.exe
 0001:00013ddd       __imp_load_?SlowGetAlignedPointerFromInternalField@Object@v8@@AEAAPEAXH@Z 0000000180014ddd f   node:node.exe
 0001:00013de9       __imp_load_?SlowGetInternalField@Object@v8@@AEAA?AV?$Local@VValue@v8@@@2@H@Z 0000000180014de9 f   node:node.exe
 0001:00013df5       __imp_load_?New@Object@v8@@SA?AV?$Local@VObject@v8@@@2@PEAVIsolate@2@@Z 0000000180014df5 f   node:node.exe
 0001:00013e01       __imp_load_?SetAlignedPointerInInternalField@Object@v8@@QEAAXHPEAX@Z 0000000180014e01 f   node:node.exe
 0001:00013e0d       __imp_load_?SetInternalField@Object@v8@@QEAAXHV?$Local@VValue@v8@@@2@@Z 0000000180014e0d f   node:node.exe
 0001:00013e19       __imp_load_?InternalFieldCount@Object@v8@@QEAAHXZ 0000000180014e19 f   node:node.exe
 0001:00013e25       __imp_load_?Get@Object@v8@@QEAA?AV?$Local@VValue@v8@@@2@V32@@Z 0000000180014e25 f   node:node.exe
 0001:00013e31       __imp_load_?Get@Object@v8@@QEAA?AV?$Local@VValue@v8@@@2@I@Z 0000000180014e31 f   node:node.exe
 0001:00013e3d       __imp_load_?Set@Object@v8@@QEAA?AV?$Maybe@_N@2@V?$Local@VContext@v8@@@2@V?$Local@VValue@v8@@@2@1@Z 0000000180014e3d f   node:node.exe
 0001:00013e49       __imp_load_?Set@Object@v8@@QEAA?AV?$Maybe@_N@2@V?$Local@VContext@v8@@@2@IV?$Local@VValue@v8@@@2@@Z 0000000180014e49 f   node:node.exe
 0001:00013e55       __imp_load_?Initialize@Unlocker@v8@@AEAAXPEAVIsolate@2@@Z 0000000180014e55 f   node:node.exe
 0001:00013e61       __imp_load_?Set@Template@v8@@QEAAXV?$Local@VName@v8@@@2@V?$Local@VData@v8@@@2@W4PropertyAttribute@2@@Z 0000000180014e61 f   node:node.exe
 0001:00013e6d       __imp_load_?SetInternalFieldCount@ObjectTemplate@v8@@QEAAXH@Z 0000000180014e6d f   node:node.exe
 0001:00013e79       __imp_load_?SetHandler@ObjectTemplate@v8@@QEAAXAEBUIndexedPropertyHandlerConfiguration@2@@Z 0000000180014e79 f   node:node.exe
 0001:00013e85       __imp_load_?SetAccessor@ObjectTemplate@v8@@QEAAXV?$Local@VName@v8@@@2@P6AX0AEBV?$PropertyCallbackInfo@VValue@v8@@@2@@ZP6AX0V?$Local@VValue@v8@@@2@AEBV?$PropertyCallbackInfo@X@2@@Z3W4AccessControl@2@W4PropertyAttribute@2@V?$Local@VAccessorSignature@v8@@@2@@Z 0000000180014e85 f   node:node.exe
 0001:00013e91       __imp_load_?NewInstance@ObjectTemplate@v8@@QEAA?AV?$MaybeLocal@VObject@v8@@@2@V?$Local@VContext@v8@@@2@@Z 0000000180014e91 f   node:node.exe
 0001:00013e9d       __imp_load_?New@ObjectTemplate@v8@@SA?AV?$Local@VObjectTemplate@v8@@@2@PEAVIsolate@2@V?$Local@VFunctionTemplate@v8@@@2@@Z 0000000180014e9d f   node:node.exe
 0001:00013ea9       __imp_load_?NewFromUnsigned@Integer@v8@@SA?AV?$Local@VInteger@v8@@@2@PEAVIsolate@2@I@Z 0000000180014ea9 f   node:node.exe
 0001:00013eb5       __imp_load_?SetName@Function@v8@@QEAAXV?$Local@VString@v8@@@2@@Z 0000000180014eb5 f   node:node.exe
 0001:00013ec1       __imp_load_?NewInstance@Function@v8@@QEBA?AV?$MaybeLocal@VObject@v8@@@2@V?$Local@VContext@v8@@@2@HQEAV?$Local@VValue@v8@@@2@@Z 0000000180014ec1 f   node:node.exe
 0001:00013ecd       __imp_load_?CollectAllGarbage@Isolate@v8@@AEAAXPEBD@Z 0000000180014ecd f   node:node.exe
 0001:00013ed9       __imp_load_?VisitHandlesForPartialDependence@Isolate@v8@@QEAAXPEAVPersistentHandleVisitor@2@@Z 0000000180014ed9 f   node:node.exe
 0001:00013ee5       __imp_load_?VisitHandlesWithClassIds@Isolate@v8@@QEAAXPEAVPersistentHandleVisitor@2@@Z 0000000180014ee5 f   node:node.exe
 0001:00013ef1       __imp_load_?VisitExternalResources@Isolate@v8@@QEAAXPEAVExternalResourceVisitor@2@@Z 0000000180014ef1 f   node:node.exe
 0001:00013efd       __imp_load_?RemoveMemoryAllocationCallback@Isolate@v8@@QEAAXP6AXW4ObjectSpace@2@W4AllocationAction@2@H@Z@Z 0000000180014efd f   node:node.exe
 0001:00013f09       __imp_load_?AddMemoryAllocationCallback@Isolate@v8@@QEAAXP6AXW4ObjectSpace@2@W4AllocationAction@2@H@Z01@Z 0000000180014f09 f   node:node.exe
 0001:00013f15       __imp_load_?SetCaptureStackTraceForUncaughtExceptions@Isolate@v8@@QEAAX_NHW4StackTraceOptions@StackTrace@2@@Z 0000000180014f15 f   node:node.exe
 0001:00013f21       __imp_load_?SetFailedAccessCheckCallbackFunction@Isolate@v8@@QEAAXP6AXV?$Local@VObject@v8@@@2@W4AccessType@2@V?$Local@VValue@v8@@@2@@Z@Z 0000000180014f21 f   node:node.exe
 0001:00013f2d       __imp_load_?RemoveMessageListeners@Isolate@v8@@QEAAXP6AXV?$Local@VMessage@v8@@@2@V?$Local@VValue@v8@@@2@@Z@Z 0000000180014f2d f   node:node.exe
 0001:00013f39       __imp_load_?AddMessageListener@Isolate@v8@@QEAA_NP6AXV?$Local@VMessage@v8@@@2@V?$Local@VValue@v8@@@2@@Z1@Z 0000000180014f39 f   node:node.exe
 0001:00013f45       __imp_load_?IsDead@Isolate@v8@@QEAA_NXZ 0000000180014f45 f   node:node.exe
 0001:00013f51       __imp_load_?SetAllowCodeGenerationFromStringsCallback@Isolate@v8@@QEAAXP6A_NV?$Local@VContext@v8@@@2@@Z@Z 0000000180014f51 f   node:node.exe
 0001:00013f5d       __imp_load_?SetFatalErrorHandler@Isolate@v8@@QEAAXP6AXPEBD0@Z@Z 0000000180014f5d f   node:node.exe
 0001:00013f69       __imp_load_?CancelTerminateExecution@Isolate@v8@@QEAAXXZ 0000000180014f69 f   node:node.exe
 0001:00013f75       __imp_load_?IsExecutionTerminating@Isolate@v8@@QEAA_NXZ 0000000180014f75 f   node:node.exe
 0001:00013f81       __imp_load_?TerminateExecution@Isolate@v8@@QEAAXXZ 0000000180014f81 f   node:node.exe
 0001:00013f8d       __imp_load_?RemoveGCEpilogueCallback@Isolate@v8@@QEAAXP6AXPEAV12@W4GCType@2@W4GCCallbackFlags@2@@Z@Z 0000000180014f8d f   node:node.exe
 0001:00013f99       __imp_load_?RemoveGCPrologueCallback@Isolate@v8@@QEAAXP6AXPEAV12@W4GCType@2@W4GCCallbackFlags@2@@Z@Z 0000000180014f99 f   node:node.exe
 0001:00013fa5       __imp_load_?ThrowException@Isolate@v8@@QEAA?AV?$Local@VValue@v8@@@2@V32@@Z 0000000180014fa5 f   node:node.exe
 0001:00013fb1       __imp_load_?GetCurrentContext@Isolate@v8@@QEAA?AV?$Local@VContext@v8@@@2@XZ 0000000180014fb1 f   node:node.exe
 0001:00013fbd       __imp_load_?Exit@Isolate@v8@@QEAAXXZ 0000000180014fbd f   node:node.exe
 0001:00013fc9       __imp_load_?Enter@Isolate@v8@@QEAAXXZ 0000000180014fc9 f   node:node.exe
 0001:00013fd5       __imp_load_?GetCurrent@Isolate@v8@@SAPEAV12@XZ 0000000180014fd5 f   node:node.exe
 0001:00013fe1       __imp_load_?ResetToBookmark@ExternalSourceStream@ScriptCompiler@v8@@UEAAXXZ 0000000180014fe1 f   node:node.exe
 0001:00013fed       ?ResetToBookmark@ExternalSourceStream@ScriptCompiler@v8@@UEAAXXZ 0000000180014fed f   node:node.exe
 0001:00013ff3       __imp_load_?SetBookmark@ExternalSourceStream@ScriptCompiler@v8@@UEAA_NXZ 0000000180014ff3 f   node:node.exe
 0001:00013fff       ?SetBookmark@ExternalSourceStream@ScriptCompiler@v8@@UEAA_NXZ 0000000180014fff f   node:node.exe
 0001:00014005       __imp_load_?Value@External@v8@@QEBAPEAXXZ 0000000180015005 f   node:node.exe
 0001:00014011       __imp_load_?New@External@v8@@SA?AV?$Local@VExternal@v8@@@2@PEAVIsolate@2@PEAX@Z 0000000180015011 f   node:node.exe
 0001:0001401d       __imp_load_uv_queue_work   000000018001501d f   node:node.exe
 0001:00014029       __imp_load_?NumberValue@Value@v8@@QEBANXZ 0000000180015029 f   node:node.exe
 0001:00014035       __imp_load_?HasInstance@FunctionTemplate@v8@@QEAA_NV?$Local@VValue@v8@@@2@@Z 0000000180015035 f   node:node.exe
 0001:00014041       __imp_load_?New@Uint8ClampedArray@v8@@SA?AV?$Local@VUint8ClampedArray@v8@@@2@V?$Local@VArrayBuffer@v8@@@2@_K1@Z 0000000180015041 f   node:node.exe
 0001:0001404d       __imp_load_?Int32Value@Value@v8@@QEBAHXZ 000000018001504d f   node:node.exe
 0001:00014059       __imp_load_?BooleanValue@Value@v8@@QEBA_NXZ 0000000180015059 f   node:node.exe
 0001:00014065       __imp_load_?IsInt32@Value@v8@@QEBA_NXZ 0000000180015065 f   node:node.exe
 0001:00014071       __imp_load_?IsArray@Value@v8@@QEBA_NXZ 0000000180015071 f   node:node.exe
 0001:0001407d       __imp_load_?New@Array@v8@@SA?AV?$Local@VArray@v8@@@2@PEAVIsolate@2@H@Z 000000018001507d f   node:node.exe
 0001:00014089       __imp_load_?Length@Array@v8@@QEBAIXZ 0000000180015089 f   node:node.exe
 0001:00014095       __imp_load_?Set@Object@v8@@QEAA_NV?$Local@VValue@v8@@@2@0@Z 0000000180015095 f   node:node.exe
 0001:000140a1       __imp_load_?New@Integer@v8@@SA?AV?$Local@VInteger@v8@@@2@PEAVIsolate@2@H@Z 00000001800150a1 f   node:node.exe
 0001:000140ad       __imp_load_?NewInstance@Function@v8@@QEBA?AV?$Local@VObject@v8@@@2@HQEAV?$Local@VValue@v8@@@2@@Z 00000001800150ad f   node:node.exe
 0001:000140b9       __imp_load_?GetContents@ArrayBuffer@v8@@QEAA?AVContents@12@XZ 00000001800150b9 f   node:node.exe
 0001:000140c5       __imp_load_?New@ArrayBuffer@v8@@SA?AV?$Local@VArrayBuffer@v8@@@2@PEAVIsolate@2@_K@Z 00000001800150c5 f   node:node.exe
 0001:000140d1       __imp_load_?Length@Buffer@node@@YA_KV?$Local@VObject@v8@@@v8@@@Z 00000001800150d1 f   node:node.exe
 0001:000140dd       __imp_load_?HasInstance@Buffer@node@@YA_NV?$Local@VValue@v8@@@v8@@@Z 00000001800150dd f   node:node.exe
 0001:000140e9       __imp_load_?Buffer@ArrayBufferView@v8@@QEAA?AV?$Local@VArrayBuffer@v8@@@2@XZ 00000001800150e9 f   node:node.exe
 0001:000140f5       __imp_load_?IsUint8ClampedArray@Value@v8@@QEBA_NXZ 00000001800150f5 f   node:node.exe
 0001:00014101       __imp_load_?Length@TypedArray@v8@@QEAA_KXZ 0000000180015101 f   node:node.exe
 0001:0001410d       __imp_load_node_module_register 000000018001510d f   node:node.exe
 0001:0001411c       ??0bad_alloc@std@@QEAA@AEBV01@@Z 000000018001511c f i libcpmt:xthrow.obj
 0001:00014140       ??0length_error@std@@QEAA@AEBV01@@Z 0000000180015140 f i libcpmt:xthrow.obj
 0001:00014164       ??0logic_error@std@@QEAA@AEBV01@@Z 0000000180015164 f i libcpmt:xthrow.obj
 0001:00014188       ??1bad_alloc@std@@UEAA@XZ  0000000180015188 f i libcpmt:xthrow.obj
 0001:00014198       ??1length_error@std@@UEAA@XZ 0000000180015198 f i libcpmt:xthrow.obj
 0001:000141a0       ??_Ebad_alloc@std@@UEAAPEAXI@Z 00000001800151a0 f i libcpmt:xthrow.obj
 0001:000141a0       ??_Gbad_alloc@std@@UEAAPEAXI@Z 00000001800151a0 f i libcpmt:xthrow.obj
 0001:000141dc       ??_Elength_error@std@@UEAAPEAXI@Z 00000001800151dc f i libcpmt:xthrow.obj
 0001:000141dc       ??_Elogic_error@std@@UEAAPEAXI@Z 00000001800151dc f i libcpmt:xthrow.obj
 0001:000141dc       ??_Glogic_error@std@@UEAAPEAXI@Z 00000001800151dc f i libcpmt:xthrow.obj
 0001:000141dc       ??_Glength_error@std@@UEAAPEAXI@Z 00000001800151dc f i libcpmt:xthrow.obj
 0001:0001420c       ?_Xbad_alloc@std@@YAXXZ    000000018001520c f   libcpmt:xthrow.obj
 0001:00014250       ?_Xlength_error@std@@YAXPEBD@Z 0000000180015250 f   libcpmt:xthrow.obj
 0001:000142a0       __security_check_cookie    00000001800152a0 f   LIBCMT:amdsecgs.obj
 0001:000142d0       memmove                    00000001800152d0 f   LIBCMT:memcpy.obj
 0001:000142d0       memcpy                     00000001800152d0 f   LIBCMT:memcpy.obj
 0001:00014838       free                       0000000180015838 f   LIBCMT:free.obj
 0001:00014878       malloc                     0000000180015878 f   LIBCMT:malloc.obj
 0001:00014930       ??_M@YAXPEAX_KHP6AX0@Z@Z   0000000180015930 f   LIBCMT:ehvecdtr.obj
 0001:00014990       ?__ArrayUnwind@@YAXPEAX_KHP6AX0@Z@Z 0000000180015990 f   LIBCMT:ehvecdtr.obj
 0001:000149dc       _wassert                   00000001800159dc f   LIBCMT:wassert.obj
 0001:00015340       __onexitinit               0000000180016340 f   LIBCMT:onexit.obj
 0001:00015384       _onexit                    0000000180016384 f   LIBCMT:onexit.obj
 0001:00015490       atexit                     0000000180016490 f   LIBCMT:onexit.obj
 0001:000154a8       _purecall                  00000001800164a8 f   LIBCMT:purevirt.obj
 0001:000154d4       ??3@YAXPEAX@Z              00000001800164d4 f   LIBCMT:delete.obj
 0001:000154f0       longjmp                    00000001800164f0 f   LIBCMT:longjmp.obj
 0001:000155dc       realloc                    00000001800165dc f   LIBCMT:realloc.obj
 0001:000156b0       ??2@YAPEAX_K@Z             00000001800166b0 f   LIBCMT:new.obj
 0001:0001571c       _isnan                     000000018001671c f   LIBCMT:ieeemisc.obj
 0001:00015748       _finite                    0000000180016748 f   LIBCMT:_finite.obj
 0001:00015774       strstr                     0000000180016774 f   LIBCMT:strstr.obj
 0001:00015954       _snprintf                  0000000180016954 f   LIBCMT:snprintf.obj
 0001:00015a08       _get_printf_count_output   0000000180016a08 f   LIBCMT:printf.obj
 0001:00015a20       _fsopen                    0000000180016a20 f   LIBCMT:fopen.obj
 0001:00015af8       fopen                      0000000180016af8 f   LIBCMT:fopen.obj
 0001:00015b04       _fread_nolock_s            0000000180016b04 f   LIBCMT:fread.obj
 0001:00015d24       fread                      0000000180016d24 f   LIBCMT:fread.obj
 0001:00015d44       fread_s                    0000000180016d44 f   LIBCMT:fread.obj
 0001:00015dec       _fseek_nolock              0000000180016dec f   LIBCMT:fseek.obj
 0001:00015e98       fseek                      0000000180016e98 f   LIBCMT:fseek.obj
 0001:00015f0c       _fclose_nolock             0000000180016f0c f   LIBCMT:fclose.obj
 0001:00015f88       fclose                     0000000180016f88 f   LIBCMT:fclose.obj
 0001:00015ff0       ??0_LocaleUpdate@@QEAA@PEAUlocaleinfo_struct@@@Z 0000000180016ff0 f i LIBCMT:stricmp.obj
 0001:00016098       __ascii_stricmp            0000000180017098 f   LIBCMT:stricmp.obj
 0001:000160d4       _stricmp                   00000001800170d4 f   LIBCMT:stricmp.obj
 0001:0001611c       _stricmp_l                 000000018001711c f   LIBCMT:stricmp.obj
 0001:000161d0       _CRT_INIT                  00000001800171d0 f   LIBCMT:dllcrt0.obj
 0001:00016330       _DllMainCRTStartup         0000000180017330 f   LIBCMT:dllcrt0.obj
 0001:000164a0       strlen                     00000001800174a0 f   LIBCMT:strlen.obj
 0001:00016548       _CxxThrowException         0000000180017548 f   LIBCMT:throw.obj
 0001:00016610       ?_GetEstablisherFrame@@YAPEA_KPEA_KPEAU_xDISPATCHER_CONTEXT@@PEBU_s_FuncInfo@@0@Z 0000000180017610 f   LIBCMT:trnsctrl.obj
 0001:000166dc       ?_GetRangeOfTrysToCheck@@YAPEBU_s_TryBlockMapEntry@@PEA_KPEBU_s_FuncInfo@@HHPEAI2PEAU_xDISPATCHER_CONTEXT@@@Z 00000001800176dc f   LIBCMT:trnsctrl.obj
 0001:00016808       ?__FrameUnwindToEmptyState@@YAXPEA_KPEAU_xDISPATCHER_CONTEXT@@PEBU_s_FuncInfo@@@Z 0000000180017808 f   LIBCMT:trnsctrl.obj
 0001:0001689c       ?__SehTransFilter@@YAHPEAU_EXCEPTION_POINTERS@@PEAUEHExceptionRecord@@PEA_KPEAU_CONTEXT@@PEAU_xDISPATCHER_CONTEXT@@PEBU_s_FuncInfo@@PEAH@Z 000000018001789c f   LIBCMT:trnsctrl.obj
 0001:00016940       _CallSETranslator          0000000180017940 f   LIBCMT:trnsctrl.obj
 0001:00016994       _CreateFrameInfo           0000000180017994 f   LIBCMT:trnsctrl.obj
 0001:000169d8       _FindAndUnlinkFrame        00000001800179d8 f   LIBCMT:trnsctrl.obj
 0001:00016a38       _GetImageBase              0000000180017a38 f   LIBCMT:trnsctrl.obj
 0001:00016a50       _GetThrowImageBase         0000000180017a50 f   LIBCMT:trnsctrl.obj
 0001:00016a68       _IsExceptionObjectToBeDestroyed 0000000180017a68 f   LIBCMT:trnsctrl.obj
 0001:00016a9c       _SetImageBase              0000000180017a9c f   LIBCMT:trnsctrl.obj
 0001:00016ab8       _SetThrowImageBase         0000000180017ab8 f   LIBCMT:trnsctrl.obj
 0001:00016ad4       _UnwindNestedFrames        0000000180017ad4 f   LIBCMT:trnsctrl.obj
 0001:00016bf8       __CxxFrameHandler3         0000000180017bf8 f   LIBCMT:trnsctrl.obj
 0001:00016c80       ??8type_info@@QEBA_NAEBV0@@Z 0000000180017c80 f   LIBCMT:typinfo.obj
 0001:00016ca0       ??_Gtype_info@@UEAAPEAXI@Z 0000000180017ca0 f i LIBCMT:typinfo.obj
 0001:00016ca0       ??_Etype_info@@UEAAPEAXI@Z 0000000180017ca0 f i LIBCMT:typinfo.obj
 0001:00016cdc       _fpmath                    0000000180017cdc f   LIBCMT:fpinit.obj
 0001:00016ce4       _cfltcvt_init              0000000180017ce4 f   LIBCMT:fpinit.obj
 0001:00016d6c       ??0exception@std@@QEAA@AEBQEBD@Z 0000000180017d6c f   LIBCMT:stdexcpt.obj
 0001:00016d9c       ??0exception@std@@QEAA@AEBQEBDH@Z 0000000180017d9c f   LIBCMT:stdexcpt.obj
 0001:00016db8       ??0exception@std@@QEAA@AEBV01@@Z 0000000180017db8 f   LIBCMT:stdexcpt.obj
 0001:00016de4       ??1exception@std@@UEAA@XZ  0000000180017de4 f   LIBCMT:stdexcpt.obj
 0001:00016df4       ??4exception@std@@QEAAAEAV01@AEBV01@@Z 0000000180017df4 f   LIBCMT:stdexcpt.obj
 0001:00016e38       ??_Eexception@std@@UEAAPEAXI@Z 0000000180017e38 f i LIBCMT:stdexcpt.obj
 0001:00016e38       ??_Gexception@std@@UEAAPEAXI@Z 0000000180017e38 f i LIBCMT:stdexcpt.obj
 0001:00016e74       ?_Copy_str@exception@std@@AEAAXPEBD@Z 0000000180017e74 f   LIBCMT:stdexcpt.obj
 0001:00016ed0       ?_Tidy@exception@std@@AEAAXXZ 0000000180017ed0 f   LIBCMT:stdexcpt.obj
 0001:00016ef8       ?what@exception@std@@UEBAPEBDXZ 0000000180017ef8 f   LIBCMT:stdexcpt.obj
 0001:00016f0c       __raise_securityfailure    0000000180017f0c f   LIBCMT:gs_report.obj
 0001:00016f58       __report_gsfailure         0000000180017f58 f   LIBCMT:gs_report.obj
 0001:0001702c       __isa_available_init       000000018001802c f   LIBCMT:cpu_disp.obj
 0001:000171d0       __doserrno                 00000001800181d0 f   LIBCMT:dosmap.obj
 0001:000171f0       _dosmaperr                 00000001800181f0 f   LIBCMT:dosmap.obj
 0001:00017240       _errno                     0000000180018240 f   LIBCMT:dosmap.obj
 0001:00017260       _get_errno_from_oserr      0000000180018260 f   LIBCMT:dosmap.obj
 0001:000172b0       _heap_init                 00000001800182b0 f   LIBCMT:heapinit.obj
 0001:000172d0       _heap_term                 00000001800182d0 f   LIBCMT:heapinit.obj
 0001:000172dc       _callnewh                  00000001800182dc f   LIBCMT:handler.obj
 0001:00017310       _initp_heap_handler        0000000180018310 f   LIBCMT:handler.obj
 0001:00017318       __copy_path_to_wide_string 0000000180018318 f   LIBCMT:crt0dat.obj
 0001:00017418       __crtCorExitProcess        0000000180018418 f   LIBCMT:crt0dat.obj
 0001:0001745c       __crtExitProcess           000000018001845c f   LIBCMT:crt0dat.obj
 0001:00017474       __freeCrtMemory            0000000180018474 f   LIBCMT:crt0dat.obj
 0001:000175bc       _amsg_exit                 00000001800185bc f   LIBCMT:crt0dat.obj
 0001:000175e4       _cexit                     00000001800185e4 f   LIBCMT:crt0dat.obj
 0001:000175f4       _cinit                     00000001800185f4 f   LIBCMT:crt0dat.obj
 0001:0001768c       _exit                      000000018001868c f   LIBCMT:crt0dat.obj
 0001:00017698       _init_pointers             0000000180018698 f   LIBCMT:crt0dat.obj
 0001:00017744       _initterm_e                0000000180018744 f   LIBCMT:crt0dat.obj
 0001:00017780       _lockexit                  0000000180018780 f   LIBCMT:crt0dat.obj
 0001:0001778c       _unlockexit                000000018001878c f   LIBCMT:crt0dat.obj
 0001:00017930       _FF_MSGBANNER              0000000180018930 f   LIBCMT:crt0msg.obj
 0001:00017974       _GET_RTERRMSG              0000000180018974 f   LIBCMT:crt0msg.obj
 0001:000179a4       _NMSG_WRITE                00000001800189a4 f   LIBCMT:crt0msg.obj
 0001:00017c14       ?_inconsistency@@YAXXZ     0000000180018c14 f   LIBCMT:hooks.obj
 0001:00017c34       ?terminate@@YAXXZ          0000000180018c34 f   LIBCMT:hooks.obj
 0001:00017c54       _initp_eh_hooks            0000000180018c54 f   LIBCMT:hooks.obj
 0001:00017c74       __C_specific_handler       0000000180018c74 f   LIBCMT:chandler.obj
 0001:00017e58       _call_reportfault          0000000180018e58 f   LIBCMT:invarg.obj
 0001:00017f4c       _initp_misc_invarg         0000000180018f4c f   LIBCMT:invarg.obj
 0001:00017f54       _invalid_parameter         0000000180018f54 f   LIBCMT:invarg.obj
 0001:00017fbc       _invalid_parameter_noinfo  0000000180018fbc f   LIBCMT:invarg.obj
 0001:00017fdc       _invoke_watson             0000000180018fdc f   LIBCMT:invarg.obj
 0001:00018018       memcpy_s                   0000000180019018 f   LIBCMT:memcpy_s.obj
 0001:000180a0       wcscat_s                   00000001800190a0 f   LIBCMT:wcscat_s.obj
 0001:00018128       wcscpy_s                   0000000180019128 f   LIBCMT:wcscpy_s.obj
 0001:00018194       wcslen                     0000000180019194 f   LIBCMT:wcslen.obj
 0001:000181b0       wcsncat_s                  00000001800191b0 f   LIBCMT:wcsncat_s.obj
 0001:00018298       _set_abort_behavior        0000000180019298 f   LIBCMT:abort.obj
 0001:000182b4       abort                      00000001800192b4 f   LIBCMT:abort.obj
 0001:0001830c       _set_error_mode            000000018001930c f   LIBCMT:errmode.obj
 0001:0001834c       _itow_s                    000000018001934c f   LIBCMT:xtows.obj
 0001:00018484       __initstdio                0000000180019484 f   LIBCMT:_file.obj
 0001:0001851c       __endstdio                 000000018001951c f   LIBCMT:_file.obj
 0001:0001854c       __iob_func                 000000018001954c f   LIBCMT:_file.obj
 0001:00018554       _lock_file                 0000000180019554 f   LIBCMT:_file.obj
 0001:000185bc       _lock_file2                00000001800195bc f   LIBCMT:_file.obj
 0001:000185f0       _unlock_file               00000001800195f0 f   LIBCMT:_file.obj
 0001:00018640       _unlock_file2              0000000180019640 f   LIBCMT:_file.obj
 0001:00018660       _fflush_nolock             0000000180019660 f   LIBCMT:fflush.obj
 0001:000186ac       _flush                     00000001800196ac f   LIBCMT:fflush.obj
 0001:00018728       _flushall                  0000000180019728 f   LIBCMT:fflush.obj
 0001:00018734       fflush                     0000000180019734 f   LIBCMT:fflush.obj
 0001:00018860       setvbuf                    0000000180019860 f   LIBCMT:setvbuf.obj
 0001:00018978       fwprintf                   0000000180019978 f   LIBCMT:fwprintf.obj
 0001:00018a0c       _vswprintf_c_l             0000000180019a0c f   LIBCMT:vswprnc.obj
 0001:00018a44       _vswprintf_helper          0000000180019a44 f   LIBCMT:vswprnc.obj
 0001:00018b60       __get_sigabrt              0000000180019b60 f   LIBCMT:winsig.obj
 0001:00018b70       _initp_misc_winsig         0000000180019b70 f   LIBCMT:winsig.obj
 0001:00018b90       raise                      0000000180019b90 f   LIBCMT:winsig.obj
 0001:00018dc4       __crtMessageBoxW           0000000180019dc4 f   LIBCMT:crtmboxw.obj
 0001:00019038       __GSHandlerCheck           000000018001a038 f   LIBCMT:gshandler.obj
 0001:00019058       __GSHandlerCheckCommon     000000018001a058 f   LIBCMT:gshandler.obj
 0001:000190bc       _msize                     000000018001a0bc f   LIBCMT:msize.obj
 0001:000190f8       _calloc_crt                000000018001a0f8 f   LIBCMT:crtheap.obj
 0001:00019178       _malloc_crt                000000018001a178 f   LIBCMT:crtheap.obj
 0001:000191f4       _realloc_crt               000000018001a1f4 f   LIBCMT:crtheap.obj
 0001:00019278       _initp_misc_purevirt       000000018001a278 f   LIBCMT:inithelp.obj
 0001:00019280       _clrfp                     000000018001a280 f   LIBCMT:fpctrl.obj
 0001:000192a0       _ctrlfp                    000000018001a2a0 f   LIBCMT:fpctrl.obj
 0001:0001931c       _set_statfp                000000018001a31c f   LIBCMT:fpctrl.obj
 0001:0001933c       _statfp                    000000018001a33c f   LIBCMT:fpctrl.obj
 0001:00019474       _handle_error              000000018001a474 f   LIBCMT:libm_error.obj
 0001:0001959c       _handle_errorf             000000018001a59c f   LIBCMT:libm_error.obj
 0001:000196d0       _flsbuf                    000000018001a6d0 f   LIBCMT:_flsbuf.obj
 0001:0001985c       _output_l                  000000018001a85c f   LIBCMT:output.obj
 0001:0001a3b0       memset                     000000018001b3b0 f   LIBCMT:memset.obj
 0001:0001a5dc       _ftbuf                     000000018001b5dc f   LIBCMT:_sftbuf.obj
 0001:0001a614       _stbuf                     000000018001b614 f   LIBCMT:_sftbuf.obj
 0001:0001a6e4       _getstream                 000000018001b6e4 f   LIBCMT:stream.obj
 0001:0001a81c       _openfile                  000000018001b81c f   LIBCMT:_open.obj
 0001:0001aaf0       _local_unwind              000000018001baf0 f   LIBCMT:jmpuwind.obj
 0001:0001ab20       _NLG_Notify                000000018001bb20 f   LIBCMT:jmpuwind.obj
 0001:0001ab40       __NLG_Dispatch2            000000018001bb40 f   LIBCMT:jmpuwind.obj
 0001:0001ab50       __NLG_Return2              000000018001bb50 f   LIBCMT:jmpuwind.obj
 0001:0001ab54       _filbuf                    000000018001bb54 f   LIBCMT:_filbuf.obj
 0001:0001ac98       _fileno                    000000018001bc98 f   LIBCMT:fileno.obj
 0001:0001acc0       _read                      000000018001bcc0 f   LIBCMT:read.obj
 0001:0001addc       _read_nolock               000000018001bddc f   LIBCMT:read.obj
 0001:0001b64c       _ftell_nolock              000000018001c64c f   LIBCMT:ftell.obj
 0001:0001b960       _lseek                     000000018001c960 f   LIBCMT:lseek.obj
 0001:0001ba44       _lseek_nolock              000000018001ca44 f   LIBCMT:lseek.obj
 0001:0001bb28       _close                     000000018001cb28 f   LIBCMT:close.obj
 0001:0001bbec       _close_nolock              000000018001cbec f   LIBCMT:close.obj
 0001:0001bca8       _freebuf                   000000018001cca8 f   LIBCMT:_freebuf.obj
 0001:0001bce0       __addlocaleref             000000018001cce0 f   LIBCMT:localref.obj
 0001:0001bd6c       __freetlocinfo             000000018001cd6c f   LIBCMT:localref.obj
 0001:0001bf04       __removelocaleref          000000018001cf04 f   LIBCMT:localref.obj
 0001:0001bfa8       __updatetlocinfo           000000018001cfa8 f   LIBCMT:localref.obj
 0001:0001c020       _updatetlocinfoEx_nolock   000000018001d020 f   LIBCMT:localref.obj
 0001:0001c084       __initmbctable             000000018001d084 f   LIBCMT:mbctype.obj
 0001:0001c3a0       __updatetmbcinfo           000000018001d3a0 f   LIBCMT:mbctype.obj
 0001:0001c45c       _setmbcp                   000000018001d45c f   LIBCMT:mbctype.obj
 0001:0001c6a0       _setmbcp_nolock            000000018001d6a0 f   LIBCMT:mbctype.obj
 0001:0001c950       _tolower_l                 000000018001d950 f   LIBCMT:tolower.obj
 0001:0001caa4       tolower                    000000018001daa4 f   LIBCMT:tolower.obj
 0001:0001cac4       _freefls                   000000018001dac4 f   LIBCMT:tidtable.obj
 0001:0001cbf8       _freeptd                   000000018001dbf8 f   LIBCMT:tidtable.obj
 0001:0001cc34       _getptd                    000000018001dc34 f   LIBCMT:tidtable.obj
 0001:0001cc58       _getptd_noexit             000000018001dc58 f   LIBCMT:tidtable.obj
 0001:0001ccdc       _initptd                   000000018001dcdc f   LIBCMT:tidtable.obj
 0001:0001cda0       _mtinit                    000000018001dda0 f   LIBCMT:tidtable.obj
 0001:0001ce20       _mtterm                    000000018001de20 f   LIBCMT:tidtable.obj
 0001:0001ce44       _locterm                   000000018001de44 f   LIBCMT:wsetloca.obj
 0001:0001ce8c       _XcptFilter                000000018001de8c f   LIBCMT:winxfltr.obj
 0001:0001d058       __CppXcptFilter            000000018001e058 f   LIBCMT:winxfltr.obj
 0001:0001d06c       _ioinit                    000000018001e06c f   LIBCMT:ioinit.obj
 0001:0001d39c       _ioterm                    000000018001e39c f   LIBCMT:ioinit.obj
 0001:0001d410       _setargv                   000000018001e410 f   LIBCMT:stdargv.obj
 0001:0001d6cc       _setenvp                   000000018001e6cc f   LIBCMT:stdenvp.obj
 0001:0001d800       __security_init_cookie     000000018001e800 f   LIBCMT:gs_support.obj
 0001:0001d8ac       DllMain                    000000018001e8ac f   LIBCMT:dllmain.obj
 0001:0001d8b4       __crtGetEnvironmentStringsA 000000018001e8b4 f   LIBCMT:a_env.obj
 0001:0001d9a8       __crtCaptureCurrentContext 000000018001e9a8 f   LIBCMT:winapisupp.obj
 0001:0001da18       __crtCapturePreviousContext 000000018001ea18 f   LIBCMT:winapisupp.obj
 0001:0001da8c       __crtFlsAlloc              000000018001ea8c f   LIBCMT:winapisupp.obj
 0001:0001daa8       __crtFlsFree               000000018001eaa8 f   LIBCMT:winapisupp.obj
 0001:0001dac4       __crtFlsGetValue           000000018001eac4 f   LIBCMT:winapisupp.obj
 0001:0001dae0       __crtFlsSetValue           000000018001eae0 f   LIBCMT:winapisupp.obj
 0001:0001dafc       __crtInitializeCriticalSectionEx 000000018001eafc f   LIBCMT:winapisupp.obj
 0001:0001db28       __crtIsPackagedApp         000000018001eb28 f   LIBCMT:winapisupp.obj
 0001:0001db74       __crtLoadWinApiPointers    000000018001eb74 f   LIBCMT:winapisupp.obj
 0001:0001df70       __crtSleep                 000000018001ef70 f   LIBCMT:winapisupp.obj
 0001:0001df78       __crtTerminateProcess      000000018001ef78 f   LIBCMT:winapisupp.obj
 0001:0001df98       __crtUnhandledException    000000018001ef98 f   LIBCMT:winapisupp.obj
 0001:0001dfb8       _RTC_Initialize            000000018001efb8 f   LIBCMT:initsect.obj
 0001:0001dff0       _RTC_Terminate             000000018001eff0 f   LIBCMT:initsect.obj
 0001:0001e028       __DestructExceptionObject  000000018001f028 f   LIBCMT:frame.obj
 0001:0001e098       ??0bad_exception@std@@QEAA@AEBV01@@Z 000000018001f098 f i LIBCMT:frame.obj
 0001:0001e0bc       ??1bad_exception@std@@UEAA@XZ 000000018001f0bc f i LIBCMT:frame.obj
 0001:0001e0cc       ??_Ebad_exception@std@@UEAAPEAXI@Z 000000018001f0cc f i LIBCMT:frame.obj
 0001:0001e0cc       ??_Gbad_exception@std@@UEAAPEAXI@Z 000000018001f0cc f i LIBCMT:frame.obj
 0001:0001e9c0       __AdjustPointer            000000018001f9c0 f   LIBCMT:frame.obj
 0001:0001e9e4       __BuildCatchObject         000000018001f9e4 f   LIBCMT:frame.obj
 0001:0001ea9c       __BuildCatchObjectHelper   000000018001fa9c f   LIBCMT:frame.obj
 0001:0001ecec       __CxxCallCatchBlock        000000018001fcec f   LIBCMT:frame.obj
 0001:0001eef0       __FrameUnwindFilter        000000018001fef0 f   LIBCMT:frame.obj
 0001:0001ef44       __FrameUnwindToState       000000018001ff44 f   LIBCMT:frame.obj
 0001:0001f0d8       __InternalCxxFrameHandler  00000001800200d8 f   LIBCMT:frame.obj
 0001:0001f2fc       __TypeMatch                00000001800202fc f   LIBCMT:frame.obj
 0001:0001f42c       ?__GetCurrentState@@YAHPEA_KPEAU_xDISPATCHER_CONTEXT@@PEBU_s_FuncInfo@@@Z 000000018002042c f   LIBCMT:ehstate.obj
 0001:0001f454       ?__GetUnwindTryBlock@@YAHPEA_KPEAU_xDISPATCHER_CONTEXT@@PEBU_s_FuncInfo@@@Z 0000000180020454 f   LIBCMT:ehstate.obj
 0001:0001f480       ?__SetState@@YAXPEA_KPEAU_xDISPATCHER_CONTEXT@@PEBU_s_FuncInfo@@H@Z 0000000180020480 f   LIBCMT:ehstate.obj
 0001:0001f48c       ?__SetUnwindTryBlock@@YAXPEA_KPEAU_xDISPATCHER_CONTEXT@@PEBU_s_FuncInfo@@H@Z 000000018002048c f   LIBCMT:ehstate.obj
 0001:0001f4c8       ?__StateFromControlPc@@YAHPEBU_s_FuncInfo@@PEAU_xDISPATCHER_CONTEXT@@@Z 00000001800204c8 f   LIBCMT:ehstate.obj
 0001:0001f4d0       ?__StateFromIp@@YAHPEBU_s_FuncInfo@@PEAU_xDISPATCHER_CONTEXT@@_J@Z 00000001800204d0 f   LIBCMT:ehstate.obj
 0001:0001f570       strcmp                     0000000180020570 f   LIBCMT:strcmp.obj
 0001:0001f5d8       ?_Type_info_dtor@type_info@@CAXPEAV1@@Z 00000001800205d8 f   LIBCMT:typname.obj
 0001:0001f644       _cfltcvt                   0000000180020644 f   LIBCMT:cvt.obj
 0001:0001f668       _cfltcvt_l                 0000000180020668 f   LIBCMT:cvt.obj
 0001:0001f6e8       _cftoa_l                   00000001800206e8 f   LIBCMT:cvt.obj
 0001:0001fc94       _cftoe_l                   0000000180020c94 f   LIBCMT:cvt.obj
 0001:0001fef0       _cftof_l                   0000000180020ef0 f   LIBCMT:cvt.obj
 0001:0001ffc4       _cftog_l                   0000000180020fc4 f   LIBCMT:cvt.obj
 0001:000200f8       _cropzeros                 00000001800210f8 f   LIBCMT:cvt.obj
 0001:00020100       _cropzeros_l               0000000180021100 f   LIBCMT:cvt.obj
 0001:00020198       _fassign                   0000000180021198 f   LIBCMT:cvt.obj
 0001:000201a0       _fassign_l                 00000001800211a0 f   LIBCMT:cvt.obj
 0001:000201e0       _forcdecpt                 00000001800211e0 f   LIBCMT:cvt.obj
 0001:000201e8       _forcdecpt_l               00000001800211e8 f   LIBCMT:cvt.obj
 0001:00020268       _positive                  0000000180021268 f   LIBCMT:cvt.obj
 0001:0002027c       _initp_misc_cfltcvt_tab    000000018002127c f   LIBCMT:cmiscdat.obj
 0001:000202b8       strcpy_s                   00000001800212b8 f   LIBCMT:strcpy_s.obj
 0001:0002031c       __crt_debugger_hook        000000018002131c f   LIBCMT:dbghook.obj
 0001:00020324       _lock                      0000000180021324 f   LIBCMT:mlock.obj
 0001:00020368       _mtdeletelocks             0000000180021368 f   LIBCMT:mlock.obj
 0001:000203f0       _mtinitlocknum             00000001800213f0 f   LIBCMT:mlock.obj
 0001:000204b0       _mtinitlocks               00000001800214b0 f   LIBCMT:mlock.obj
 0001:00020514       _unlock                    0000000180021514 f   LIBCMT:mlock.obj
 0001:00020530       _FindPESection             0000000180021530 f   LIBCMT:pesect.obj
 0001:00020580       _IsNonwritableInCurrentImage 0000000180021580 f   LIBCMT:pesect.obj
 0001:000205d0       _ValidateImageBase         00000001800215d0 f   LIBCMT:pesect.obj
 0001:00020600       _initp_misc_rand_s         0000000180021600 f   LIBCMT:rand_s.obj
 0001:00020608       wcsncpy_s                  0000000180021608 f   LIBCMT:wcsncpy_s.obj
 0001:000206d4       _fcloseall                 00000001800216d4 f   LIBCMT:closeall.obj
 0001:0002077c       _commit                    000000018002177c f   LIBCMT:commit.obj
 0001:00020854       _write                     0000000180021854 f   LIBCMT:write.obj
 0001:00020938       _write_nolock              0000000180021938 f   LIBCMT:write.obj
 0001:0002112c       _woutput_l                 000000018002212c f   LIBCMT:woutput.obj
 0001:00021cec       _calloc_impl               0000000180022cec f   LIBCMT:calloc_impl.obj
 0001:00021d88       GetTableIndexFromLocaleName 0000000180022d88 f   LIBCMT:winapinls.obj
 0001:00021e14       __crtDownlevelLocaleNameToLCID 0000000180022e14 f   LIBCMT:winapinls.obj
 0001:00021e48       __crtLCMapStringEx         0000000180022e48 f   LIBCMT:winapinls.obj
 0001:00021ed8       __wcsnicmp_ascii           0000000180022ed8 f   LIBCMT:winapinls.obj
 0001:00021f40       _get_fpsr                  0000000180022f40 f   LIBCMT:fpsr.obj
 0001:00021f50       _set_fpsr                  0000000180022f50 f   LIBCMT:fpsr.obj
 0001:00021f5a       _fclrf                     0000000180022f5a f   LIBCMT:fpsr.obj
 0001:00021f6e       _frnd                      0000000180022f6e f   LIBCMT:fpsr.obj
 0001:00021f90       _raise_exc                 0000000180022f90 f   LIBCMT:fpexcept.obj
 0001:00021fb8       _raise_exc_ex              0000000180022fb8 f   LIBCMT:fpexcept.obj
 0001:000222bc       _raise_excf                00000001800232bc f   LIBCMT:fpexcept.obj
 0001:000222e8       _set_errno_from_matherr    00000001800232e8 f   LIBCMT:fpexcept.obj
 0001:00022318       _matherr                   0000000180023318 f   LIBCMT:matherr.obj
 0001:0002231c       _isatty                    000000018002331c f   LIBCMT:isatty.obj
 0001:0002237c       _lseeki64                  000000018002337c f   LIBCMT:lseeki64.obj
 0001:00022464       _lseeki64_nolock           0000000180023464 f   LIBCMT:lseeki64.obj
 0001:000224f8       _getbuf                    00000001800234f8 f   LIBCMT:_getbuf.obj
 0001:0002254c       _isleadbyte_l              000000018002354c f i LIBCMT:_wctype.obj
 0001:00022590       isleadbyte                 0000000180023590 f i LIBCMT:_wctype.obj
 0001:000225d8       _wctomb_s_l                00000001800235d8 f   LIBCMT:wctomb.obj
 0001:00022764       wctomb_s                   0000000180023764 f   LIBCMT:wctomb.obj
 0001:00022778       _sopen_helper              0000000180023778 f   LIBCMT:open.obj
 0001:00022858       _sopen_nolock              0000000180023858 f   LIBCMT:open.obj
 0001:000228e0       _sopen_s                   00000001800238e0 f   LIBCMT:open.obj
 0001:00022914       _mbsnbcmp                  0000000180023914 f   LIBCMT:mbsnbcmp.obj
 0001:0002291c       _mbsnbcmp_l                000000018002391c f   LIBCMT:mbsnbcmp.obj
 0001:00022a48       _mbsnbicmp                 0000000180023a48 f   LIBCMT:mbsnbicm.obj
 0001:00022a50       _mbsnbicmp_l               0000000180023a50 f   LIBCMT:mbsnbicm.obj
 0001:00022c00       __lock_fhandle             0000000180023c00 f   LIBCMT:osfinfo.obj
 0001:00022c98       _alloc_osfhnd              0000000180023c98 f   LIBCMT:osfinfo.obj
 0001:00022e90       _free_osfhnd               0000000180023e90 f   LIBCMT:osfinfo.obj
 0001:00022f3c       _get_osfhandle             0000000180023f3c f   LIBCMT:osfinfo.obj
 0001:00022fb0       _set_osfhnd                0000000180023fb0 f   LIBCMT:osfinfo.obj
 0001:00023060       _unlock_fhandle            0000000180024060 f   LIBCMT:osfinfo.obj
 0001:000230a0       __chkstk                   00000001800240a0 f   LIBCMT:chkstk.obj
 0001:000230a0       _alloca_probe              00000001800240a0 f   LIBCMT:chkstk.obj
 0001:000230f0       __free_lconv_mon           00000001800240f0 f   LIBCMT:initmon.obj
 0001:000231fc       __free_lconv_num           00000001800241fc f   LIBCMT:initnum.obj
 0001:00023268       __free_lc_time             0000000180024268 f   LIBCMT:inittime.obj
 0001:00023950       __crtLCMapStringA          0000000180024950 f   LIBCMT:a_map.obj
 0001:00023b60       __crtGetStringTypeA        0000000180024b60 f   LIBCMT:a_str.obj
 0001:00023bdc       _isctype_l                 0000000180024bdc f   LIBCMT:isctype.obj
 0001:00023cd0       memcmp                     0000000180024cd0 f   LIBCMT:memcmp.obj
 0001:00023e14       _ismbblead                 0000000180024e14 f   LIBCMT:ismbbyte.obj
 0001:00023e28       ?_ValidateExecute@@YAHP6A_JXZ@Z 0000000180024e28 f   LIBCMT:validate.obj
 0001:00023e28       ?_ValidateRead@@YAHPEBXI@Z 0000000180024e28 f   LIBCMT:validate.obj
 0001:00023e28       ?_ValidateWrite@@YAHPEAXI@Z 0000000180024e28 f   LIBCMT:validate.obj
 0001:00023e50       _CallSettingFrame          0000000180024e50 f   LIBCMT:handlers.obj
 0001:00023e90       _GetNextInstrOffset        0000000180024e90 f   LIBCMT:handlers.obj
 0001:00023e98       isdigit                    0000000180024e98 f i LIBCMT:_ctype.obj
 0001:00023f14       strrchr                    0000000180024f14 f   LIBCMT:strrchr.obj
 0001:00024058       _fptostr                   0000000180025058 f   LIBCMT:_fptostr.obj
 0001:00024124       __crt_atoflt_l             0000000180025124 f   LIBCMT:atodbl.obj
 0001:000241f4       _atodbl_l                  00000001800251f4 f   LIBCMT:atodbl.obj
 0001:000242bc       _atoflt_l                  00000001800252bc f   LIBCMT:atodbl.obj
 0001:000242c4       __dtold                    00000001800252c4 f   LIBCMT:cfout.obj
 0001:00024394       _fltout2                   0000000180025394 f   LIBCMT:cfout.obj
 0001:0002444c       _fptrap                    000000018002544c f   LIBCMT:crt0fp.obj
 0001:00024458       _mbtowc_l                  0000000180025458 f   LIBCMT:mbtowc.obj
 0001:000245ac       mbtowc                     00000001800255ac f   LIBCMT:mbtowc.obj
 0001:000245b4       _putwch_nolock             00000001800255b4 f   LIBCMT:putwch.obj
 0001:00024610       _fputwc_nolock             0000000180025610 f   LIBCMT:fputwc.obj
 0001:000248f4       _wsopen_nolock             00000001800258f4 f   LIBCMT:wopen.obj
 0001:000250c0       strncmp                    00000001800260c0 f   LIBCMT:strncmp.obj
 0001:00025140       __ascii_strnicmp           0000000180026140 f   LIBCMT:strnicmp.obj
 0001:00025188       _strnicmp                  0000000180026188 f   LIBCMT:strnicmp.obj
 0001:000251d8       _strnicmp_l                00000001800261d8 f   LIBCMT:strnicmp.obj
 0001:000252b4       _ld12tod                   00000001800262b4 f   LIBCMT:intrncvt.obj
 0001:0002586c       _ld12tof                   000000018002686c f   LIBCMT:intrncvt.obj
 0001:00025e24       __strgtold12_l             0000000180026e24 f   LIBCMT:strgtold.obj
 0001:00026688       $I10_OUTPUT                0000000180027688 f   LIBCMT:x10fout.obj
 0001:00027160       __termconout               0000000180028160 f   LIBCMT:initcon.obj
 0001:00027180       __initconout               0000000180028180 f   LIBCMT:initcon.obj
 0001:000271bc       _flswbuf                   00000001800281bc f   LIBCMT:_flswbuf.obj
 0001:0002734c       _chsize_nolock             000000018002834c f   LIBCMT:chsize.obj
 0001:000274e4       _get_fmode                 00000001800284e4 f   LIBCMT:setmode.obj
 0001:00027514       _setmode_nolock            0000000180028514 f   LIBCMT:setmode.obj
 0001:000275f0       __mtold12                  00000001800285f0 f   LIBCMT:mantold.obj
 0001:00027820       RtlUnwindEx                0000000180028820 f   kernel32:KERNEL32.dll
 0001:00027826       IsProcessorFeaturePresent  0000000180028826 f   kernel32:KERNEL32.dll
 0001:0002782c       __delayLoadHelper2         000000018002882c f   DelayImp:delayhlp.obj
 0001:00027ac4       _strdup                    0000000180028ac4 f   LIBCMT:strdup.obj
 0001:00027ac4       strdup                     0000000180028ac4 f   LIBCMT:strdup.obj
 0001:00027b34       __GSHandlerCheck_EH        0000000180028b34 f   LIBCMT:gshandlereh.obj
 0001:00027be0       setjmp                     0000000180028be0 f   LIBCMT:setjmp.obj
 0001:00027be0       _setjmp                    0000000180028be0 f   LIBCMT:setjmp.obj
 0001:00027c80       acos                       0000000180028c80 f   LIBCMT:acos.obj
 0001:00027f68       acosf                      0000000180028f68 f   LIBCMT:acosf.obj
 0001:000281f4       floor                      00000001800291f4 f   LIBCMT:floor.obj
 0001:000282f4       fmodf                      00000001800292f4 f   LIBCMT:fmodf.obj
 0001:000285bc       sqrtf                      00000001800295bc f   LIBCMT:sqrtf.obj
 0001:000286a0       tan                        00000001800296a0 f   LIBCMT:tan.obj
 0001:00028dd8       __fma3_lib_init            0000000180029dd8 f   LIBCMT:fma3_available.obj
 0001:00028e18       _sincos_special            0000000180029e18 f   LIBCMT:sincos_special.obj
 0001:00028eec       _tan_special               0000000180029eec f   LIBCMT:sincos_special.obj
 0001:00028f00       __remainder_piby2_fma3     0000000180029f00 f   LIBCMT:remainder_piby2_forFMA3.obj
 0001:000290f0       __remainder_piby2_fma3_bdl 000000018002a0f0 f   LIBCMT:remainder_piby2_forFMA3.obj
 0001:00029170       __remainder_piby2_forAsm   000000018002a170 f   LIBCMT:remainder_piby2_forAsm.obj
 0001:00029380       __remainder_piby2_cw_forAsm 000000018002a380 f   LIBCMT:remainder_piby2_forAsm.obj
 0002:00000000       __imp_GetModuleHandleA     000000018002c000     kernel32:KERNEL32.dll
 0002:00000008       __imp_SetEndOfFile         000000018002c008     kernel32:KERNEL32.dll
 0002:00000010       __imp_CreateFileW          000000018002c010     kernel32:KERNEL32.dll
 0002:00000018       __imp_GetStringTypeW       000000018002c018     kernel32:KERNEL32.dll
 0002:00000020       __imp_SetStdHandle         000000018002c020     kernel32:KERNEL32.dll
 0002:00000028       __imp_LCMapStringW         000000018002c028     kernel32:KERNEL32.dll
 0002:00000030       __imp_GetConsoleCP         000000018002c030     kernel32:KERNEL32.dll
 0002:00000038       __imp_FlushFileBuffers     000000018002c038     kernel32:KERNEL32.dll
 0002:00000040       __imp_FreeLibrary          000000018002c040     kernel32:KERNEL32.dll
 0002:00000048       __imp_GetModuleHandleW     000000018002c048     kernel32:KERNEL32.dll
 0002:00000050       __imp_TlsFree              000000018002c050     kernel32:KERNEL32.dll
 0002:00000058       __imp_TlsSetValue          000000018002c058     kernel32:KERNEL32.dll
 0002:00000060       __imp_TlsGetValue          000000018002c060     kernel32:KERNEL32.dll
 0002:00000068       __imp_TlsAlloc             000000018002c068     kernel32:KERNEL32.dll
 0002:00000070       __imp_TerminateProcess     000000018002c070     kernel32:KERNEL32.dll
 0002:00000078       __imp_GetCurrentProcess    000000018002c078     kernel32:KERNEL32.dll
 0002:00000080       __imp_Sleep                000000018002c080     kernel32:KERNEL32.dll
 0002:00000088       __imp_InitializeCriticalSectionAndSpinCount 000000018002c088     kernel32:KERNEL32.dll
 0002:00000090       __imp_SetUnhandledExceptionFilter 000000018002c090     kernel32:KERNEL32.dll
 0002:00000098       __imp_UnhandledExceptionFilter 000000018002c098     kernel32:KERNEL32.dll
 0002:000000a0       __imp_RtlVirtualUnwind     000000018002c0a0     kernel32:KERNEL32.dll
 0002:000000a8       __imp_RtlCaptureContext    000000018002c0a8     kernel32:KERNEL32.dll
 0002:000000b0       __imp_FreeEnvironmentStringsW 000000018002c0b0     kernel32:KERNEL32.dll
 0002:000000b8       __imp_GetEnvironmentStringsW 000000018002c0b8     kernel32:KERNEL32.dll
 0002:000000c0       __imp_GetSystemTimeAsFileTime 000000018002c0c0     kernel32:KERNEL32.dll
 0002:000000c8       __imp_GetCurrentProcessId  000000018002c0c8     kernel32:KERNEL32.dll
 0002:000000d0       __imp_QueryPerformanceCounter 000000018002c0d0     kernel32:KERNEL32.dll
 0002:000000d8       __imp_GetModuleFileNameA   000000018002c0d8     kernel32:KERNEL32.dll
 0002:000000e0       __imp_GetStartupInfoW      000000018002c0e0     kernel32:KERNEL32.dll
 0002:000000e8       __imp_DeleteCriticalSection 000000018002c0e8     kernel32:KERNEL32.dll
 0002:000000f0       __imp_SetLastError         000000018002c0f0     kernel32:KERNEL32.dll
 0002:000000f8       __imp_GetCPInfo            000000018002c0f8     kernel32:KERNEL32.dll
 0002:00000100       __imp_GetOEMCP             000000018002c100     kernel32:KERNEL32.dll
 0002:00000108       __imp_GetACP               000000018002c108     kernel32:KERNEL32.dll
 0002:00000110       __imp_IsValidCodePage      000000018002c110     kernel32:KERNEL32.dll
 0002:00000118       __imp_CloseHandle          000000018002c118     kernel32:KERNEL32.dll
 0002:00000120       __imp_SetFilePointerEx     000000018002c120     kernel32:KERNEL32.dll
 0002:00000128       __imp_ReadConsoleW         000000018002c128     kernel32:KERNEL32.dll
 0002:00000130       __imp_GetConsoleMode       000000018002c130     kernel32:KERNEL32.dll
 0002:00000138       __imp_ReadFile             000000018002c138     kernel32:KERNEL32.dll
 0002:00000140       __imp_HeapSize             000000018002c140     kernel32:KERNEL32.dll
 0002:00000148       __imp_LoadLibraryExW       000000018002c148     kernel32:KERNEL32.dll
 0002:00000150       __imp_OutputDebugStringW   000000018002c150     kernel32:KERNEL32.dll
 0002:00000158       __imp_LeaveCriticalSection 000000018002c158     kernel32:KERNEL32.dll
 0002:00000160       __imp_EnterCriticalSection 000000018002c160     kernel32:KERNEL32.dll
 0002:00000168       __imp_WriteFile            000000018002c168     kernel32:KERNEL32.dll
 0002:00000170       __imp_WideCharToMultiByte  000000018002c170     kernel32:KERNEL32.dll
 0002:00000178       __imp_MultiByteToWideChar  000000018002c178     kernel32:KERNEL32.dll
 0002:00000180       __imp_AreFileApisANSI      000000018002c180     kernel32:KERNEL32.dll
 0002:00000188       __imp_GetProcAddress       000000018002c188     kernel32:KERNEL32.dll
 0002:00000190       __imp_ExitProcess          000000018002c190     kernel32:KERNEL32.dll
 0002:00000198       __imp_GetProcessHeap       000000018002c198     kernel32:KERNEL32.dll
 0002:000001a0       __imp_IsProcessorFeaturePresent 000000018002c1a0     kernel32:KERNEL32.dll
 0002:000001a8       __imp_IsDebuggerPresent    000000018002c1a8     kernel32:KERNEL32.dll
 0002:000001b0       __imp_RtlLookupFunctionEntry 000000018002c1b0     kernel32:KERNEL32.dll
 0002:000001b8       __imp_RaiseException       000000018002c1b8     kernel32:KERNEL32.dll
 0002:000001c0       __imp_RtlPcToFileHeader    000000018002c1c0     kernel32:KERNEL32.dll
 0002:000001c8       __imp_GetCurrentThreadId   000000018002c1c8     kernel32:KERNEL32.dll
 0002:000001d0       __imp_GetCommandLineA      000000018002c1d0     kernel32:KERNEL32.dll
 0002:000001d8       __imp_HeapReAlloc          000000018002c1d8     kernel32:KERNEL32.dll
 0002:000001e0       __imp_RtlUnwindEx          000000018002c1e0     kernel32:KERNEL32.dll
 0002:000001e8       __imp_DecodePointer        000000018002c1e8     kernel32:KERNEL32.dll
 0002:000001f0       __imp_EncodePointer        000000018002c1f0     kernel32:KERNEL32.dll
 0002:000001f8       __imp_WriteConsoleW        000000018002c1f8     kernel32:KERNEL32.dll
 0002:00000200       __imp_GetModuleHandleExW   000000018002c200     kernel32:KERNEL32.dll
 0002:00000208       __imp_GetModuleFileNameW   000000018002c208     kernel32:KERNEL32.dll
 0002:00000210       __imp_GetFileType          000000018002c210     kernel32:KERNEL32.dll
 0002:00000218       __imp_GetStdHandle         000000018002c218     kernel32:KERNEL32.dll
 0002:00000220       __imp_HeapAlloc            000000018002c220     kernel32:KERNEL32.dll
 0002:00000228       __imp_HeapFree             000000018002c228     kernel32:KERNEL32.dll
 0002:00000230       __imp_GetLastError         000000018002c230     kernel32:KERNEL32.dll
 0002:00000238       __imp_LoadLibraryExA       000000018002c238     kernel32:KERNEL32.dll
 0002:00000240       \177KERNEL32_NULL_THUNK_DATA 000000018002c240     kernel32:KERNEL32.dll
 0002:00000248       __imp_cairo_copy_path_flat 000000018002c248     cairo:libcairo-2.dll
 0002:00000250       __imp_cairo_path_destroy   000000018002c250     cairo:libcairo-2.dll
 0002:00000258       __imp_cairo_stroke_preserve 000000018002c258     cairo:libcairo-2.dll
 0002:00000260       __imp_cairo_get_operator   000000018002c260     cairo:libcairo-2.dll
 0002:00000268       __imp_cairo_new_path       000000018002c268     cairo:libcairo-2.dll
 0002:00000270       __imp_cairo_image_surface_create_from_png_stream 000000018002c270     cairo:libcairo-2.dll
 0002:00000278       __imp_cairo_image_surface_create_from_png 000000018002c278     cairo:libcairo-2.dll
 0002:00000280       __imp_cairo_version_string 000000018002c280     cairo:libcairo-2.dll
 0002:00000288       __imp_cairo_pdf_surface_set_size 000000018002c288     cairo:libcairo-2.dll
 0002:00000290       __imp_cairo_pdf_surface_create_for_stream 000000018002c290     cairo:libcairo-2.dll
 0002:00000298       __imp_cairo_image_surface_create 000000018002c298     cairo:libcairo-2.dll
 0002:000002a0       __imp_cairo_surface_finish 000000018002c2a0     cairo:libcairo-2.dll
 0002:000002a8       __imp_cairo_translate      000000018002c2a8     cairo:libcairo-2.dll
 0002:000002b0       __imp_cairo_status_to_string 000000018002c2b0     cairo:libcairo-2.dll
 0002:000002b8       __imp_cairo_image_surface_get_stride 000000018002c2b8     cairo:libcairo-2.dll
 0002:000002c0       __imp_cairo_svg_surface_create_for_stream 000000018002c2c0     cairo:libcairo-2.dll
 0002:000002c8       __imp_cairo_surface_flush  000000018002c2c8     cairo:libcairo-2.dll
 0002:000002d0       __imp_cairo_image_surface_get_format 000000018002c2d0     cairo:libcairo-2.dll
 0002:000002d8       __imp_cairo_image_surface_get_height 000000018002c2d8     cairo:libcairo-2.dll
 0002:000002e0       __imp_cairo_create         000000018002c2e0     cairo:libcairo-2.dll
 0002:000002e8       __imp_cairo_destroy        000000018002c2e8     cairo:libcairo-2.dll
 0002:000002f0       __imp_cairo_surface_status 000000018002c2f0     cairo:libcairo-2.dll
 0002:000002f8       __imp_cairo_surface_destroy 000000018002c2f8     cairo:libcairo-2.dll
 0002:00000300       __imp_cairo_image_surface_get_data 000000018002c300     cairo:libcairo-2.dll
 0002:00000308       __imp_cairo_image_surface_get_width 000000018002c308     cairo:libcairo-2.dll
 0002:00000310       __imp_cairo_pattern_create_radial 000000018002c310     cairo:libcairo-2.dll
 0002:00000318       __imp_cairo_pattern_add_color_stop_rgba 000000018002c318     cairo:libcairo-2.dll
 0002:00000320       __imp_cairo_get_line_cap   000000018002c320     cairo:libcairo-2.dll
 0002:00000328       __imp_cairo_select_font_face 000000018002c328     cairo:libcairo-2.dll
 0002:00000330       __imp_cairo_set_source_surface 000000018002c330     cairo:libcairo-2.dll
 0002:00000338       __imp_cairo_font_extents   000000018002c338     cairo:libcairo-2.dll
 0002:00000340       __imp_cairo_stroke         000000018002c340     cairo:libcairo-2.dll
 0002:00000348       __imp_cairo_append_path    000000018002c348     cairo:libcairo-2.dll
 0002:00000350       __imp_cairo_surface_mark_dirty_rectangle 000000018002c350     cairo:libcairo-2.dll
 0002:00000358       __imp_cairo_rectangle      000000018002c358     cairo:libcairo-2.dll
 0002:00000360       __imp_cairo_clip           000000018002c360     cairo:libcairo-2.dll
 0002:00000368       __imp_cairo_save           000000018002c368     cairo:libcairo-2.dll
 0002:00000370       __imp_cairo_show_page      000000018002c370     cairo:libcairo-2.dll
 0002:00000378       __imp_cairo_transform      000000018002c378     cairo:libcairo-2.dll
 0002:00000380       __imp_cairo_paint          000000018002c380     cairo:libcairo-2.dll
 0002:00000388       __imp_cairo_user_to_device_distance 000000018002c388     cairo:libcairo-2.dll
 0002:00000390       __imp_cairo_pattern_set_filter 000000018002c390     cairo:libcairo-2.dll
 0002:00000398       __imp_cairo_get_current_point 000000018002c398     cairo:libcairo-2.dll
 0002:000003a0       __imp_cairo_scale          000000018002c3a0     cairo:libcairo-2.dll
 0002:000003a8       __imp_cairo_fill_preserve  000000018002c3a8     cairo:libcairo-2.dll
 0002:000003b0       __imp_cairo_set_source     000000018002c3b0     cairo:libcairo-2.dll
 0002:000003b8       __imp_cairo_rotate         000000018002c3b8     cairo:libcairo-2.dll
 0002:000003c0       __imp_cairo_text_extents   000000018002c3c0     cairo:libcairo-2.dll
 0002:000003c8       __imp_cairo_matrix_init    000000018002c3c8     cairo:libcairo-2.dll
 0002:000003d0       __imp_cairo_get_dash_count 000000018002c3d0     cairo:libcairo-2.dll
 0002:000003d8       __imp_cairo_get_miter_limit 000000018002c3d8     cairo:libcairo-2.dll
 0002:000003e0       __imp_cairo_stroke_extents 000000018002c3e0     cairo:libcairo-2.dll
 0002:000003e8       __imp_cairo_set_line_width 000000018002c3e8     cairo:libcairo-2.dll
 0002:000003f0       __imp_cairo_fill_extents   000000018002c3f0     cairo:libcairo-2.dll
 0002:000003f8       __imp_cairo_get_source     000000018002c3f8     cairo:libcairo-2.dll
 0002:00000400       __imp_cairo_set_dash       000000018002c400     cairo:libcairo-2.dll
 0002:00000408       __imp_cairo_push_group     000000018002c408     cairo:libcairo-2.dll
 0002:00000410       __imp_cairo_arc_negative   000000018002c410     cairo:libcairo-2.dll
 0002:00000418       __imp_cairo_paint_with_alpha 000000018002c418     cairo:libcairo-2.dll
 0002:00000420       __imp_cairo_surface_mark_dirty 000000018002c420     cairo:libcairo-2.dll
 0002:00000428       __imp_cairo_curve_to       000000018002c428     cairo:libcairo-2.dll
 0002:00000430       __imp_cairo_get_antialias  000000018002c430     cairo:libcairo-2.dll
 0002:00000438       __imp_cairo_get_line_join  000000018002c438     cairo:libcairo-2.dll
 0002:00000440       __imp_cairo_pattern_set_extend 000000018002c440     cairo:libcairo-2.dll
 0002:00000448       __imp_cairo_mask_surface   000000018002c448     cairo:libcairo-2.dll
 0002:00000450       __imp_cairo_move_to        000000018002c450     cairo:libcairo-2.dll
 0002:00000458       __imp_cairo_set_line_join  000000018002c458     cairo:libcairo-2.dll
 0002:00000460       __imp_cairo_pop_group_to_source 000000018002c460     cairo:libcairo-2.dll
 0002:00000468       __imp_cairo_restore        000000018002c468     cairo:libcairo-2.dll
 0002:00000470       __imp_cairo_get_line_width 000000018002c470     cairo:libcairo-2.dll
 0002:00000478       __imp_cairo_set_miter_limit 000000018002c478     cairo:libcairo-2.dll
 0002:00000480       __imp_cairo_fill           000000018002c480     cairo:libcairo-2.dll
 0002:00000488       __imp_cairo_pattern_get_filter 000000018002c488     cairo:libcairo-2.dll
 0002:00000490       __imp_cairo_clip_preserve  000000018002c490     cairo:libcairo-2.dll
 0002:00000498       __imp_cairo_in_stroke      000000018002c498     cairo:libcairo-2.dll
 0002:000004a0       __imp_cairo_set_operator   000000018002c4a0     cairo:libcairo-2.dll
 0002:000004a8       __imp_cairo_close_path     000000018002c4a8     cairo:libcairo-2.dll
 0002:000004b0       __imp_cairo_set_source_rgba 000000018002c4b0     cairo:libcairo-2.dll
 0002:000004b8       __imp_cairo_arc            000000018002c4b8     cairo:libcairo-2.dll
 0002:000004c0       __imp_cairo_line_to        000000018002c4c0     cairo:libcairo-2.dll
 0002:000004c8       __imp_cairo_get_matrix     000000018002c4c8     cairo:libcairo-2.dll
 0002:000004d0       __imp_cairo_show_text      000000018002c4d0     cairo:libcairo-2.dll
 0002:000004d8       __imp_cairo_in_fill        000000018002c4d8     cairo:libcairo-2.dll
 0002:000004e0       __imp_cairo_set_line_cap   000000018002c4e0     cairo:libcairo-2.dll
 0002:000004e8       __imp_cairo_text_path      000000018002c4e8     cairo:libcairo-2.dll
 0002:000004f0       __imp_cairo_get_dash       000000018002c4f0     cairo:libcairo-2.dll
 0002:000004f8       __imp_cairo_set_font_size  000000018002c4f8     cairo:libcairo-2.dll
 0002:00000500       __imp_cairo_set_antialias  000000018002c500     cairo:libcairo-2.dll
 0002:00000508       __imp_cairo_identity_matrix 000000018002c508     cairo:libcairo-2.dll
 0002:00000510       __imp_cairo_pattern_create_for_surface 000000018002c510     cairo:libcairo-2.dll
 0002:00000518       __imp_cairo_pattern_create_linear 000000018002c518     cairo:libcairo-2.dll
 0002:00000520       __imp_cairo_pattern_destroy 000000018002c520     cairo:libcairo-2.dll
 0002:00000528       \177libcairo-2_NULL_THUNK_DATA 000000018002c528     cairo:libcairo-2.dll
 0002:00000530       __imp_png_set_compression_level 000000018002c530     libpng:libpng14-14.dll
 0002:00000538       __imp_png_set_write_user_transform_fn 000000018002c538     libpng:libpng14-14.dll
 0002:00000540       __imp_png_set_IHDR         000000018002c540     libpng:libpng14-14.dll
 0002:00000548       __imp_png_error            000000018002c548     libpng:libpng14-14.dll
 0002:00000550       __imp_png_set_filter       000000018002c550     libpng:libpng14-14.dll
 0002:00000558       __imp_png_set_packswap     000000018002c558     libpng:libpng14-14.dll
 0002:00000560       __imp_png_set_filler       000000018002c560     libpng:libpng14-14.dll
 0002:00000568       __imp_png_create_write_struct_2 000000018002c568     libpng:libpng14-14.dll
 0002:00000570       __imp_png_set_longjmp_fn   000000018002c570     libpng:libpng14-14.dll
 0002:00000578       __imp_png_get_error_ptr    000000018002c578     libpng:libpng14-14.dll
 0002:00000580       __imp_png_create_info_struct 000000018002c580     libpng:libpng14-14.dll
 0002:00000588       __imp_png_get_io_ptr       000000018002c588     libpng:libpng14-14.dll
 0002:00000590       __imp_png_write_end        000000018002c590     libpng:libpng14-14.dll
 0002:00000598       __imp_png_set_bKGD         000000018002c598     libpng:libpng14-14.dll
 0002:000005a0       __imp_png_destroy_write_struct 000000018002c5a0     libpng:libpng14-14.dll
 0002:000005a8       __imp_png_write_image      000000018002c5a8     libpng:libpng14-14.dll
 0002:000005b0       __imp_png_write_info       000000018002c5b0     libpng:libpng14-14.dll
 0002:000005b8       __imp_png_set_write_fn     000000018002c5b8     libpng:libpng14-14.dll
 0002:000005c0       \177libpng14-14_NULL_THUNK_DATA 000000018002c5c0     libpng:libpng14-14.dll
 0002:000005c8       __xc_a                     000000018002c5c8     LIBCMT:crt0init.obj
 0002:00000670       _register_canvas_          000000018002c670     init.obj
 0002:00000678       __xc_z                     000000018002c678     LIBCMT:crt0init.obj
 0002:00000680       __xi_a                     000000018002c680     LIBCMT:crt0init.obj
 0002:000006b0       __xi_z                     000000018002c6b0     LIBCMT:crt0init.obj
 0002:000006b8       __xp_a                     000000018002c6b8     LIBCMT:crt0init.obj
 0002:000006d8       __xp_z                     000000018002c6d8     LIBCMT:crt0init.obj
 0002:000006e0       __xt_a                     000000018002c6e0     LIBCMT:crt0init.obj
 0002:000006e8       __xt_z                     000000018002c6e8     LIBCMT:crt0init.obj
 0002:00000730       __sz_node_exe              000000018002c730     node:node.exe
 0002:000010e0       ??_C@_0BC@CIJDGCDI@permission?5denied?$AA@ 000000018002d0e0     libcpmt:syserror.obj
 0002:000010f8       ??_C@_0M@MIDIAGJP@file?5exists?$AA@ 000000018002d0f8     libcpmt:syserror.obj
 0002:00001108       ??_C@_0P@FDINDDOK@no?5such?5device?$AA@ 000000018002d108     libcpmt:syserror.obj
 0002:00001118       ??_C@_0BC@EJHOMAAK@filename?5too?5long?$AA@ 000000018002d118     libcpmt:syserror.obj
 0002:00001130       ??_C@_0BI@NGCEHDD@device?5or?5resource?5busy?$AA@ 000000018002d130     libcpmt:syserror.obj
 0002:00001148       ??_C@_08GLNPIFBN@io?5error?$AA@ 000000018002d148     libcpmt:syserror.obj
 0002:00001158       ??_C@_0BE@JIDOCPHM@directory?5not?5empty?$AA@ 000000018002d158     libcpmt:syserror.obj
 0002:00001170       ??_C@_0BB@FCMFBGOM@invalid?5argument?$AA@ 000000018002d170     libcpmt:syserror.obj
 0002:00001188       ??_C@_0BD@IJDJKDEA@no?5space?5on?5device?$AA@ 000000018002d188     libcpmt:syserror.obj
 0002:000011a0       ??_C@_0BK@NDOCBPGE@no?5such?5file?5or?5directory?$AA@ 000000018002d1a0     libcpmt:syserror.obj
 0002:000011c0       ??_C@_0BH@KEFGLDAF@function?5not?5supported?$AA@ 000000018002d1c0     libcpmt:syserror.obj
 0002:000011d8       ??_C@_0BC@NJECKMKE@no?5lock?5available?$AA@ 000000018002d1d8     libcpmt:syserror.obj
 0002:000011f0       ??_C@_0BC@ENOOLCNF@not?5enough?5memory?$AA@ 000000018002d1f0     libcpmt:syserror.obj
 0002:00001208       ??_C@_0BP@LKNGHENJ@resource?5unavailable?5try?5again?$AA@ 000000018002d208     libcpmt:syserror.obj
 0002:00001228       ??_C@_0BC@PPHBOELF@cross?5device?5link?$AA@ 000000018002d228     libcpmt:syserror.obj
 0002:00001240       ??_C@_0BD@MOLBPMEA@operation?5canceled?$AA@ 000000018002d240     libcpmt:syserror.obj
 0002:00001258       ??_C@_0BE@GHAFMPAH@too?5many?5files?5open?$AA@ 000000018002d258     libcpmt:syserror.obj
 0002:00001270       ??_C@_0BC@FNODOBAE@permission_denied?$AA@ 000000018002d270     libcpmt:syserror.obj
 0002:00001288       ??_C@_0P@LNDJPBFK@address_in_use?$AA@ 000000018002d288     libcpmt:syserror.obj
 0002:00001298       ??_C@_0BG@IPMGOJF@address_not_available?$AA@ 000000018002d298     libcpmt:syserror.obj
 0002:000012b0       ??_C@_0BN@LCBDHODA@address_family_not_supported?$AA@ 000000018002d2b0     libcpmt:syserror.obj
 0002:000012d0       ??_C@_0BP@FOJJHMCC@connection_already_in_progress?$AA@ 000000018002d2d0     libcpmt:syserror.obj
 0002:000012f0       ??_C@_0BE@DLHHIBGN@bad_file_descriptor?$AA@ 000000018002d2f0     libcpmt:syserror.obj
 0002:00001308       ??_C@_0BD@OJMJDIGI@connection_aborted?$AA@ 000000018002d308     libcpmt:syserror.obj
 0002:00001320       ??_C@_0BD@NGKCIFEP@connection_refused?$AA@ 000000018002d320     libcpmt:syserror.obj
 0002:00001338       ??_C@_0BB@JOANDNCK@connection_reset?$AA@ 000000018002d338     libcpmt:syserror.obj
 0002:00001350       ??_C@_0BN@JLJNLKLK@destination_address_required?$AA@ 000000018002d350     libcpmt:syserror.obj
 0002:00001370       ??_C@_0M@IJGMGFGP@bad_address?$AA@ 000000018002d370     libcpmt:syserror.obj
 0002:00001380       ??_C@_0BB@KKNHPPIN@host_unreachable?$AA@ 000000018002d380     libcpmt:syserror.obj
 0002:00001398       ??_C@_0BG@DJGBJIIK@operation_in_progress?$AA@ 000000018002d398     libcpmt:syserror.obj
 0002:000013b0       ??_C@_0M@EGEKIIMP@interrupted?$AA@ 000000018002d3b0     libcpmt:syserror.obj
 0002:000013c0       ??_C@_0BB@FFIHMIPJ@invalid_argument?$AA@ 000000018002d3c0     libcpmt:syserror.obj
 0002:000013d8       ??_C@_0BC@FIFLCHLO@already_connected?$AA@ 000000018002d3d8     libcpmt:syserror.obj
 0002:000013f0       ??_C@_0BE@GJJJJDDA@too_many_files_open?$AA@ 000000018002d3f0     libcpmt:syserror.obj
 0002:00001408       ??_C@_0N@HPMLKHPL@message_size?$AA@ 000000018002d408     libcpmt:syserror.obj
 0002:00001418       ??_C@_0BC@LEEIKBAL@filename_too_long?$AA@ 000000018002d418     libcpmt:syserror.obj
 0002:00001430       ??_C@_0N@FCPALPJK@network_down?$AA@ 000000018002d430     libcpmt:syserror.obj
 0002:00001440       ??_C@_0O@EHNDLHIG@network_reset?$AA@ 000000018002d440     libcpmt:syserror.obj
 0002:00001450       ??_C@_0BE@JFNJIDNF@network_unreachable?$AA@ 000000018002d450     libcpmt:syserror.obj
 0002:00001468       ??_C@_0BA@FDIJKJCL@no_buffer_space?$AA@ 000000018002d468     libcpmt:syserror.obj
 0002:00001478       ??_C@_0BD@JHIHCGKP@no_protocol_option?$AA@ 000000018002d478     libcpmt:syserror.obj
 0002:00001490       ??_C@_0O@GBCLHHD@not_connected?$AA@ 000000018002d490     libcpmt:syserror.obj
 0002:000014a0       ??_C@_0N@IMHKKLEM@not_a_socket?$AA@ 000000018002d4a0     libcpmt:syserror.obj
 0002:000014b0       ??_C@_0BI@ICEIDKLJ@operation_not_supported?$AA@ 000000018002d4b0     libcpmt:syserror.obj
 0002:000014c8       ??_C@_0BH@KAPBAIJF@protocol_not_supported?$AA@ 000000018002d4c8     libcpmt:syserror.obj
 0002:000014e0       ??_C@_0BE@GAOJJFPC@wrong_protocol_type?$AA@ 000000018002d4e0     libcpmt:syserror.obj
 0002:000014f8       ??_C@_09NCHNLHPG@timed_out?$AA@ 000000018002d4f8     libcpmt:syserror.obj
 0002:00001508       ??_C@_0BG@GDGHKFDH@operation_would_block?$AA@ 000000018002d508     libcpmt:syserror.obj
 0002:00001520       ??_C@_0BN@LKKBCCDB@address?5family?5not?5supported?$AA@ 000000018002d520     libcpmt:syserror.obj
 0002:00001540       ??_C@_0P@LDMLAFHI@address?5in?5use?$AA@ 000000018002d540     libcpmt:syserror.obj
 0002:00001550       ??_C@_0BG@DHPCNBJB@address?5not?5available?$AA@ 000000018002d550     libcpmt:syserror.obj
 0002:00001568       ??_C@_0BC@DFIBIBIL@already?5connected?$AA@ 000000018002d568     libcpmt:syserror.obj
 0002:00001580       ??_C@_0BH@CAKOHOMI@argument?5list?5too?5long?$AA@ 000000018002d580     libcpmt:syserror.obj
 0002:00001598       ??_C@_0BH@CGIMPKIM@argument?5out?5of?5domain?$AA@ 000000018002d598     libcpmt:syserror.obj
 0002:000015b0       ??_C@_0M@KGHGGJGL@bad?5address?$AA@ 000000018002d5b0     libcpmt:syserror.obj
 0002:000015c0       ??_C@_0BE@MPJPGCEO@bad?5file?5descriptor?$AA@ 000000018002d5c0     libcpmt:syserror.obj
 0002:000015d8       ??_C@_0M@PMMIEFCP@bad?5message?$AA@ 000000018002d5d8     libcpmt:syserror.obj
 0002:000015e8       ??_C@_0M@KPHOFDBE@broken?5pipe?$AA@ 000000018002d5e8     libcpmt:syserror.obj
 0002:000015f8       ??_C@_0BD@MGNDDEGM@connection?5aborted?$AA@ 000000018002d5f8     libcpmt:syserror.obj
 0002:00001610       ??_C@_0BP@KAIHPOGN@connection?5already?5in?5progress?$AA@ 000000018002d610     libcpmt:syserror.obj
 0002:00001630       ??_C@_0BD@PJLIIJEL@connection?5refused?$AA@ 000000018002d630     libcpmt:syserror.obj
 0002:00001648       ??_C@_0BB@IECNJNOI@connection?5reset?$AA@ 000000018002d648     libcpmt:syserror.obj
 0002:00001660       ??_C@_0BN@KDMIFEIP@destination?5address?5required?$AA@ 000000018002d660     libcpmt:syserror.obj
 0002:00001680       ??_C@_0BI@BNCLIGPB@executable?5format?5error?$AA@ 000000018002d680     libcpmt:syserror.obj
 0002:00001698       ??_C@_0P@DNAJLBJK@file?5too?5large?$AA@ 000000018002d698     libcpmt:syserror.obj
 0002:000016a8       ??_C@_0BB@DHFDFGDM@host?5unreachable?$AA@ 000000018002d6a8     libcpmt:syserror.obj
 0002:000016c0       ??_C@_0BD@JPHBMONG@identifier?5removed?$AA@ 000000018002d6c0     libcpmt:syserror.obj
 0002:000016d8       ??_C@_0BG@CDNPAGJK@illegal?5byte?5sequence?$AA@ 000000018002d6d8     libcpmt:syserror.obj
 0002:000016f0       ??_C@_0CD@BNPLBMNA@inappropriate?5io?5control?5operati@ 000000018002d6f0     libcpmt:syserror.obj
 0002:00001718       ??_C@_0N@OHAFKDEK@invalid?5seek?$AA@ 000000018002d718     libcpmt:syserror.obj
 0002:00001728       ??_C@_0P@FLLDBIDK@is?5a?5directory?$AA@ 000000018002d728     libcpmt:syserror.obj
 0002:00001738       ??_C@_0N@IFLPBIOP@message?5size?$AA@ 000000018002d738     libcpmt:syserror.obj
 0002:00001748       ??_C@_0N@KIIEAAIO@network?5down?$AA@ 000000018002d748     libcpmt:syserror.obj
 0002:00001758       ??_C@_0O@FNPDBHEE@network?5reset?$AA@ 000000018002d758     libcpmt:syserror.obj
 0002:00001768       ??_C@_0BE@IFNCKGE@network?5unreachable?$AA@ 000000018002d768     libcpmt:syserror.obj
 0002:00001780       ??_C@_0BA@PFFCAOFK@no?5buffer?5space?$AA@ 000000018002d780     libcpmt:syserror.obj
 0002:00001790       ??_C@_0BB@IEPBLJHK@no?5child?5process?$AA@ 000000018002d790     libcpmt:syserror.obj
 0002:000017a8       ??_C@_07PLECNNKG@no?5link?$AA@ 000000018002d7a8     libcpmt:syserror.obj
 0002:000017b0       ??_C@_0BF@PBGGPKKE@no?5message?5available?$AA@ 000000018002d7b0     libcpmt:syserror.obj
 0002:000017c8       ??_C@_0L@EDOLMPAK@no?5message?$AA@ 000000018002d7c8     libcpmt:syserror.obj
 0002:000017d8       ??_C@_0BD@EAMBFIDF@no?5protocol?5option?$AA@ 000000018002d7d8     libcpmt:syserror.obj
 0002:000017f0       ??_C@_0BE@MKFDAFMP@no?5stream?5resources?$AA@ 000000018002d7f0     libcpmt:syserror.obj
 0002:00001808       ??_C@_0BK@IMCPHCBI@no?5such?5device?5or?5address?$AA@ 000000018002d808     libcpmt:syserror.obj
 0002:00001828       ??_C@_0BA@ENLPPKBN@no?5such?5process?$AA@ 000000018002d828     libcpmt:syserror.obj
 0002:00001838       ??_C@_0BA@DOCPFFJG@not?5a?5directory?$AA@ 000000018002d838     libcpmt:syserror.obj
 0002:00001848       ??_C@_0N@POEIPGGF@not?5a?5socket?$AA@ 000000018002d848     libcpmt:syserror.obj
 0002:00001858       ??_C@_0N@LGAPMMPI@not?5a?5stream?$AA@ 000000018002d858     libcpmt:syserror.obj
 0002:00001868       ??_C@_0O@GLMIBBEG@not?5connected?$AA@ 000000018002d868     libcpmt:syserror.obj
 0002:00001878       ??_C@_0O@NHEDABJP@not?5supported?$AA@ 000000018002d878     libcpmt:syserror.obj
 0002:00001888       ??_C@_0BG@KDKHOPCO@operation?5in?5progress?$AA@ 000000018002d888     libcpmt:syserror.obj
 0002:000018a0       ??_C@_0BI@OHIEJAAB@operation?5not?5permitted?$AA@ 000000018002d8a0     libcpmt:syserror.obj
 0002:000018b8       ??_C@_0BI@LNEGIFLN@operation?5not?5supported?$AA@ 000000018002d8b8     libcpmt:syserror.obj
 0002:000018d0       ??_C@_0BG@OEMDKMEE@operation?5would?5block?$AA@ 000000018002d8d0     libcpmt:syserror.obj
 0002:000018e8       ??_C@_0L@BLPOFLNJ@owner?5dead?$AA@ 000000018002d8e8     libcpmt:syserror.obj
 0002:000018f8       ??_C@_0P@FNPOCJBE@protocol?5error?$AA@ 000000018002d8f8     libcpmt:syserror.obj
 0002:00001908       ??_C@_0BH@JPPPLHJB@protocol?5not?5supported?$AA@ 000000018002d908     libcpmt:syserror.obj
 0002:00001920       ??_C@_0BG@EICBIHDP@read?5only?5file?5system?$AA@ 000000018002d920     libcpmt:syserror.obj
 0002:00001938       ??_C@_0BO@BJBOMOEJ@resource?5deadlock?5would?5occur?$AA@ 000000018002d938     libcpmt:syserror.obj
 0002:00001958       ??_C@_0BE@GOIPJJHG@result?5out?5of?5range?$AA@ 000000018002d958     libcpmt:syserror.obj
 0002:00001970       ??_C@_0BG@MPLKFPAE@state?5not?5recoverable?$AA@ 000000018002d970     libcpmt:syserror.obj
 0002:00001988       ??_C@_0P@DIIFGFCG@stream?5timeout?$AA@ 000000018002d988     libcpmt:syserror.obj
 0002:00001998       ??_C@_0P@IPFDMIFL@text?5file?5busy?$AA@ 000000018002d998     libcpmt:syserror.obj
 0002:000019a8       ??_C@_09KJPPMAOI@timed?5out?$AA@ 000000018002d9a8     libcpmt:syserror.obj
 0002:000019b8       ??_C@_0BO@HACHBEKI@too?5many?5files?5open?5in?5system?$AA@ 000000018002d9b8     libcpmt:syserror.obj
 0002:000019d8       ??_C@_0P@HCOMKFCC@too?5many?5links?$AA@ 000000018002d9d8     libcpmt:syserror.obj
 0002:000019e8       ??_C@_0BO@EFGOJEF@too?5many?5symbolic?5link?5levels?$AA@ 000000018002d9e8     libcpmt:syserror.obj
 0002:00001a08       ??_C@_0BA@KGKGOOJA@value?5too?5large?$AA@ 000000018002da08     libcpmt:syserror.obj
 0002:00001a18       ??_C@_0BE@MIEJDDNH@wrong?5protocol?5type?$AA@ 000000018002da18     libcpmt:syserror.obj
 0002:00001a38       ??_7bad_alloc@std@@6B@     000000018002da38     libcpmt:xthrow.obj
 0002:00001a48       ??_C@_0P@GHFPNOJB@bad?5allocation?$AA@ 000000018002da48     libcpmt:xthrow.obj
 0002:00001a60       ??_7logic_error@std@@6B@   000000018002da60     libcpmt:xthrow.obj
 0002:00001a78       ??_7length_error@std@@6B@  000000018002da78     libcpmt:xthrow.obj
 0002:00001a88       ??_C@_17LGKOMLJ@?$AA?4?$AA?4?$AA?4?$AA?$AA@ 000000018002da88     LIBCMT:wassert.obj
 0002:00001a90       ??_C@_13LBAGMAIH@?$AA?6?$AA?$AA@ 000000018002da90     LIBCMT:wassert.obj
 0002:00001a94       ??_C@_15IABLJNFO@?$AA?6?$AA?6?$AA?$AA@ 000000018002da94     LIBCMT:wassert.obj
 0002:00001aa0       ??_C@_1CE@OJBNHDMO@?$AAA?$AAs?$AAs?$AAe?$AAr?$AAt?$AAi?$AAo?$AAn?$AA?5?$AAf?$AAa?$AAi?$AAl?$AAe?$AAd?$AA?$CB?$AA?$AA@ 000000018002daa0     LIBCMT:wassert.obj
 0002:00001ac8       ??_C@_1BE@PHKBBGE@?$AAP?$AAr?$AAo?$AAg?$AAr?$AAa?$AAm?$AA?3?$AA?5?$AA?$AA@ 000000018002dac8     LIBCMT:wassert.obj
 0002:00001ae0       ??_C@_1CO@EAEJAADC@?$AA?$DM?$AAp?$AAr?$AAo?$AAg?$AAr?$AAa?$AAm?$AA?5?$AAn?$AAa?$AAm?$AAe?$AA?5?$AAu?$AAn?$AAk?$AAn?$AAo?$AAw?$AAn?$AA?$DO?$AA?$AA@ 000000018002dae0     LIBCMT:wassert.obj
 0002:00001b10       ??_C@_1O@HEMHKNDC@?$AAF?$AAi?$AAl?$AAe?$AA?3?$AA?5?$AA?$AA@ 000000018002db10     LIBCMT:wassert.obj
 0002:00001b20       ??_C@_1O@KCAFKHJE@?$AAL?$AAi?$AAn?$AAe?$AA?3?$AA?5?$AA?$AA@ 000000018002db20     LIBCMT:wassert.obj
 0002:00001b30       ??_C@_1BK@PEDCIPMA@?$AAE?$AAx?$AAp?$AAr?$AAe?$AAs?$AAs?$AAi?$AAo?$AAn?$AA?3?$AA?5?$AA?$AA@ 000000018002db30     LIBCMT:wassert.obj
 0002:00001b50       ??_C@_1OA@EGMLFBHJ@?$AAF?$AAo?$AAr?$AA?5?$AAi?$AAn?$AAf?$AAo?$AAr?$AAm?$AAa?$AAt?$AAi?$AAo?$AAn?$AA?5?$AAo?$AAn?$AA?5?$AAh?$AAo?$AAw?$AA?5?$AAy?$AAo?$AAu?$AAr?$AA?5?$AAp?$AAr?$AAo?$AAg@ 000000018002db50     LIBCMT:wassert.obj
 0002:00001c30       ??_C@_1HK@POCJMFGK@?$AA?$CI?$AAP?$AAr?$AAe?$AAs?$AAs?$AA?5?$AAR?$AAe?$AAt?$AAr?$AAy?$AA?5?$AAt?$AAo?$AA?5?$AAd?$AAe?$AAb?$AAu?$AAg?$AA?5?$AAt?$AAh?$AAe?$AA?5?$AAa?$AAp?$AAp?$AAl?$AAi?$AAc@ 000000018002dc30     LIBCMT:wassert.obj
 0002:00001cb0       ??_C@_1EK@MBDPDCGA@?$AAM?$AAi?$AAc?$AAr?$AAo?$AAs?$AAo?$AAf?$AAt?$AA?5?$AAV?$AAi?$AAs?$AAu?$AAa?$AAl?$AA?5?$AAC?$AA?$CL?$AA?$CL?$AA?5?$AAR?$AAu?$AAn?$AAt?$AAi?$AAm?$AAe?$AA?5?$AAL?$AAi?$AAb@ 000000018002dcb0     LIBCMT:wassert.obj
 0002:00001cfc       ??_C@_06MEIMCGCF@_hypot?$AA@ 000000018002dcfc     LIBCMT:hypot.obj
 0002:00001d08       ??_C@_0L@KDOEJCKC@_nextafter?$AA@ 000000018002dd08     LIBCMT:ieeemisc.obj
 0002:00001d18       _pDefaultRawDllMain        000000018002dd18     LIBCMT:dllcrt0.obj
 0002:00001d18       _pRawDllMain               000000018002dd18     LIBCMT:dllcrt0.obj
 0002:00001e00       ??_7type_info@@6B@         000000018002de00     LIBCMT:typinfo.obj
 0002:00001e08       _FPinit                    000000018002de08     LIBCMT:fpinit.obj
 0002:00001e18       ??_7exception@std@@6B@     000000018002de18     LIBCMT:stdexcpt.obj
 0002:00001e28       ??_C@_0BC@EOODALEL@Unknown?5exception?$AA@ 000000018002de28     LIBCMT:stdexcpt.obj
 0002:00001e50       ??_C@_1BI@BGOHAHKC@?$AAm?$AAs?$AAc?$AAo?$AAr?$AAe?$AAe?$AA?4?$AAd?$AAl?$AAl?$AA?$AA@ 000000018002de50     LIBCMT:crt0dat.obj
 0002:00001e68       ??_C@_0P@MIGLKIOC@CorExitProcess?$AA@ 000000018002de68     LIBCMT:crt0dat.obj
 0002:00001ff0       ??_C@_1FK@PGACCAFB@?$AAR?$AA6?$AA0?$AA0?$AA2?$AA?$AN?$AA?6?$AA?9?$AA?5?$AAf?$AAl?$AAo?$AAa?$AAt?$AAi?$AAn?$AAg?$AA?5?$AAp?$AAo?$AAi?$AAn?$AAt?$AA?5?$AAs?$AAu?$AAp?$AAp?$AAo?$AAr?$AAt?$AA?5@ 000000018002dff0     LIBCMT:crt0msg.obj
 0002:00002050       ??_C@_1FE@LLNEDJMD@?$AAR?$AA6?$AA0?$AA0?$AA8?$AA?$AN?$AA?6?$AA?9?$AA?5?$AAn?$AAo?$AAt?$AA?5?$AAe?$AAn?$AAo?$AAu?$AAg?$AAh?$AA?5?$AAs?$AAp?$AAa?$AAc?$AAe?$AA?5?$AAf?$AAo?$AAr?$AA?5?$AAa?$AAr@ 000000018002e050     LIBCMT:crt0msg.obj
 0002:000020b0       ??_C@_1FI@HONFMGBI@?$AAR?$AA6?$AA0?$AA0?$AA9?$AA?$AN?$AA?6?$AA?9?$AA?5?$AAn?$AAo?$AAt?$AA?5?$AAe?$AAn?$AAo?$AAu?$AAg?$AAh?$AA?5?$AAs?$AAp?$AAa?$AAc?$AAe?$AA?5?$AAf?$AAo?$AAr?$AA?5?$AAe?$AAn@ 000000018002e0b0     LIBCMT:crt0msg.obj
 0002:00002110       ??_C@_1EG@BEHAGFJD@?$AAR?$AA6?$AA0?$AA1?$AA0?$AA?$AN?$AA?6?$AA?9?$AA?5?$AAa?$AAb?$AAo?$AAr?$AAt?$AA?$CI?$AA?$CJ?$AA?5?$AAh?$AAa?$AAs?$AA?5?$AAb?$AAe?$AAe?$AAn?$AA?5?$AAc?$AAa?$AAl?$AAl?$AAe?$AAd@ 000000018002e110     LIBCMT:crt0msg.obj
 0002:00002160       ??_C@_1FI@LOGNIKDM@?$AAR?$AA6?$AA0?$AA1?$AA6?$AA?$AN?$AA?6?$AA?9?$AA?5?$AAn?$AAo?$AAt?$AA?5?$AAe?$AAn?$AAo?$AAu?$AAg?$AAh?$AA?5?$AAs?$AAp?$AAa?$AAc?$AAe?$AA?5?$AAf?$AAo?$AAr?$AA?5?$AAt?$AAh@ 000000018002e160     LIBCMT:crt0msg.obj
 0002:000021c0       ??_C@_1FK@BEOGODMC@?$AAR?$AA6?$AA0?$AA1?$AA7?$AA?$AN?$AA?6?$AA?9?$AA?5?$AAu?$AAn?$AAe?$AAx?$AAp?$AAe?$AAc?$AAt?$AAe?$AAd?$AA?5?$AAm?$AAu?$AAl?$AAt?$AAi?$AAt?$AAh?$AAr?$AAe?$AAa?$AAd?$AA?5@ 000000018002e1c0     LIBCMT:crt0msg.obj
 0002:00002220       ??_C@_1EC@JIBHAOPH@?$AAR?$AA6?$AA0?$AA1?$AA8?$AA?$AN?$AA?6?$AA?9?$AA?5?$AAu?$AAn?$AAe?$AAx?$AAp?$AAe?$AAc?$AAt?$AAe?$AAd?$AA?5?$AAh?$AAe?$AAa?$AAp?$AA?5?$AAe?$AAr?$AAr?$AAo?$AAr?$AA?$AN?$AA?6@ 000000018002e220     LIBCMT:crt0msg.obj
 0002:00002270       ??_C@_1FC@ECHBIFBC@?$AAR?$AA6?$AA0?$AA1?$AA9?$AA?$AN?$AA?6?$AA?9?$AA?5?$AAu?$AAn?$AAa?$AAb?$AAl?$AAe?$AA?5?$AAt?$AAo?$AA?5?$AAo?$AAp?$AAe?$AAn?$AA?5?$AAc?$AAo?$AAn?$AAs?$AAo?$AAl?$AAe?$AA?5@ 000000018002e270     LIBCMT:crt0msg.obj
 0002:000022d0       ??_C@_1GK@FHCKBEFA@?$AAR?$AA6?$AA0?$AA2?$AA4?$AA?$AN?$AA?6?$AA?9?$AA?5?$AAn?$AAo?$AAt?$AA?5?$AAe?$AAn?$AAo?$AAu?$AAg?$AAh?$AA?5?$AAs?$AAp?$AAa?$AAc?$AAe?$AA?5?$AAf?$AAo?$AAr?$AA?5?$AA_?$AAo@ 000000018002e2d0     LIBCMT:crt0msg.obj
 0002:00002340       ??_C@_1EM@MAADIHMB@?$AAR?$AA6?$AA0?$AA2?$AA5?$AA?$AN?$AA?6?$AA?9?$AA?5?$AAp?$AAu?$AAr?$AAe?$AA?5?$AAv?$AAi?$AAr?$AAt?$AAu?$AAa?$AAl?$AA?5?$AAf?$AAu?$AAn?$AAc?$AAt?$AAi?$AAo?$AAn?$AA?5?$AAc@ 000000018002e340     LIBCMT:crt0msg.obj
 0002:00002390       ??_C@_1GK@MCAAGJMO@?$AAR?$AA6?$AA0?$AA2?$AA6?$AA?$AN?$AA?6?$AA?9?$AA?5?$AAn?$AAo?$AAt?$AA?5?$AAe?$AAn?$AAo?$AAu?$AAg?$AAh?$AA?5?$AAs?$AAp?$AAa?$AAc?$AAe?$AA?5?$AAf?$AAo?$AAr?$AA?5?$AAs?$AAt@ 000000018002e390     LIBCMT:crt0msg.obj
 0002:00002400       ??_C@_1GK@MFGOKLAG@?$AAR?$AA6?$AA0?$AA2?$AA7?$AA?$AN?$AA?6?$AA?9?$AA?5?$AAn?$AAo?$AAt?$AA?5?$AAe?$AAn?$AAo?$AAu?$AAg?$AAh?$AA?5?$AAs?$AAp?$AAa?$AAc?$AAe?$AA?5?$AAf?$AAo?$AAr?$AA?5?$AAl?$AAo@ 000000018002e400     LIBCMT:crt0msg.obj
 0002:00002470       ??_C@_1EK@HHFLMAOL@?$AAR?$AA6?$AA0?$AA2?$AA8?$AA?$AN?$AA?6?$AA?9?$AA?5?$AAu?$AAn?$AAa?$AAb?$AAl?$AAe?$AA?5?$AAt?$AAo?$AA?5?$AAi?$AAn?$AAi?$AAt?$AAi?$AAa?$AAl?$AAi?$AAz?$AAe?$AA?5?$AAh?$AAe@ 000000018002e470     LIBCMT:crt0msg.obj
 0002:000024c0       ??_C@_1DO@BMFCDCD@?$AAR?$AA6?$AA0?$AA3?$AA0?$AA?$AN?$AA?6?$AA?9?$AA?5?$AAC?$AAR?$AAT?$AA?5?$AAn?$AAo?$AAt?$AA?5?$AAi?$AAn?$AAi?$AAt?$AAi?$AAa?$AAl?$AAi?$AAz?$AAe?$AAd?$AA?$AN?$AA?6?$AA?$AA@ 000000018002e4c0     LIBCMT:crt0msg.obj
 0002:00002500       ??_C@_1MG@ENCOOIDF@?$AAR?$AA6?$AA0?$AA3?$AA1?$AA?$AN?$AA?6?$AA?9?$AA?5?$AAA?$AAt?$AAt?$AAe?$AAm?$AAp?$AAt?$AA?5?$AAt?$AAo?$AA?5?$AAi?$AAn?$AAi?$AAt?$AAi?$AAa?$AAl?$AAi?$AAz?$AAe?$AA?5?$AAt@ 000000018002e500     LIBCMT:crt0msg.obj
 0002:000025d0       ??_C@_1GG@GOPILAJP@?$AAR?$AA6?$AA0?$AA3?$AA2?$AA?$AN?$AA?6?$AA?9?$AA?5?$AAn?$AAo?$AAt?$AA?5?$AAe?$AAn?$AAo?$AAu?$AAg?$AAh?$AA?5?$AAs?$AAp?$AAa?$AAc?$AAe?$AA?5?$AAf?$AAo?$AAr?$AA?5?$AAl?$AAo@ 000000018002e5d0     LIBCMT:crt0msg.obj
 0002:00002640       ??_C@_1BOO@KGEDBGAJ@?$AAR?$AA6?$AA0?$AA3?$AA3?$AA?$AN?$AA?6?$AA?9?$AA?5?$AAA?$AAt?$AAt?$AAe?$AAm?$AAp?$AAt?$AA?5?$AAt?$AAo?$AA?5?$AAu?$AAs?$AAe?$AA?5?$AAM?$AAS?$AAI?$AAL?$AA?5?$AAc?$AAo?$AAd@ 000000018002e640     LIBCMT:crt0msg.obj
 0002:00002830       ??_C@_1GG@MKFPEKFO@?$AAR?$AA6?$AA0?$AA3?$AA4?$AA?$AN?$AA?6?$AA?9?$AA?5?$AAi?$AAn?$AAc?$AAo?$AAn?$AAs?$AAi?$AAs?$AAt?$AAe?$AAn?$AAt?$AA?5?$AAo?$AAn?$AAe?$AAx?$AAi?$AAt?$AA?5?$AAb?$AAe?$AAg@ 000000018002e830     LIBCMT:crt0msg.obj
 0002:00002898       ??_C@_1BO@BFCDCGC@?$AAD?$AAO?$AAM?$AAA?$AAI?$AAN?$AA?5?$AAe?$AAr?$AAr?$AAo?$AAr?$AA?$AN?$AA?6?$AA?$AA@ 000000018002e898     LIBCMT:crt0msg.obj
 0002:000028b8       ??_C@_1BK@KMOMNAAI@?$AAS?$AAI?$AAN?$AAG?$AA?5?$AAe?$AAr?$AAr?$AAo?$AAr?$AA?$AN?$AA?6?$AA?$AA@ 000000018002e8b8     LIBCMT:crt0msg.obj
 0002:000028d8       ??_C@_1BM@JBBEPPHI@?$AAT?$AAL?$AAO?$AAS?$AAS?$AA?5?$AAe?$AAr?$AAr?$AAo?$AAr?$AA?$AN?$AA?6?$AA?$AA@ 000000018002e8d8     LIBCMT:crt0msg.obj
 0002:000028f4       ??_C@_15JNBOKNOG@?$AA?$AN?$AA?6?$AA?$AA@ 000000018002e8f4     LIBCMT:crt0msg.obj
 0002:00002900       ??_C@_1BO@BKOMIGKJ@?$AAr?$AAu?$AAn?$AAt?$AAi?$AAm?$AAe?$AA?5?$AAe?$AAr?$AAr?$AAo?$AAr?$AA?5?$AA?$AA@ 000000018002e900     LIBCMT:crt0msg.obj
 0002:00002920       ??_C@_1DE@JNGNBFGO@?$AAR?$AAu?$AAn?$AAt?$AAi?$AAm?$AAe?$AA?5?$AAE?$AAr?$AAr?$AAo?$AAr?$AA?$CB?$AA?6?$AA?6?$AAP?$AAr?$AAo?$AAg?$AAr?$AAa?$AAm?$AA?3?$AA?5?$AA?$AA@ 000000018002e920     LIBCMT:crt0msg.obj
 0002:00002958       ??_C@_1BG@GOEBHBDC@?$AAU?$AAS?$AAE?$AAR?$AA3?$AA2?$AA?4?$AAD?$AAL?$AAL?$AA?$AA@ 000000018002e958     LIBCMT:crtmboxw.obj
 0002:00002970       ??_C@_0M@DLDCCGNP@MessageBoxW?$AA@ 000000018002e970     LIBCMT:crtmboxw.obj
 0002:00002980       ??_C@_0BA@HNOPNCHB@GetActiveWindow?$AA@ 000000018002e980     LIBCMT:crtmboxw.obj
 0002:00002990       ??_C@_0BD@HHGDFDBJ@GetLastActivePopup?$AA@ 000000018002e990     LIBCMT:crtmboxw.obj
 0002:000029a8       ??_C@_0BK@DEKFELLI@GetUserObjectInformationW?$AA@ 000000018002e9a8     LIBCMT:crtmboxw.obj
 0002:000029c8       ??_C@_0BI@DFKBFLJE@GetProcessWindowStation?$AA@ 000000018002e9c8     LIBCMT:crtmboxw.obj
 0002:000029e0       ??_C@_06OJHGLDPL@?$CInull?$CJ?$AA@ 000000018002e9e0     LIBCMT:output.obj
 0002:000029e8       ??_C@_1O@CEDCILHN@?$AA?$CI?$AAn?$AAu?$AAl?$AAl?$AA?$CJ?$AA?$AA@ 000000018002e9e8     LIBCMT:output.obj
 0002:00002a00       __lookuptable              000000018002ea00     LIBCMT:output.obj
 0002:00002aa8       ??_C@_1M@HPNHIDJI@?$AAj?$AAa?$AA?9?$AAJ?$AAP?$AA?$AA@ 000000018002eaa8     LIBCMT:mbctype.obj
 0002:00002ab8       ??_C@_1M@BIBDDEMK@?$AAz?$AAh?$AA?9?$AAC?$AAN?$AA?$AA@ 000000018002eab8     LIBCMT:mbctype.obj
 0002:00002ac8       ??_C@_1M@JLOOOEGK@?$AAk?$AAo?$AA?9?$AAK?$AAR?$AA?$AA@ 000000018002eac8     LIBCMT:mbctype.obj
 0002:00002ad8       ??_C@_1M@CLNBBOPM@?$AAz?$AAh?$AA?9?$AAT?$AAW?$AA?$AA@ 000000018002ead8     LIBCMT:mbctype.obj
 0002:00002ae4       ??_C@_03KOEHGMDN@Sun?$AA@  000000018002eae4     LIBCMT:nlsdata.obj
 0002:00002ae8       ??_C@_03PDAGKDH@Mon?$AA@   000000018002eae8     LIBCMT:nlsdata.obj
 0002:00002aec       ??_C@_03NAGEINEP@Tue?$AA@  000000018002eaec     LIBCMT:nlsdata.obj
 0002:00002af0       ??_C@_03MHOMLAJA@Wed?$AA@  000000018002eaf0     LIBCMT:nlsdata.obj
 0002:00002af4       ??_C@_03IOFIKPDN@Thu?$AA@  000000018002eaf4     LIBCMT:nlsdata.obj
 0002:00002af8       ??_C@_03IDIOELNC@Fri?$AA@  000000018002eaf8     LIBCMT:nlsdata.obj
 0002:00002afc       ??_C@_03FEFJNEK@Sat?$AA@   000000018002eafc     LIBCMT:nlsdata.obj
 0002:00002b00       ??_C@_06OOPIFAJ@Sunday?$AA@ 000000018002eb00     LIBCMT:nlsdata.obj
 0002:00002b08       ??_C@_06JLEDEDGH@Monday?$AA@ 000000018002eb08     LIBCMT:nlsdata.obj
 0002:00002b10       ??_C@_07BAAGCFCM@Tuesday?$AA@ 000000018002eb10     LIBCMT:nlsdata.obj
 0002:00002b18       ??_C@_09DLIGFAKA@Wednesday?$AA@ 000000018002eb18     LIBCMT:nlsdata.obj
 0002:00002b28       ??_C@_08HACCIKIA@Thursday?$AA@ 000000018002eb28     LIBCMT:nlsdata.obj
 0002:00002b34       ??_C@_06JECMNKMI@Friday?$AA@ 000000018002eb34     LIBCMT:nlsdata.obj
 0002:00002b40       ??_C@_08INBOOONO@Saturday?$AA@ 000000018002eb40     LIBCMT:nlsdata.obj
 0002:00002b4c       ??_C@_03JIHJHPIE@Jan?$AA@  000000018002eb4c     LIBCMT:nlsdata.obj
 0002:00002b50       ??_C@_03HJBDCHOM@Feb?$AA@  000000018002eb50     LIBCMT:nlsdata.obj
 0002:00002b54       ??_C@_03ODNJBKGA@Mar?$AA@  000000018002eb54     LIBCMT:nlsdata.obj
 0002:00002b58       ??_C@_03LEOLGMJP@Apr?$AA@  000000018002eb58     LIBCMT:nlsdata.obj
 0002:00002b5c       ??_C@_03CNMDKL@May?$AA@    000000018002eb5c     LIBCMT:nlsdata.obj
 0002:00002b60       ??_C@_03IDFGHECI@Jun?$AA@  000000018002eb60     LIBCMT:nlsdata.obj
 0002:00002b64       ??_C@_03LBGABGKK@Jul?$AA@  000000018002eb64     LIBCMT:nlsdata.obj
 0002:00002b68       ??_C@_03IFJFEIGA@Aug?$AA@  000000018002eb68     LIBCMT:nlsdata.obj
 0002:00002b6c       ??_C@_03GGCAPAJC@Sep?$AA@  000000018002eb6c     LIBCMT:nlsdata.obj
 0002:00002b70       ??_C@_03BMAOKBAD@Oct?$AA@  000000018002eb70     LIBCMT:nlsdata.obj
 0002:00002b74       ??_C@_03JPJOFNIA@Nov?$AA@  000000018002eb74     LIBCMT:nlsdata.obj
 0002:00002b78       ??_C@_03MKABNOCG@Dec?$AA@  000000018002eb78     LIBCMT:nlsdata.obj
 0002:00002b80       ??_C@_07CGJPFGJA@January?$AA@ 000000018002eb80     LIBCMT:nlsdata.obj
 0002:00002b88       ??_C@_08GNJGEPFN@February?$AA@ 000000018002eb88     LIBCMT:nlsdata.obj
 0002:00002b94       ??_C@_05HPCKOFNC@March?$AA@ 000000018002eb94     LIBCMT:nlsdata.obj
 0002:00002b9c       ??_C@_05DMJDNLEJ@April?$AA@ 000000018002eb9c     LIBCMT:nlsdata.obj
 0002:00002ba4       ??_C@_04CNLMGBGM@June?$AA@ 000000018002eba4     LIBCMT:nlsdata.obj
 0002:00002bac       ??_C@_04MIEPOIFP@July?$AA@ 000000018002ebac     LIBCMT:nlsdata.obj
 0002:00002bb4       ??_C@_06LBBHFDDG@August?$AA@ 000000018002ebb4     LIBCMT:nlsdata.obj
 0002:00002bc0       ??_C@_09BHHEALKD@September?$AA@ 000000018002ebc0     LIBCMT:nlsdata.obj
 0002:00002bd0       ??_C@_07JJNFCEND@October?$AA@ 000000018002ebd0     LIBCMT:nlsdata.obj
 0002:00002bd8       ??_C@_08HCHEGEOA@November?$AA@ 000000018002ebd8     LIBCMT:nlsdata.obj
 0002:00002be8       ??_C@_08EDHMEBNP@December?$AA@ 000000018002ebe8     LIBCMT:nlsdata.obj
 0002:00002bf4       ??_C@_02DEDBPAFC@AM?$AA@   000000018002ebf4     LIBCMT:nlsdata.obj
 0002:00002bf8       ??_C@_02CJNFDJBF@PM?$AA@   000000018002ebf8     LIBCMT:nlsdata.obj
 0002:00002c00       ??_C@_08BPBNCDIB@MM?1dd?1yy?$AA@ 000000018002ec00     LIBCMT:nlsdata.obj
 0002:00002c10       ??_C@_0BE@CKGJFCPC@dddd?0?5MMMM?5dd?0?5yyyy?$AA@ 000000018002ec10     LIBCMT:nlsdata.obj
 0002:00002c28       ??_C@_08JCCMCCIL@HH?3mm?3ss?$AA@ 000000018002ec28     LIBCMT:nlsdata.obj
 0002:00002c38       ??_C@_17MBGCMIPB@?$AAS?$AAu?$AAn?$AA?$AA@ 000000018002ec38     LIBCMT:nlsdata.obj
 0002:00002c40       ??_C@_17KBOMKBF@?$AAM?$AAo?$AAn?$AA?$AA@ 000000018002ec40     LIBCMT:nlsdata.obj
 0002:00002c48       ??_C@_17BMKGEGOJ@?$AAT?$AAu?$AAe?$AA?$AA@ 000000018002ec48     LIBCMT:nlsdata.obj
 0002:00002c50       ??_C@_17CJEDCEPE@?$AAW?$AAe?$AAd?$AA?$AA@ 000000018002ec50     LIBCMT:nlsdata.obj
 0002:00002c58       ??_C@_17PDPHAADD@?$AAT?$AAh?$AAu?$AA?$AA@ 000000018002ec58     LIBCMT:nlsdata.obj
 0002:00002c60       ??_C@_17HFOLPPLP@?$AAF?$AAr?$AAi?$AA?$AA@ 000000018002ec60     LIBCMT:nlsdata.obj
 0002:00002c68       ??_C@_17GGIBDPIH@?$AAS?$AAa?$AAt?$AA?$AA@ 000000018002ec68     LIBCMT:nlsdata.obj
 0002:00002c70       ??_C@_1O@IHNHDHPB@?$AAS?$AAu?$AAn?$AAd?$AAa?$AAy?$AA?$AA@ 000000018002ec70     LIBCMT:nlsdata.obj
 0002:00002c80       ??_C@_1O@MMNBFLIA@?$AAM?$AAo?$AAn?$AAd?$AAa?$AAy?$AA?$AA@ 000000018002ec80     LIBCMT:nlsdata.obj
 0002:00002c90       ??_C@_1BA@ENFBFFEK@?$AAT?$AAu?$AAe?$AAs?$AAd?$AAa?$AAy?$AA?$AA@ 000000018002ec90     LIBCMT:nlsdata.obj
 0002:00002ca0       ??_C@_1BE@EBOGMDOH@?$AAW?$AAe?$AAd?$AAn?$AAe?$AAs?$AAd?$AAa?$AAy?$AA?$AA@ 000000018002eca0     LIBCMT:nlsdata.obj
 0002:00002cb8       ??_C@_1BC@HHMNLIHE@?$AAT?$AAh?$AAu?$AAr?$AAs?$AAd?$AAa?$AAy?$AA?$AA@ 000000018002ecb8     LIBCMT:nlsdata.obj
 0002:00002cd0       ??_C@_1O@PDICJHAG@?$AAF?$AAr?$AAi?$AAd?$AAa?$AAy?$AA?$AA@ 000000018002ecd0     LIBCMT:nlsdata.obj
 0002:00002ce0       ??_C@_1BC@ENMNNPAJ@?$AAS?$AAa?$AAt?$AAu?$AAr?$AAd?$AAa?$AAy?$AA?$AA@ 000000018002ece0     LIBCMT:nlsdata.obj
 0002:00002cf8       ??_C@_17DKNBKCHM@?$AAJ?$AAa?$AAn?$AA?$AA@ 000000018002ecf8     LIBCMT:nlsdata.obj
 0002:00002d00       ??_C@_17LMDJEKJN@?$AAF?$AAe?$AAb?$AA?$AA@ 000000018002ed00     LIBCMT:nlsdata.obj
 0002:00002d08       ??_C@_17CKNLEDEC@?$AAM?$AAa?$AAr?$AA?$AA@ 000000018002ed08     LIBCMT:nlsdata.obj
 0002:00002d10       ??_C@_17LFPOIHDD@?$AAA?$AAp?$AAr?$AA?$AA@ 000000018002ed10     LIBCMT:nlsdata.obj
 0002:00002d18       ??_C@_17PNNKMEED@?$AAM?$AAa?$AAy?$AA?$AA@ 000000018002ed18     LIBCMT:nlsdata.obj
 0002:00002d20       ??_C@_17KCJGOCPB@?$AAJ?$AAu?$AAn?$AA?$AA@ 000000018002ed20     LIBCMT:nlsdata.obj
 0002:00002d28       ??_C@_17IJPCKHK@?$AAJ?$AAu?$AAl?$AA?$AA@ 000000018002ed28     LIBCMT:nlsdata.obj
 0002:00002d30       ??_C@_17ICPELBCN@?$AAA?$AAu?$AAg?$AA?$AA@ 000000018002ed30     LIBCMT:nlsdata.obj
 0002:00002d38       ??_C@_17HCHCOKMG@?$AAS?$AAe?$AAp?$AA?$AA@ 000000018002ed38     LIBCMT:nlsdata.obj
 0002:00002d40       ??_C@_17FNLKOI@?$AAO?$AAc?$AAt?$AA?$AA@ 000000018002ed40     LIBCMT:nlsdata.obj
 0002:00002d48       ??_C@_17BBDMLCIG@?$AAN?$AAo?$AAv?$AA?$AA@ 000000018002ed48     LIBCMT:nlsdata.obj
 0002:00002d50       ??_C@_17EGKACKIF@?$AAD?$AAe?$AAc?$AA?$AA@ 000000018002ed50     LIBCMT:nlsdata.obj
 0002:00002d58       ??_C@_1BA@EFMEIEBA@?$AAJ?$AAa?$AAn?$AAu?$AAa?$AAr?$AAy?$AA?$AA@ 000000018002ed58     LIBCMT:nlsdata.obj
 0002:00002d68       ??_C@_1BC@JGDDFFAM@?$AAF?$AAe?$AAb?$AAr?$AAu?$AAa?$AAr?$AAy?$AA?$AA@ 000000018002ed68     LIBCMT:nlsdata.obj
 0002:00002d80       ??_C@_1M@IKEENEDF@?$AAM?$AAa?$AAr?$AAc?$AAh?$AA?$AA@ 000000018002ed80     LIBCMT:nlsdata.obj
 0002:00002d90       ??_C@_1M@GJNLMHFD@?$AAA?$AAp?$AAr?$AAi?$AAl?$AA?$AA@ 000000018002ed90     LIBCMT:nlsdata.obj
 0002:00002da0       ??_C@_19EPFLPGAP@?$AAJ?$AAu?$AAn?$AAe?$AA?$AA@ 000000018002eda0     LIBCMT:nlsdata.obj
 0002:00002db0       ??_C@_19BIFMLPCD@?$AAJ?$AAu?$AAl?$AAy?$AA?$AA@ 000000018002edb0     LIBCMT:nlsdata.obj
 0002:00002dc0       ??_C@_1O@PAHLKOAC@?$AAA?$AAu?$AAg?$AAu?$AAs?$AAt?$AA?$AA@ 000000018002edc0     LIBCMT:nlsdata.obj
 0002:00002dd0       ??_C@_1BE@DKAAMBJL@?$AAS?$AAe?$AAp?$AAt?$AAe?$AAm?$AAb?$AAe?$AAr?$AA?$AA@ 000000018002edd0     LIBCMT:nlsdata.obj
 0002:00002de8       ??_C@_1BA@EPANDLNG@?$AAO?$AAc?$AAt?$AAo?$AAb?$AAe?$AAr?$AA?$AA@ 000000018002ede8     LIBCMT:nlsdata.obj
 0002:00002df8       ??_C@_1BC@BGLIFPF@?$AAN?$AAo?$AAv?$AAe?$AAm?$AAb?$AAe?$AAr?$AA?$AA@ 000000018002edf8     LIBCMT:nlsdata.obj
 0002:00002e10       ??_C@_1BC@FEMKIFH@?$AAD?$AAe?$AAc?$AAe?$AAm?$AAb?$AAe?$AAr?$AA?$AA@ 000000018002ee10     LIBCMT:nlsdata.obj
 0002:00002e24       ??_C@_15ODEHAHHF@?$AAA?$AAM?$AA?$AA@ 000000018002ee24     LIBCMT:nlsdata.obj
 0002:00002e2c       ??_C@_15CLMNNGEL@?$AAP?$AAM?$AA?$AA@ 000000018002ee2c     LIBCMT:nlsdata.obj
 0002:00002e38       ??_C@_1BC@IEBCMHCM@?$AAM?$AAM?$AA?1?$AAd?$AAd?$AA?1?$AAy?$AAy?$AA?$AA@ 000000018002ee38     LIBCMT:nlsdata.obj
 0002:00002e50       ??_C@_1CI@KNAKOEBC@?$AAd?$AAd?$AAd?$AAd?$AA?0?$AA?5?$AAM?$AAM?$AAM?$AAM?$AA?5?$AAd?$AAd?$AA?0?$AA?5?$AAy?$AAy?$AAy?$AAy?$AA?$AA@ 000000018002ee50     LIBCMT:nlsdata.obj
 0002:00002e78       ??_C@_1BC@GDGBMEMK@?$AAH?$AAH?$AA?3?$AAm?$AAm?$AA?3?$AAs?$AAs?$AA?$AA@ 000000018002ee78     LIBCMT:nlsdata.obj
 0002:00002e90       ??_C@_1M@BMHNFIME@?$AAe?$AAn?$AA?9?$AAU?$AAS?$AA?$AA@ 000000018002ee90     LIBCMT:nlsdata.obj
 0002:00002f20       _XcptActTab                000000018002ef20     LIBCMT:winxfltr.obj
 0002:00002fe0       _XcptActTabCount           000000018002efe0     LIBCMT:winxfltr.obj
 0002:00002fe4       _XcptActTabSize            000000018002efe4     LIBCMT:winxfltr.obj
 0002:00002fe8       _First_FPE_Indx            000000018002efe8     LIBCMT:winxfltr.obj
 0002:00002fec       _Num_FPE                   000000018002efec     LIBCMT:winxfltr.obj
 0002:00002ff0       ??_C@_1BK@MGMFAEKH@?$AAk?$AAe?$AAr?$AAn?$AAe?$AAl?$AA3?$AA2?$AA?4?$AAd?$AAl?$AAl?$AA?$AA@ 000000018002eff0     LIBCMT:winapisupp.obj
 0002:00003010       ??_C@_08KNHFBNJ@FlsAlloc?$AA@ 000000018002f010     LIBCMT:winapisupp.obj
 0002:00003020       ??_C@_07PEJMOBNF@FlsFree?$AA@ 000000018002f020     LIBCMT:winapisupp.obj
 0002:00003028       ??_C@_0M@GDNOONDI@FlsGetValue?$AA@ 000000018002f028     LIBCMT:winapisupp.obj
 0002:00003038       ??_C@_0M@JCPCPOEF@FlsSetValue?$AA@ 000000018002f038     LIBCMT:winapisupp.obj
 0002:00003048       ??_C@_0BM@HCFOFFN@InitializeCriticalSectionEx?$AA@ 000000018002f048     LIBCMT:winapisupp.obj
 0002:00003068       ??_C@_0P@DLHPPCNH@CreateEventExW?$AA@ 000000018002f068     LIBCMT:winapisupp.obj
 0002:00003078       ??_C@_0BD@KIEEOEEH@CreateSemaphoreExW?$AA@ 000000018002f078     LIBCMT:winapisupp.obj
 0002:00003090       ??_C@_0BI@BKLFFAPO@SetThreadStackGuarantee?$AA@ 000000018002f090     LIBCMT:winapisupp.obj
 0002:000030a8       ??_C@_0BG@OGFAJCKC@CreateThreadpoolTimer?$AA@ 000000018002f0a8     LIBCMT:winapisupp.obj
 0002:000030c0       ??_C@_0BD@LPLEMMDI@SetThreadpoolTimer?$AA@ 000000018002f0c0     LIBCMT:winapisupp.obj
 0002:000030d8       ??_C@_0CA@FMNJENH@WaitForThreadpoolTimerCallbacks?$AA@ 000000018002f0d8     LIBCMT:winapisupp.obj
 0002:000030f8       ??_C@_0BF@DCFCCNOC@CloseThreadpoolTimer?$AA@ 000000018002f0f8     LIBCMT:winapisupp.obj
 0002:00003110       ??_C@_0BF@FLABGKKM@CreateThreadpoolWait?$AA@ 000000018002f110     LIBCMT:winapisupp.obj
 0002:00003128       ??_C@_0BC@MGCOHNA@SetThreadpoolWait?$AA@ 000000018002f128     LIBCMT:winapisupp.obj
 0002:00003140       ??_C@_0BE@OCIOMIMP@CloseThreadpoolWait?$AA@ 000000018002f140     LIBCMT:winapisupp.obj
 0002:00003158       ??_C@_0BJ@LKGHFHBO@FlushProcessWriteBuffers?$AA@ 000000018002f158     LIBCMT:winapisupp.obj
 0002:00003178       ??_C@_0BP@KALKKPMO@FreeLibraryWhenCallbackReturns?$AA@ 000000018002f178     LIBCMT:winapisupp.obj
 0002:00003198       ??_C@_0BK@DFNBACLA@GetCurrentProcessorNumber?$AA@ 000000018002f198     LIBCMT:winapisupp.obj
 0002:000031b8       ??_C@_0BP@KHGALBC@GetLogicalProcessorInformation?$AA@ 000000018002f1b8     LIBCMT:winapisupp.obj
 0002:000031d8       ??_C@_0BE@FKKLLFLM@CreateSymbolicLinkW?$AA@ 000000018002f1d8     LIBCMT:winapisupp.obj
 0002:000031f0       ??_C@_0BJ@OHNKDLIJ@SetDefaultDllDirectories?$AA@ 000000018002f1f0     LIBCMT:winapisupp.obj
 0002:00003210       ??_C@_0BE@LJANKFHF@EnumSystemLocalesEx?$AA@ 000000018002f210     LIBCMT:winapisupp.obj
 0002:00003228       ??_C@_0BA@IHGNDAEB@CompareStringEx?$AA@ 000000018002f228     LIBCMT:winapisupp.obj
 0002:00003238       ??_C@_0BA@EPCJIIPD@GetDateFormatEx?$AA@ 000000018002f238     LIBCMT:winapisupp.obj
 0002:00003248       ??_C@_0BA@ONOKGCMP@GetLocaleInfoEx?$AA@ 000000018002f248     LIBCMT:winapisupp.obj
 0002:00003258       ??_C@_0BA@CIJJKCJJ@GetTimeFormatEx?$AA@ 000000018002f258     LIBCMT:winapisupp.obj
 0002:00003268       ??_C@_0BJ@PBCCBIPI@GetUserDefaultLocaleName?$AA@ 000000018002f268     LIBCMT:winapisupp.obj
 0002:00003288       ??_C@_0BC@CELBKLLA@IsValidLocaleName?$AA@ 000000018002f288     LIBCMT:winapisupp.obj
 0002:000032a0       ??_C@_0O@KKBNKAPF@LCMapStringEx?$AA@ 000000018002f2a0     LIBCMT:winapisupp.obj
 0002:000032b0       ??_C@_0BE@JOGNEJCI@GetCurrentPackageId?$AA@ 000000018002f2b0     LIBCMT:winapisupp.obj
 0002:000032c8       ??_C@_0P@CDHHOHKP@GetTickCount64?$AA@ 000000018002f2c8     LIBCMT:winapisupp.obj
 0002:000032d8       ??_C@_0BO@KPCLFDJJ@GetFileInformationByHandleExW?$AA@ 000000018002f2d8     LIBCMT:winapisupp.obj
 0002:000032f8       ??_C@_0BM@MHIDLABK@SetFileInformationByHandleW?$AA@ 000000018002f2f8     LIBCMT:winapisupp.obj
 0002:00003318       _pDestructExceptionObject  000000018002f318     LIBCMT:frame.obj
 0002:00003328       ??_7bad_exception@std@@6B@ 000000018002f328     LIBCMT:frame.obj
 0002:00003338       ??_C@_0O@DPKOEFFH@bad?5exception?$AA@ 000000018002f338     LIBCMT:frame.obj
 0002:00003348       ??_C@_05KLBDPFGC@e?$CL000?$AA@ 000000018002f348     LIBCMT:cvt.obj
 0002:00003350       __real@0000000000000000    000000018002f350     LIBCMT:cvt.obj
 0002:00003360       LcidToLocaleNameTable      000000018002f360     LIBCMT:winapinls.obj
 0002:000041a0       LocaleNameToIndexTable     00000001800301a0     LIBCMT:winapinls.obj
 0002:00004fe0       ??_C@_15EMKDOKLE@?$AAa?$AAr?$AA?$AA@ 0000000180030fe0     LIBCMT:winapinls.obj
 0002:00004fe8       ??_C@_15KNPADPLH@?$AAb?$AAg?$AA?$AA@ 0000000180030fe8     LIBCMT:winapinls.obj
 0002:00004ff0       ??_C@_15EDMHLDMO@?$AAc?$AAa?$AA?$AA@ 0000000180030ff0     LIBCMT:winapinls.obj
 0002:00004ff8       ??_C@_1O@BPEAJADD@?$AAz?$AAh?$AA?9?$AAC?$AAH?$AAS?$AA?$AA@ 0000000180030ff8     LIBCMT:winapinls.obj
 0002:00005008       ??_C@_15LJNHCMNK@?$AAc?$AAs?$AA?$AA@ 0000000180031008     LIBCMT:winapinls.obj
 0002:00005010       ??_C@_15FOMCIDHG@?$AAd?$AAa?$AA?$AA@ 0000000180031010     LIBCMT:winapinls.obj
 0002:00005018       ??_C@_15NBKABECB@?$AAd?$AAe?$AA?$AA@ 0000000180031018     LIBCMT:winapinls.obj
 0002:00005020       ??_C@_15GHPEIIAO@?$AAe?$AAl?$AA?$AA@ 0000000180031020     LIBCMT:winapinls.obj
 0002:00005028       ??_C@_15MNPNEAIF@?$AAe?$AAn?$AA?$AA@ 0000000180031028     LIBCMT:winapinls.obj
 0002:00005030       ??_C@_15GPIOMPMH@?$AAe?$AAs?$AA?$AA@ 0000000180031030     LIBCMT:winapinls.obj
 0002:00005038       ??_C@_15NGLOAKJC@?$AAf?$AAi?$AA?$AA@ 0000000180031038     LIBCMT:winapinls.obj
 0002:00005040       ??_C@_15FBKGNKAM@?$AAf?$AAr?$AA?$AA@ 0000000180031040     LIBCMT:winapinls.obj
 0002:00005048       ??_C@_15KGGCNEFK@?$AAh?$AAe?$AA?$AA@ 0000000180031048     LIBCMT:winapinls.obj
 0002:00005050       ??_C@_15PGHLIDMF@?$AAh?$AAu?$AA?$AA@ 0000000180031050     LIBCMT:winapinls.obj
 0002:00005058       ??_C@_15BIEMAPLM@?$AAi?$AAs?$AA?$AA@ 0000000180031058     LIBCMT:winapinls.obj
 0002:00005060       ??_C@_15IFJLDHAF@?$AAi?$AAt?$AA?$AA@ 0000000180031060     LIBCMT:winapinls.obj
 0002:00005068       ??_C@_15GEMIOCAG@?$AAj?$AAa?$AA?$AA@ 0000000180031068     LIBCMT:winapinls.obj
 0002:00005070       ??_C@_15EPELEGJA@?$AAk?$AAo?$AA?$AA@ 0000000180031070     LIBCMT:winapinls.obj
 0002:00005078       ??_C@_15NDDHIMN@?$AAn?$AAl?$AA?$AA@ 0000000180031078     LIBCMT:winapinls.obj
 0002:00005080       ??_C@_15BPIGNHCD@?$AAn?$AAo?$AA?$AA@ 0000000180031080     LIBCMT:winapinls.obj
 0002:00005088       ??_C@_15DEOPBLCG@?$AAp?$AAl?$AA?$AA@ 0000000180031088     LIBCMT:winapinls.obj
 0002:00005090       ??_C@_15KBECGEFG@?$AAp?$AAt?$AA?$AA@ 0000000180031090     LIBCMT:winapinls.obj
 0002:00005098       ??_C@_15GLJCBFMD@?$AAr?$AAo?$AA?$AA@ 0000000180031098     LIBCMT:winapinls.obj
 0002:000050a0       ??_C@_15FEDGKCDI@?$AAr?$AAu?$AA?$AA@ 00000001800310a0     LIBCMT:winapinls.obj
 0002:000050a8       ??_C@_15GLKMLLHM@?$AAh?$AAr?$AA?$AA@ 00000001800310a8     LIBCMT:winapinls.obj
 0002:000050b0       ??_C@_15CPKMFBDB@?$AAs?$AAk?$AA?$AA@ 00000001800310b0     LIBCMT:winapinls.obj
 0002:000050b8       ??_C@_15BAAIOGMK@?$AAs?$AAq?$AA?$AA@ 00000001800310b8     LIBCMT:winapinls.obj
 0002:000050c0       ??_C@_15INNPNOHD@?$AAs?$AAv?$AA?$AA@ 00000001800310c0     LIBCMT:winapinls.obj
 0002:000050c8       ??_C@_15CABMMOGH@?$AAt?$AAh?$AA?$AA@ 00000001800310c8     LIBCMT:winapinls.obj
 0002:000050d0       ??_C@_15BPLIHJJM@?$AAt?$AAr?$AA?$AA@ 00000001800310d0     LIBCMT:winapinls.obj
 0002:000050d8       ??_C@_15NEOEKKDJ@?$AAu?$AAr?$AA?$AA@ 00000001800310d8     LIBCMT:winapinls.obj
 0002:000050e0       ??_C@_15NFICGAJK@?$AAi?$AAd?$AA?$AA@ 00000001800310e0     LIBCMT:winapinls.obj
 0002:000050e8       ??_C@_15PJPFLCCM@?$AAu?$AAk?$AA?$AA@ 00000001800310e8     LIBCMT:winapinls.obj
 0002:000050f0       ??_C@_15HPJPHDM@?$AAb?$AAe?$AA?$AA@ 00000001800310f0     LIBCMT:winapinls.obj
 0002:000050f8       ??_C@_15LCHLGJII@?$AAs?$AAl?$AA?$AA@ 00000001800310f8     LIBCMT:winapinls.obj
 0002:00005100       ??_C@_15PCFJPHHO@?$AAe?$AAt?$AA?$AA@ 0000000180031100     LIBCMT:winapinls.obj
 0002:00005108       ??_C@_15HPFPGODN@?$AAl?$AAv?$AA?$AA@ 0000000180031108     LIBCMT:winapinls.obj
 0002:00005110       ??_C@_15NFFGKGLG@?$AAl?$AAt?$AA?$AA@ 0000000180031110     LIBCMT:winapinls.obj
 0002:00005118       ??_C@_15BDAKCCHN@?$AAf?$AAa?$AA?$AA@ 0000000180031118     LIBCMT:winapinls.obj
 0002:00005120       ??_C@_15NFGIAIAJ@?$AAv?$AAi?$AA?$AA@ 0000000180031120     LIBCMT:winapinls.obj
 0002:00005128       ??_C@_15LMKNDMHN@?$AAh?$AAy?$AA?$AA@ 0000000180031128     LIBCMT:winapinls.obj
 0002:00005130       ??_C@_15IJBHMCFL@?$AAa?$AAz?$AA?$AA@ 0000000180031130     LIBCMT:winapinls.obj
 0002:00005138       ??_C@_15EKOFJABL@?$AAe?$AAu?$AA?$AA@ 0000000180031138     LIBCMT:winapinls.obj
 0002:00005140       ??_C@_15BGHADCNK@?$AAm?$AAk?$AA?$AA@ 0000000180031140     LIBCMT:winapinls.obj
 0002:00005148       ??_C@_15JDNICKHM@?$AAa?$AAf?$AA?$AA@ 0000000180031148     LIBCMT:winapinls.obj
 0002:00005150       ??_C@_15KPJEDBKD@?$AAk?$AAa?$AA?$AA@ 0000000180031150     LIBCMT:winapinls.obj
 0002:00005158       ??_C@_15PDNFFFEO@?$AAf?$AAo?$AA?$AA@ 0000000180031158     LIBCMT:winapinls.obj
 0002:00005160       ??_C@_15OMLEGLOC@?$AAh?$AAi?$AA?$AA@ 0000000180031160     LIBCMT:winapinls.obj
 0002:00005168       ??_C@_15IDNNENKK@?$AAm?$AAs?$AA?$AA@ 0000000180031168     LIBCMT:winapinls.obj
 0002:00005170       ??_C@_15MACJNBMH@?$AAk?$AAk?$AA?$AA@ 0000000180031170     LIBCMT:winapinls.obj
 0002:00005178       ??_C@_15DKDJEOND@?$AAk?$AAy?$AA?$AA@ 0000000180031178     LIBCMT:winapinls.obj
 0002:00005180       ??_C@_15DFGDLJBG@?$AAs?$AAw?$AA?$AA@ 0000000180031180     LIBCMT:winapinls.obj
 0002:00005188       ??_C@_15BBFAICNG@?$AAu?$AAz?$AA?$AA@ 0000000180031188     LIBCMT:winapinls.obj
 0002:00005190       ??_C@_15DKNDCGEA@?$AAt?$AAt?$AA?$AA@ 0000000180031190     LIBCMT:winapinls.obj
 0002:00005198       ??_C@_15MGIFMDPL@?$AAp?$AAa?$AA?$AA@ 0000000180031198     LIBCMT:winapinls.obj
 0002:000051a0       ??_C@_15HCNDBBA@?$AAg?$AAu?$AA?$AA@ 00000001800311a0     LIBCMT:winapinls.obj
 0002:000051a8       ??_C@_15FNBEIBON@?$AAt?$AAa?$AA?$AA@ 00000001800311a8     LIBCMT:winapinls.obj
 0002:000051b0       ??_C@_15NCHGBGLK@?$AAt?$AAe?$AA?$AA@ 00000001800311b0     LIBCMT:winapinls.obj
 0002:000051b8       ??_C@_15PHPHCBPF@?$AAk?$AAn?$AA?$AA@ 00000001800311b8     LIBCMT:winapinls.obj
 0002:000051c0       ??_C@_15DLGBCKMP@?$AAm?$AAr?$AA?$AA@ 00000001800311c0     LIBCMT:winapinls.obj
 0002:000051c8       ??_C@_15EABBLBFF@?$AAs?$AAa?$AA?$AA@ 00000001800311c8     LIBCMT:winapinls.obj
 0002:000051d0       ??_C@_15CBKOMCOI@?$AAm?$AAn?$AA?$AA@ 00000001800311d0     LIBCMT:winapinls.obj
 0002:000051d8       ??_C@_15CKDMCJAF@?$AAg?$AAl?$AA?$AA@ 00000001800311d8     LIBCMT:winapinls.obj
 0002:000051e0       ??_C@_17CNJFBPG@?$AAk?$AAo?$AAk?$AA?$AA@ 00000001800311e0     LIBCMT:winapinls.obj
 0002:000051e8       ??_C@_17FFBJICPL@?$AAs?$AAy?$AAr?$AA?$AA@ 00000001800311e8     LIBCMT:winapinls.obj
 0002:000051f0       ??_C@_17KPNDCPAF@?$AAd?$AAi?$AAv?$AA?$AA@ 00000001800311f0     LIBCMT:winapinls.obj
 0002:000051f8       ??_C@_11LOCGONAA@?$AA?$AA@ 00000001800311f8     LIBCMT:winapinls.obj
 0002:00005200       ??_C@_1M@OKAHONE@?$AAa?$AAr?$AA?9?$AAS?$AAA?$AA?$AA@ 0000000180031200     LIBCMT:winapinls.obj
 0002:00005210       ??_C@_1M@FFFIGIGK@?$AAb?$AAg?$AA?9?$AAB?$AAG?$AA?$AA@ 0000000180031210     LIBCMT:winapinls.obj
 0002:00005220       ??_C@_1M@BJNKEDC@?$AAc?$AAa?$AA?9?$AAE?$AAS?$AA?$AA@ 0000000180031220     LIBCMT:winapinls.obj
 0002:00005230       ??_C@_1M@IJJHFJHA@?$AAc?$AAs?$AA?9?$AAC?$AAZ?$AA?$AA@ 0000000180031230     LIBCMT:winapinls.obj
 0002:00005240       ??_C@_1M@CLPEOBGI@?$AAd?$AAa?$AA?9?$AAD?$AAK?$AA?$AA@ 0000000180031240     LIBCMT:winapinls.obj
 0002:00005250       ??_C@_1M@MCMADGCB@?$AAd?$AAe?$AA?9?$AAD?$AAE?$AA?$AA@ 0000000180031250     LIBCMT:winapinls.obj
 0002:00005260       ??_C@_1M@OOCKEMAM@?$AAe?$AAl?$AA?9?$AAG?$AAR?$AA?$AA@ 0000000180031260     LIBCMT:winapinls.obj
 0002:00005270       ??_C@_1M@DDNJFGID@?$AAf?$AAi?$AA?9?$AAF?$AAI?$AA?$AA@ 0000000180031270     LIBCMT:winapinls.obj
 0002:00005280       ??_C@_1M@GLIPPMAC@?$AAf?$AAr?$AA?9?$AAF?$AAR?$AA?$AA@ 0000000180031280     LIBCMT:winapinls.obj
 0002:00005290       ??_C@_1M@GFMCHPE@?$AAh?$AAe?$AA?9?$AAI?$AAL?$AA?$AA@ 0000000180031290     LIBCMT:winapinls.obj
 0002:000052a0       ??_C@_1M@MHLPGNKM@?$AAh?$AAu?$AA?9?$AAH?$AAU?$AA?$AA@ 00000001800312a0     LIBCMT:winapinls.obj
 0002:000052b0       ??_C@_1M@LPDDNNPN@?$AAi?$AAs?$AA?9?$AAI?$AAS?$AA?$AA@ 00000001800312b0     LIBCMT:winapinls.obj
 0002:000052c0       ??_C@_1M@MADIPODN@?$AAi?$AAt?$AA?9?$AAI?$AAT?$AA?$AA@ 00000001800312c0     LIBCMT:winapinls.obj
 0002:000052d0       ??_C@_1M@IHBJJGG@?$AAn?$AAl?$AA?9?$AAN?$AAL?$AA?$AA@ 00000001800312d0     LIBCMT:winapinls.obj
 0002:000052e0       ??_C@_1M@EANAGDL@?$AAn?$AAb?$AA?9?$AAN?$AAO?$AA?$AA@ 00000001800312e0     LIBCMT:winapinls.obj
 0002:000052f0       ??_C@_1M@NEIEMEGP@?$AAp?$AAl?$AA?9?$AAP?$AAL?$AA?$AA@ 00000001800312f0     LIBCMT:winapinls.obj
 0002:00005300       ??_C@_1M@BOCFIGEP@?$AAp?$AAt?$AA?9?$AAB?$AAR?$AA?$AA@ 0000000180031300     LIBCMT:winapinls.obj
 0002:00005310       ??_C@_1M@IMPFOPBG@?$AAr?$AAo?$AA?9?$AAR?$AAO?$AA?$AA@ 0000000180031310     LIBCMT:winapinls.obj
 0002:00005320       ??_C@_1M@IDNNEJMM@?$AAr?$AAu?$AA?9?$AAR?$AAU?$AA?$AA@ 0000000180031320     LIBCMT:winapinls.obj
 0002:00005330       ??_C@_1M@LILEEOGM@?$AAh?$AAr?$AA?9?$AAH?$AAR?$AA?$AA@ 0000000180031330     LIBCMT:winapinls.obj
 0002:00005340       ??_C@_1M@FKIFEHPB@?$AAs?$AAk?$AA?9?$AAS?$AAK?$AA?$AA@ 0000000180031340     LIBCMT:winapinls.obj
 0002:00005350       ??_C@_1M@LJMAMNPJ@?$AAs?$AAq?$AA?9?$AAA?$AAL?$AA?$AA@ 0000000180031350     LIBCMT:winapinls.obj
 0002:00005360       ??_C@_1M@GIAKDKJK@?$AAs?$AAv?$AA?9?$AAS?$AAE?$AA?$AA@ 0000000180031360     LIBCMT:winapinls.obj
 0002:00005370       ??_C@_1M@MKJKIKCL@?$AAt?$AAh?$AA?9?$AAT?$AAH?$AA?$AA@ 0000000180031370     LIBCMT:winapinls.obj
 0002:00005380       ??_C@_1M@MFLCCMPB@?$AAt?$AAr?$AA?9?$AAT?$AAR?$AA?$AA@ 0000000180031380     LIBCMT:winapinls.obj
 0002:00005390       ??_C@_1M@OIJHDKJN@?$AAu?$AAr?$AA?9?$AAP?$AAK?$AA?$AA@ 0000000180031390     LIBCMT:winapinls.obj
 0002:000053a0       ??_C@_1M@LHIPCIEK@?$AAi?$AAd?$AA?9?$AAI?$AAD?$AA?$AA@ 00000001800313a0     LIBCMT:winapinls.obj
 0002:000053b0       ??_C@_1M@MFMOBGI@?$AAu?$AAk?$AA?9?$AAU?$AAA?$AA?$AA@ 00000001800313b0     LIBCMT:winapinls.obj
 0002:000053c0       ??_C@_1M@OBGLJIPL@?$AAb?$AAe?$AA?9?$AAB?$AAY?$AA?$AA@ 00000001800313c0     LIBCMT:winapinls.obj
 0002:000053d0       ??_C@_1M@BCFAJEAD@?$AAs?$AAl?$AA?9?$AAS?$AAI?$AA?$AA@ 00000001800313d0     LIBCMT:winapinls.obj
 0002:000053e0       ??_C@_1M@FKFFEDDN@?$AAe?$AAt?$AA?9?$AAE?$AAE?$AA?$AA@ 00000001800313e0     LIBCMT:winapinls.obj
 0002:000053f0       ??_C@_1M@KGKKAACI@?$AAl?$AAv?$AA?9?$AAL?$AAV?$AA?$AA@ 00000001800313f0     LIBCMT:winapinls.obj
 0002:00005400       ??_C@_1M@IFGBIJO@?$AAl?$AAt?$AA?9?$AAL?$AAT?$AA?$AA@ 0000000180031400     LIBCMT:winapinls.obj
 0002:00005410       ??_C@_1M@FGEAHEDM@?$AAf?$AAa?$AA?9?$AAI?$AAR?$AA?$AA@ 0000000180031410     LIBCMT:winapinls.obj
 0002:00005420       ??_C@_1M@KBMAIBFN@?$AAv?$AAi?$AA?9?$AAV?$AAN?$AA?$AA@ 0000000180031420     LIBCMT:winapinls.obj
 0002:00005430       ??_C@_1M@GPCBKDJK@?$AAh?$AAy?$AA?9?$AAA?$AAM?$AA?$AA@ 0000000180031430     LIBCMT:winapinls.obj
 0002:00005440       ??_C@_1BG@BECMDDJB@?$AAa?$AAz?$AA?9?$AAA?$AAZ?$AA?9?$AAL?$AAa?$AAt?$AAn?$AA?$AA@ 0000000180031440     LIBCMT:winapinls.obj
 0002:00005458       ??_C@_1M@MAOFCAEA@?$AAe?$AAu?$AA?9?$AAE?$AAS?$AA?$AA@ 0000000180031458     LIBCMT:winapinls.obj
 0002:00005468       ??_C@_1M@IGHABKPI@?$AAm?$AAk?$AA?9?$AAM?$AAK?$AA?$AA@ 0000000180031468     LIBCMT:winapinls.obj
 0002:00005478       ??_C@_1M@IAIGNEJG@?$AAt?$AAn?$AA?9?$AAZ?$AAA?$AA?$AA@ 0000000180031478     LIBCMT:winapinls.obj
 0002:00005488       ??_C@_1M@IIJCOJFA@?$AAx?$AAh?$AA?9?$AAZ?$AAA?$AA?$AA@ 0000000180031488     LIBCMT:winapinls.obj
 0002:00005498       ??_C@_1M@LGPJHNJH@?$AAz?$AAu?$AA?9?$AAZ?$AAA?$AA?$AA@ 0000000180031498     LIBCMT:winapinls.obj
 0002:000054a8       ??_C@_1M@HOKAOIO@?$AAa?$AAf?$AA?9?$AAZ?$AAA?$AA?$AA@ 00000001800314a8     LIBCMT:winapinls.obj
 0002:000054b8       ??_C@_1M@DPCLHLIE@?$AAk?$AAa?$AA?9?$AAG?$AAE?$AA?$AA@ 00000001800314b8     LIBCMT:winapinls.obj
 0002:000054c8       ??_C@_1M@BLKMHJBI@?$AAf?$AAo?$AA?9?$AAF?$AAO?$AA?$AA@ 00000001800314c8     LIBCMT:winapinls.obj
 0002:000054d8       ??_C@_1M@LGGJAPPB@?$AAh?$AAi?$AA?9?$AAI?$AAN?$AA?$AA@ 00000001800314d8     LIBCMT:winapinls.obj
 0002:000054e8       ??_C@_1M@FIKPIHFE@?$AAm?$AAt?$AA?9?$AAM?$AAT?$AA?$AA@ 00000001800314e8     LIBCMT:winapinls.obj
 0002:000054f8       ??_C@_1M@HEGGPBFA@?$AAs?$AAe?$AA?9?$AAN?$AAO?$AA?$AA@ 00000001800314f8     LIBCMT:winapinls.obj
 0002:00005508       ??_C@_1M@EIBJEEPA@?$AAm?$AAs?$AA?9?$AAM?$AAY?$AA?$AA@ 0000000180031508     LIBCMT:winapinls.obj
 0002:00005518       ??_C@_1M@FHLBGMPP@?$AAk?$AAk?$AA?9?$AAK?$AAZ?$AA?$AA@ 0000000180031518     LIBCMT:winapinls.obj
 0002:00005528       ??_C@_1M@NGJJLCGI@?$AAk?$AAy?$AA?9?$AAK?$AAG?$AA?$AA@ 0000000180031528     LIBCMT:winapinls.obj
 0002:00005538       ??_C@_1M@GIENNBFC@?$AAs?$AAw?$AA?9?$AAK?$AAE?$AA?$AA@ 0000000180031538     LIBCMT:winapinls.obj
 0002:00005548       ??_C@_1BG@NDGMJIMJ@?$AAu?$AAz?$AA?9?$AAU?$AAZ?$AA?9?$AAL?$AAa?$AAt?$AAn?$AA?$AA@ 0000000180031548     LIBCMT:winapinls.obj
 0002:00005560       ??_C@_1M@IDCCIHBC@?$AAt?$AAt?$AA?9?$AAR?$AAU?$AA?$AA@ 0000000180031560     LIBCMT:winapinls.obj
 0002:00005570       ??_C@_1M@LOICPMOJ@?$AAb?$AAn?$AA?9?$AAI?$AAN?$AA?$AA@ 0000000180031570     LIBCMT:winapinls.obj
 0002:00005580       ??_C@_1M@KPKKNEAH@?$AAp?$AAa?$AA?9?$AAI?$AAN?$AA?$AA@ 0000000180031580     LIBCMT:winapinls.obj
 0002:00005590       ??_C@_1M@PJGPPBOG@?$AAg?$AAu?$AA?9?$AAI?$AAN?$AA?$AA@ 0000000180031590     LIBCMT:winapinls.obj
 0002:000055a0       ??_C@_1M@KMKMOPHI@?$AAt?$AAa?$AA?9?$AAI?$AAN?$AA?$AA@ 00000001800315a0     LIBCMT:winapinls.obj
 0002:000055b0       ??_C@_1M@KFEHEPAC@?$AAt?$AAe?$AA?9?$AAI?$AAN?$AA?$AA@ 00000001800315b0     LIBCMT:winapinls.obj
 0002:000055c0       ??_C@_1M@CDCLMGHI@?$AAk?$AAn?$AA?9?$AAI?$AAN?$AA?$AA@ 00000001800315c0     LIBCMT:winapinls.obj
 0002:000055d0       ??_C@_1M@MIODLDKF@?$AAm?$AAl?$AA?9?$AAI?$AAN?$AA?$AA@ 00000001800315d0     LIBCMT:winapinls.obj
 0002:000055e0       ??_C@_1M@PBIEACPO@?$AAm?$AAr?$AA?9?$AAI?$AAN?$AA?$AA@ 00000001800315e0     LIBCMT:winapinls.obj
 0002:000055f0       ??_C@_1M@NIDEAGPH@?$AAs?$AAa?$AA?9?$AAI?$AAN?$AA?$AA@ 00000001800315f0     LIBCMT:winapinls.obj
 0002:00005600       ??_C@_1M@FHIHCBIO@?$AAm?$AAn?$AA?9?$AAM?$AAN?$AA?$AA@ 0000000180031600     LIBCMT:winapinls.obj
 0002:00005610       ??_C@_1M@JAIJPENP@?$AAc?$AAy?$AA?9?$AAG?$AAB?$AA?$AA@ 0000000180031610     LIBCMT:winapinls.obj
 0002:00005620       ??_C@_1M@PHGFBEPN@?$AAg?$AAl?$AA?9?$AAE?$AAS?$AA?$AA@ 0000000180031620     LIBCMT:winapinls.obj
 0002:00005630       ??_C@_1O@KPIPDNCP@?$AAk?$AAo?$AAk?$AA?9?$AAI?$AAN?$AA?$AA@ 0000000180031630     LIBCMT:winapinls.obj
 0002:00005640       ??_C@_1O@KNHJLDJA@?$AAs?$AAy?$AAr?$AA?9?$AAS?$AAY?$AA?$AA@ 0000000180031640     LIBCMT:winapinls.obj
 0002:00005650       ??_C@_1O@MKEKBLAH@?$AAd?$AAi?$AAv?$AA?9?$AAM?$AAV?$AA?$AA@ 0000000180031650     LIBCMT:winapinls.obj
 0002:00005660       ??_C@_1O@OHDCKDDF@?$AAq?$AAu?$AAz?$AA?9?$AAB?$AAO?$AA?$AA@ 0000000180031660     LIBCMT:winapinls.obj
 0002:00005670       ??_C@_1M@LEPJNLFD@?$AAn?$AAs?$AA?9?$AAZ?$AAA?$AA?$AA@ 0000000180031670     LIBCMT:winapinls.obj
 0002:00005680       ??_C@_1M@OMLEIIJB@?$AAm?$AAi?$AA?9?$AAN?$AAZ?$AA?$AA@ 0000000180031680     LIBCMT:winapinls.obj
 0002:00005690       ??_C@_1M@PMPEAILG@?$AAa?$AAr?$AA?9?$AAI?$AAQ?$AA?$AA@ 0000000180031690     LIBCMT:winapinls.obj
 0002:000056a0       ??_C@_1M@CNKPNOEE@?$AAd?$AAe?$AA?9?$AAC?$AAH?$AA?$AA@ 00000001800316a0     LIBCMT:winapinls.obj
 0002:000056b0       ??_C@_1M@LKMGMLKO@?$AAe?$AAn?$AA?9?$AAG?$AAB?$AA?$AA@ 00000001800316b0     LIBCMT:winapinls.obj
 0002:000056c0       ??_C@_1M@PGKJFFGL@?$AAe?$AAs?$AA?9?$AAM?$AAX?$AA?$AA@ 00000001800316c0     LIBCMT:winapinls.obj
 0002:000056d0       ??_C@_1M@DNNANBDC@?$AAf?$AAr?$AA?9?$AAB?$AAE?$AA?$AA@ 00000001800316d0     LIBCMT:winapinls.obj
 0002:000056e0       ??_C@_1M@HLGMDFHM@?$AAi?$AAt?$AA?9?$AAC?$AAH?$AA?$AA@ 00000001800316e0     LIBCMT:winapinls.obj
 0002:000056f0       ??_C@_1M@CLLBGJH@?$AAn?$AAl?$AA?9?$AAB?$AAE?$AA?$AA@ 00000001800316f0     LIBCMT:winapinls.obj
 0002:00005700       ??_C@_1M@BODBOGLF@?$AAn?$AAn?$AA?9?$AAN?$AAO?$AA?$AA@ 0000000180031700     LIBCMT:winapinls.obj
 0002:00005710       ??_C@_1M@HFFAHKAD@?$AAp?$AAt?$AA?9?$AAP?$AAT?$AA?$AA@ 0000000180031710     LIBCMT:winapinls.obj
 0002:00005720       ??_C@_1BG@LNOAKHIE@?$AAs?$AAr?$AA?9?$AAS?$AAP?$AA?9?$AAL?$AAa?$AAt?$AAn?$AA?$AA@ 0000000180031720     LIBCMT:winapinls.obj
 0002:00005738       ??_C@_1M@HBMHBGAK@?$AAs?$AAv?$AA?9?$AAF?$AAI?$AA?$AA@ 0000000180031738     LIBCMT:winapinls.obj
 0002:00005748       ??_C@_1BG@DGCJGJBE@?$AAa?$AAz?$AA?9?$AAA?$AAZ?$AA?9?$AAC?$AAy?$AAr?$AAl?$AA?$AA@ 0000000180031748     LIBCMT:winapinls.obj
 0002:00005760       ??_C@_1M@KEJDAAHB@?$AAs?$AAe?$AA?9?$AAS?$AAE?$AA?$AA@ 0000000180031760     LIBCMT:winapinls.obj
 0002:00005770       ??_C@_1M@HEIBJJAD@?$AAm?$AAs?$AA?9?$AAB?$AAN?$AA?$AA@ 0000000180031770     LIBCMT:winapinls.obj
 0002:00005780       ??_C@_1BG@PBGJMCEM@?$AAu?$AAz?$AA?9?$AAU?$AAZ?$AA?9?$AAC?$AAy?$AAr?$AAl?$AA?$AA@ 0000000180031780     LIBCMT:winapinls.obj
 0002:00005798       ??_C@_1O@LAOBCMDF@?$AAq?$AAu?$AAz?$AA?9?$AAE?$AAC?$AA?$AA@ 0000000180031798     LIBCMT:winapinls.obj
 0002:000057a8       ??_C@_1M@POEEMAIO@?$AAa?$AAr?$AA?9?$AAE?$AAG?$AA?$AA@ 00000001800317a8     LIBCMT:winapinls.obj
 0002:000057b8       ??_C@_1M@EFAKDEDL@?$AAz?$AAh?$AA?9?$AAH?$AAK?$AA?$AA@ 00000001800317b8     LIBCMT:winapinls.obj
 0002:000057c8       ??_C@_1M@HKKIJHGI@?$AAd?$AAe?$AA?9?$AAA?$AAT?$AA?$AA@ 00000001800317c8     LIBCMT:winapinls.obj
 0002:000057d8       ??_C@_1M@KBFBEHJF@?$AAe?$AAn?$AA?9?$AAA?$AAU?$AA?$AA@ 00000001800317d8     LIBCMT:winapinls.obj
 0002:000057e8       ??_C@_1M@MNPLFAAH@?$AAe?$AAs?$AA?9?$AAE?$AAS?$AA?$AA@ 00000001800317e8     LIBCMT:winapinls.obj
 0002:000057f8       ??_C@_1M@HJOOJFMA@?$AAf?$AAr?$AA?9?$AAC?$AAA?$AA?$AA@ 00000001800317f8     LIBCMT:winapinls.obj
 0002:00005808       ??_C@_1BG@JPOFPNAB@?$AAs?$AAr?$AA?9?$AAS?$AAP?$AA?9?$AAC?$AAy?$AAr?$AAl?$AA?$AA@ 0000000180031808     LIBCMT:winapinls.obj
 0002:00005820       ??_C@_1M@LNFOCMOB@?$AAs?$AAe?$AA?9?$AAF?$AAI?$AA?$AA@ 0000000180031820     LIBCMT:winapinls.obj
 0002:00005830       ??_C@_1O@MGJBOAMB@?$AAq?$AAu?$AAz?$AA?9?$AAP?$AAE?$AA?$AA@ 0000000180031830     LIBCMT:winapinls.obj
 0002:00005840       ??_C@_1M@GJINLBOK@?$AAa?$AAr?$AA?9?$AAL?$AAY?$AA?$AA@ 0000000180031840     LIBCMT:winapinls.obj
 0002:00005850       ??_C@_1M@GGMNHJNL@?$AAz?$AAh?$AA?9?$AAS?$AAG?$AA?$AA@ 0000000180031850     LIBCMT:winapinls.obj
 0002:00005860       ??_C@_1M@HOIKODND@?$AAd?$AAe?$AA?9?$AAL?$AAU?$AA?$AA@ 0000000180031860     LIBCMT:winapinls.obj
 0002:00005870       ??_C@_1M@DDOCCGFG@?$AAe?$AAn?$AA?9?$AAC?$AAA?$AA?$AA@ 0000000180031870     LIBCMT:winapinls.obj
 0002:00005880       ??_C@_1M@BNOEMJLF@?$AAe?$AAs?$AA?9?$AAG?$AAT?$AA?$AA@ 0000000180031880     LIBCMT:winapinls.obj
 0002:00005890       ??_C@_1M@EOGNKEK@?$AAf?$AAr?$AA?9?$AAC?$AAH?$AA?$AA@ 0000000180031890     LIBCMT:winapinls.obj
 0002:000058a0       ??_C@_1M@FLIDJFHL@?$AAh?$AAr?$AA?9?$AAB?$AAA?$AA?$AA@ 00000001800318a0     LIBCMT:winapinls.obj
 0002:000058b0       ??_C@_1O@FMCELNAJ@?$AAs?$AAm?$AAj?$AA?9?$AAN?$AAO?$AA?$AA@ 00000001800318b0     LIBCMT:winapinls.obj
 0002:000058c0       ??_C@_1M@JHGLJMGJ@?$AAa?$AAr?$AA?9?$AAD?$AAZ?$AA?$AA@ 00000001800318c0     LIBCMT:winapinls.obj
 0002:000058d0       ??_C@_1M@JKKFDCNP@?$AAz?$AAh?$AA?9?$AAM?$AAO?$AA?$AA@ 00000001800318d0     LIBCMT:winapinls.obj
 0002:000058e0       ??_C@_1M@GEEFALPE@?$AAd?$AAe?$AA?9?$AAL?$AAI?$AA?$AA@ 00000001800318e0     LIBCMT:winapinls.obj
 0002:000058f0       ??_C@_1M@IGEOFBG@?$AAe?$AAn?$AA?9?$AAN?$AAZ?$AA?$AA@ 00000001800318f0     LIBCMT:winapinls.obj
 0002:00005900       ??_C@_1M@KDBONEHP@?$AAe?$AAs?$AA?9?$AAC?$AAR?$AA?$AA@ 0000000180031900     LIBCMT:winapinls.obj
 0002:00005910       ??_C@_1M@FHMDOHNN@?$AAf?$AAr?$AA?9?$AAL?$AAU?$AA?$AA@ 0000000180031910     LIBCMT:winapinls.obj
 0002:00005920       ??_C@_1BG@NFKKMAFG@?$AAb?$AAs?$AA?9?$AAB?$AAA?$AA?9?$AAL?$AAa?$AAt?$AAn?$AA?$AA@ 0000000180031920     LIBCMT:winapinls.obj
 0002:00005938       ??_C@_1O@IMNBEMCI@?$AAs?$AAm?$AAj?$AA?9?$AAS?$AAE?$AA?$AA@ 0000000180031938     LIBCMT:winapinls.obj
 0002:00005948       ??_C@_1M@DHHMBNDP@?$AAa?$AAr?$AA?9?$AAM?$AAA?$AA?$AA@ 0000000180031948     LIBCMT:winapinls.obj
 0002:00005958       ??_C@_1M@BNBLJCGH@?$AAe?$AAn?$AA?9?$AAI?$AAE?$AA?$AA@ 0000000180031958     LIBCMT:winapinls.obj
 0002:00005968       ??_C@_1M@GEPAFMDL@?$AAe?$AAs?$AA?9?$AAP?$AAA?$AA?$AA@ 0000000180031968     LIBCMT:winapinls.obj
 0002:00005978       ??_C@_1M@OJONDMDL@?$AAf?$AAr?$AA?9?$AAM?$AAC?$AA?$AA@ 0000000180031978     LIBCMT:winapinls.obj
 0002:00005988       ??_C@_1BG@OBCNFJB@?$AAs?$AAr?$AA?9?$AAB?$AAA?$AA?9?$AAL?$AAa?$AAt?$AAn?$AA?$AA@ 0000000180031988     LIBCMT:winapinls.obj
 0002:000059a0       ??_C@_1O@KEMEEGPO@?$AAs?$AAm?$AAa?$AA?9?$AAN?$AAO?$AA?$AA@ 00000001800319a0     LIBCMT:winapinls.obj
 0002:000059b0       ??_C@_1M@ELMGFODK@?$AAa?$AAr?$AA?9?$AAT?$AAN?$AA?$AA@ 00000001800319b0     LIBCMT:winapinls.obj
 0002:000059c0       ??_C@_1M@BHDLHFAF@?$AAe?$AAn?$AA?9?$AAZ?$AAA?$AA?$AA@ 00000001800319c0     LIBCMT:winapinls.obj
 0002:000059d0       ??_C@_1M@BMGIGLIF@?$AAe?$AAs?$AA?9?$AAD?$AAO?$AA?$AA@ 00000001800319d0     LIBCMT:winapinls.obj
 0002:000059e0       ??_C@_1BG@CMBHIPBE@?$AAs?$AAr?$AA?9?$AAB?$AAA?$AA?9?$AAC?$AAy?$AAr?$AAl?$AA?$AA@ 00000001800319e0     LIBCMT:winapinls.obj
 0002:000059f8       ??_C@_1O@HEDBLHNP@?$AAs?$AAm?$AAa?$AA?9?$AAS?$AAE?$AA?$AA@ 00000001800319f8     LIBCMT:winapinls.obj
 0002:00005a08       ??_C@_1M@DAGCADIM@?$AAa?$AAr?$AA?9?$AAO?$AAM?$AA?$AA@ 0000000180031a08     LIBCMT:winapinls.obj
 0002:00005a18       ??_C@_1M@FODLMICG@?$AAe?$AAn?$AA?9?$AAJ?$AAM?$AA?$AA@ 0000000180031a18     LIBCMT:winapinls.obj
 0002:00005a28       ??_C@_1M@DNMLCIHB@?$AAe?$AAs?$AA?9?$AAV?$AAE?$AA?$AA@ 0000000180031a28     LIBCMT:winapinls.obj
 0002:00005a38       ??_C@_1O@EOKHMKJK@?$AAs?$AAm?$AAs?$AA?9?$AAF?$AAI?$AA?$AA@ 0000000180031a38     LIBCMT:winapinls.obj
 0002:00005a48       ??_C@_1M@CAFJMKOF@?$AAa?$AAr?$AA?9?$AAY?$AAE?$AA?$AA@ 0000000180031a48     LIBCMT:winapinls.obj
 0002:00005a58       ??_C@_1M@CBFHIJLI@?$AAe?$AAn?$AA?9?$AAC?$AAB?$AA?$AA@ 0000000180031a58     LIBCMT:winapinls.obj
 0002:00005a68       ??_C@_1M@BGNFLDN@?$AAe?$AAs?$AA?9?$AAC?$AAO?$AA?$AA@ 0000000180031a68     LIBCMT:winapinls.obj
 0002:00005a78       ??_C@_1O@JMPHMAMC@?$AAs?$AAm?$AAn?$AA?9?$AAF?$AAI?$AA?$AA@ 0000000180031a78     LIBCMT:winapinls.obj
 0002:00005a88       ??_C@_1M@JLANABKE@?$AAa?$AAr?$AA?9?$AAS?$AAY?$AA?$AA@ 0000000180031a88     LIBCMT:winapinls.obj
 0002:00005a98       ??_C@_1M@HPKGCFGN@?$AAe?$AAn?$AA?9?$AAB?$AAZ?$AA?$AA@ 0000000180031a98     LIBCMT:winapinls.obj
 0002:00005aa8       ??_C@_1M@OLJCMLGM@?$AAe?$AAs?$AA?9?$AAP?$AAE?$AA?$AA@ 0000000180031aa8     LIBCMT:winapinls.obj
 0002:00005ab8       ??_C@_1M@MKKGFKLE@?$AAa?$AAr?$AA?9?$AAJ?$AAO?$AA?$AA@ 0000000180031ab8     LIBCMT:winapinls.obj
 0002:00005ac8       ??_C@_1M@EKPGLDNI@?$AAe?$AAn?$AA?9?$AAT?$AAT?$AA?$AA@ 0000000180031ac8     LIBCMT:winapinls.obj
 0002:00005ad8       ??_C@_1M@OONGHFHE@?$AAe?$AAs?$AA?9?$AAA?$AAR?$AA?$AA@ 0000000180031ad8     LIBCMT:winapinls.obj
 0002:00005ae8       ??_C@_1M@OOJFGBHE@?$AAa?$AAr?$AA?9?$AAL?$AAB?$AA?$AA@ 0000000180031ae8     LIBCMT:winapinls.obj
 0002:00005af8       ??_C@_1M@GCEJHNEG@?$AAe?$AAn?$AA?9?$AAZ?$AAW?$AA?$AA@ 0000000180031af8     LIBCMT:winapinls.obj
 0002:00005b08       ??_C@_1M@JNOCAHJI@?$AAe?$AAs?$AA?9?$AAE?$AAC?$AA?$AA@ 0000000180031b08     LIBCMT:winapinls.obj
 0002:00005b18       ??_C@_1M@JEFHPGGB@?$AAa?$AAr?$AA?9?$AAK?$AAW?$AA?$AA@ 0000000180031b18     LIBCMT:winapinls.obj
 0002:00005b28       ??_C@_1M@MLKIBJOJ@?$AAe?$AAn?$AA?9?$AAP?$AAH?$AA?$AA@ 0000000180031b28     LIBCMT:winapinls.obj
 0002:00005b38       ??_C@_1M@BDNIPEND@?$AAe?$AAs?$AA?9?$AAC?$AAL?$AA?$AA@ 0000000180031b38     LIBCMT:winapinls.obj
 0002:00005b48       ??_C@_1M@MPNMEKBD@?$AAa?$AAr?$AA?9?$AAA?$AAE?$AA?$AA@ 0000000180031b48     LIBCMT:winapinls.obj
 0002:00005b58       ??_C@_1M@KBJALCPI@?$AAe?$AAs?$AA?9?$AAU?$AAY?$AA?$AA@ 0000000180031b58     LIBCMT:winapinls.obj
 0002:00005b68       ??_C@_1M@LLCCOAGA@?$AAa?$AAr?$AA?9?$AAB?$AAH?$AA?$AA@ 0000000180031b68     LIBCMT:winapinls.obj
 0002:00005b78       ??_C@_1M@PBFNCDEL@?$AAe?$AAs?$AA?9?$AAP?$AAY?$AA?$AA@ 0000000180031b78     LIBCMT:winapinls.obj
 0002:00005b88       ??_C@_1M@EDGINPNP@?$AAa?$AAr?$AA?9?$AAQ?$AAA?$AA?$AA@ 0000000180031b88     LIBCMT:winapinls.obj
 0002:00005b98       ??_C@_1M@MKDBIIJI@?$AAe?$AAs?$AA?9?$AAB?$AAO?$AA?$AA@ 0000000180031b98     LIBCMT:winapinls.obj
 0002:00005ba8       ??_C@_1M@CPKKEBLD@?$AAe?$AAs?$AA?9?$AAS?$AAV?$AA?$AA@ 0000000180031ba8     LIBCMT:winapinls.obj
 0002:00005bb8       ??_C@_1M@NDBGMMJL@?$AAe?$AAs?$AA?9?$AAH?$AAN?$AA?$AA@ 0000000180031bb8     LIBCMT:winapinls.obj
 0002:00005bc8       ??_C@_1M@JIJIBHDP@?$AAe?$AAs?$AA?9?$AAN?$AAI?$AA?$AA@ 0000000180031bc8     LIBCMT:winapinls.obj
 0002:00005bd8       ??_C@_1M@CGFMKEEK@?$AAe?$AAs?$AA?9?$AAP?$AAR?$AA?$AA@ 0000000180031bd8     LIBCMT:winapinls.obj
 0002:00005be8       ??_C@_1O@ICJHKIIK@?$AAz?$AAh?$AA?9?$AAC?$AAH?$AAT?$AA?$AA@ 0000000180031be8     LIBCMT:winapinls.obj
 0002:00005bf8       ??_C@_15CLNEJCE@?$AAs?$AAr?$AA?$AA@ 0000000180031bf8     LIBCMT:winapinls.obj
 0002:00005c00       ??_C@_1M@KAHEKEIG@?$AAa?$AAf?$AA?9?$AAz?$AAa?$AA?$AA@ 0000000180031c00     LIBCMT:winapinls.obj
 0002:00005c10       ??_C@_1M@GIECOABL@?$AAa?$AAr?$AA?9?$AAa?$AAe?$AA?$AA@ 0000000180031c10     LIBCMT:winapinls.obj
 0002:00005c20       ??_C@_1M@BMLMEKGI@?$AAa?$AAr?$AA?9?$AAb?$AAh?$AA?$AA@ 0000000180031c20     LIBCMT:winapinls.obj
 0002:00005c30       ??_C@_1M@DAPFDGGB@?$AAa?$AAr?$AA?9?$AAd?$AAz?$AA?$AA@ 0000000180031c30     LIBCMT:winapinls.obj
 0002:00005c40       ??_C@_1M@FJNKGKIG@?$AAa?$AAr?$AA?9?$AAe?$AAg?$AA?$AA@ 0000000180031c40     LIBCMT:winapinls.obj
 0002:00005c50       ??_C@_1M@FLGKKCLO@?$AAa?$AAr?$AA?9?$AAi?$AAq?$AA?$AA@ 0000000180031c50     LIBCMT:winapinls.obj
 0002:00005c60       ??_C@_1M@GNDIPALM@?$AAa?$AAr?$AA?9?$AAj?$AAo?$AA?$AA@ 0000000180031c60     LIBCMT:winapinls.obj
 0002:00005c70       ??_C@_1M@DDMJFMGJ@?$AAa?$AAr?$AA?9?$AAk?$AAw?$AA?$AA@ 0000000180031c70     LIBCMT:winapinls.obj
 0002:00005c80       ??_C@_1M@EJALMLHM@?$AAa?$AAr?$AA?9?$AAl?$AAb?$AA?$AA@ 0000000180031c80     LIBCMT:winapinls.obj
 0002:00005c90       ??_C@_1M@MOBDBLOC@?$AAa?$AAr?$AA?9?$AAl?$AAy?$AA?$AA@ 0000000180031c90     LIBCMT:winapinls.obj
 0002:00005ca0       ??_C@_1M@JAOCLHDH@?$AAa?$AAr?$AA?9?$AAm?$AAa?$AA?$AA@ 0000000180031ca0     LIBCMT:winapinls.obj
 0002:00005cb0       ??_C@_1M@JHPMKJIE@?$AAa?$AAr?$AA?9?$AAo?$AAm?$AA?$AA@ 0000000180031cb0     LIBCMT:winapinls.obj
 0002:00005cc0       ??_C@_1M@OEPGHFNH@?$AAa?$AAr?$AA?9?$AAq?$AAa?$AA?$AA@ 0000000180031cc0     LIBCMT:winapinls.obj
 0002:00005cd0       ??_C@_1M@KJDONENM@?$AAa?$AAr?$AA?9?$AAs?$AAa?$AA?$AA@ 0000000180031cd0     LIBCMT:winapinls.obj
 0002:00005ce0       ??_C@_1M@DMJDKLKM@?$AAa?$AAr?$AA?9?$AAs?$AAy?$AA?$AA@ 0000000180031ce0     LIBCMT:winapinls.obj
 0002:00005cf0       ??_C@_1M@OMFIPEDC@?$AAa?$AAr?$AA?9?$AAt?$AAn?$AA?$AA@ 0000000180031cf0     LIBCMT:winapinls.obj
 0002:00005d00       ??_C@_1M@IHMHGAON@?$AAa?$AAr?$AA?9?$AAy?$AAe?$AA?$AA@ 0000000180031d00     LIBCMT:winapinls.obj
 0002:00005d10       ??_C@_1BG@KDCPGJGB@?$AAa?$AAz?$AA?9?$AAa?$AAz?$AA?9?$AAc?$AAy?$AAr?$AAl?$AA?$AA@ 0000000180031d10     LIBCMT:winapinls.obj
 0002:00005d28       ??_C@_1BG@IBCKDDOE@?$AAa?$AAz?$AA?9?$AAa?$AAz?$AA?9?$AAl?$AAa?$AAt?$AAn?$AA?$AA@ 0000000180031d28     LIBCMT:winapinls.obj
 0002:00005d40       ??_C@_1M@EGPFDCPD@?$AAb?$AAe?$AA?9?$AAb?$AAy?$AA?$AA@ 0000000180031d40     LIBCMT:winapinls.obj
 0002:00005d50       ??_C@_1M@PCMGMCGC@?$AAb?$AAg?$AA?9?$AAb?$AAg?$AA?$AA@ 0000000180031d50     LIBCMT:winapinls.obj
 0002:00005d60       ??_C@_1M@BJBMFGOB@?$AAb?$AAn?$AA?9?$AAi?$AAn?$AA?$AA@ 0000000180031d60     LIBCMT:winapinls.obj
 0002:00005d70       ??_C@_1BG@EAKMMACD@?$AAb?$AAs?$AA?9?$AAb?$AAa?$AA?9?$AAl?$AAa?$AAt?$AAn?$AA?$AA@ 0000000180031d70     LIBCMT:winapinls.obj
 0002:00005d88       ??_C@_1M@KGADAODK@?$AAc?$AAa?$AA?9?$AAe?$AAs?$AA?$AA@ 0000000180031d88     LIBCMT:winapinls.obj
 0002:00005d98       ??_C@_1M@COAJPDHI@?$AAc?$AAs?$AA?9?$AAc?$AAz?$AA?$AA@ 0000000180031d98     LIBCMT:winapinls.obj
 0002:00005da8       ??_C@_1M@DHBHFONH@?$AAc?$AAy?$AA?9?$AAg?$AAb?$AA?$AA@ 0000000180031da8     LIBCMT:winapinls.obj
 0002:00005db8       ??_C@_1M@IMGKELGA@?$AAd?$AAa?$AA?9?$AAd?$AAk?$AA?$AA@ 0000000180031db8     LIBCMT:winapinls.obj
 0002:00005dc8       ??_C@_1M@NNDGDNGA@?$AAd?$AAe?$AA?9?$AAa?$AAt?$AA?$AA@ 0000000180031dc8     LIBCMT:winapinls.obj
 0002:00005dd8       ??_C@_1M@IKDBHEEM@?$AAd?$AAe?$AA?9?$AAc?$AAh?$AA?$AA@ 0000000180031dd8     LIBCMT:winapinls.obj
 0002:00005de8       ??_C@_1M@GFFOJMCJ@?$AAd?$AAe?$AA?9?$AAd?$AAe?$AA?$AA@ 0000000180031de8     LIBCMT:winapinls.obj
 0002:00005df8       ??_C@_1M@MDNLKBPM@?$AAd?$AAe?$AA?9?$AAl?$AAi?$AA?$AA@ 0000000180031df8     LIBCMT:winapinls.obj
 0002:00005e08       ??_C@_1M@NJBEEJNL@?$AAd?$AAe?$AA?9?$AAl?$AAu?$AA?$AA@ 0000000180031e08     LIBCMT:winapinls.obj
 0002:00005e18       ??_C@_1O@GNNELBAP@?$AAd?$AAi?$AAv?$AA?9?$AAm?$AAv?$AA?$AA@ 0000000180031e18     LIBCMT:winapinls.obj
 0002:00005e28       ??_C@_1M@EJLEOGAE@?$AAe?$AAl?$AA?9?$AAg?$AAr?$AA?$AA@ 0000000180031e28     LIBCMT:winapinls.obj
 0002:00005e38       ??_C@_1M@GMPONJN@?$AAe?$AAn?$AA?9?$AAa?$AAu?$AA?$AA@ 0000000180031e38     LIBCMT:winapinls.obj
 0002:00005e48       ??_C@_1M@NIDIIPGF@?$AAe?$AAn?$AA?9?$AAb?$AAz?$AA?$AA@ 0000000180031e48     LIBCMT:winapinls.obj
 0002:00005e58       ??_C@_1M@JEHMIMFO@?$AAe?$AAn?$AA?9?$AAc?$AAa?$AA?$AA@ 0000000180031e58     LIBCMT:winapinls.obj
 0002:00005e68       ??_C@_1M@IGMJCDLA@?$AAe?$AAn?$AA?9?$AAc?$AAb?$AA?$AA@ 0000000180031e68     LIBCMT:winapinls.obj
 0002:00005e78       ??_C@_1M@BNFIGBKG@?$AAe?$AAn?$AA?9?$AAg?$AAb?$AA?$AA@ 0000000180031e78     LIBCMT:winapinls.obj
 0002:00005e88       ??_C@_1M@LKIFDIGP@?$AAe?$AAn?$AA?9?$AAi?$AAe?$AA?$AA@ 0000000180031e88     LIBCMT:winapinls.obj
 0002:00005e98       ??_C@_1M@PJKFGCCO@?$AAe?$AAn?$AA?9?$AAj?$AAm?$AA?$AA@ 0000000180031e98     LIBCMT:winapinls.obj
 0002:00005ea8       ??_C@_1M@KPPKEPBO@?$AAe?$AAn?$AA?9?$AAn?$AAz?$AA?$AA@ 0000000180031ea8     LIBCMT:winapinls.obj
 0002:00005eb8       ??_C@_1M@GMDGLDOB@?$AAe?$AAn?$AA?9?$AAp?$AAh?$AA?$AA@ 0000000180031eb8     LIBCMT:winapinls.obj
 0002:00005ec8       ??_C@_1M@ONGIBJNA@?$AAe?$AAn?$AA?9?$AAt?$AAt?$AA?$AA@ 0000000180031ec8     LIBCMT:winapinls.obj
 0002:00005ed8       ??_C@_1M@LLODPCMM@?$AAe?$AAn?$AA?9?$AAu?$AAs?$AA?$AA@ 0000000180031ed8     LIBCMT:winapinls.obj
 0002:00005ee8       ??_C@_1M@LAKFNPAN@?$AAe?$AAn?$AA?9?$AAz?$AAa?$AA?$AA@ 0000000180031ee8     LIBCMT:winapinls.obj
 0002:00005ef8       ??_C@_1M@MFNHNHEO@?$AAe?$AAn?$AA?9?$AAz?$AAw?$AA?$AA@ 0000000180031ef8     LIBCMT:winapinls.obj
 0002:00005f08       ??_C@_1M@EJEINPHM@?$AAe?$AAs?$AA?9?$AAa?$AAr?$AA?$AA@ 0000000180031f08     LIBCMT:winapinls.obj
 0002:00005f18       ??_C@_1M@GNKPCCJA@?$AAe?$AAs?$AA?9?$AAb?$AAo?$AA?$AA@ 0000000180031f18     LIBCMT:winapinls.obj
 0002:00005f28       ??_C@_1M@LEEGFONL@?$AAe?$AAs?$AA?9?$AAc?$AAl?$AA?$AA@ 0000000180031f28     LIBCMT:winapinls.obj
 0002:00005f38       ??_C@_1M@KGPDPBDF@?$AAe?$AAs?$AA?9?$AAc?$AAo?$AA?$AA@ 0000000180031f38     LIBCMT:winapinls.obj
 0002:00005f48       ??_C@_1M@EIAHOHH@?$AAe?$AAs?$AA?9?$AAc?$AAr?$AA?$AA@ 0000000180031f48     LIBCMT:winapinls.obj
 0002:00005f58       ??_C@_1M@LLPGMBIN@?$AAe?$AAs?$AA?9?$AAd?$AAo?$AA?$AA@ 0000000180031f58     LIBCMT:winapinls.obj
 0002:00005f68       ??_C@_1M@DKHMKNJA@?$AAe?$AAs?$AA?9?$AAe?$AAc?$AA?$AA@ 0000000180031f68     LIBCMT:winapinls.obj
 0002:00005f78       ??_C@_1M@GKGFPKAP@?$AAe?$AAs?$AA?9?$AAe?$AAs?$AA?$AA@ 0000000180031f78     LIBCMT:winapinls.obj
 0002:00005f88       ??_C@_1M@LKHKGDLN@?$AAe?$AAs?$AA?9?$AAg?$AAt?$AA?$AA@ 0000000180031f88     LIBCMT:winapinls.obj
 0002:00005f98       ??_C@_1M@HEIIGGJD@?$AAe?$AAs?$AA?9?$AAh?$AAn?$AA?$AA@ 0000000180031f98     LIBCMT:winapinls.obj
 0002:00005fa8       ??_C@_1M@FBDHPPGD@?$AAe?$AAs?$AA?9?$AAm?$AAx?$AA?$AA@ 0000000180031fa8     LIBCMT:winapinls.obj
 0002:00005fb8       ??_C@_1M@DPAGLNDH@?$AAe?$AAs?$AA?9?$AAn?$AAi?$AA?$AA@ 0000000180031fb8     LIBCMT:winapinls.obj
 0002:00005fc8       ??_C@_1M@MDGOPGDD@?$AAe?$AAs?$AA?9?$AAp?$AAa?$AA?$AA@ 0000000180031fc8     LIBCMT:winapinls.obj
 0002:00005fd8       ??_C@_1M@EMAMGBGE@?$AAe?$AAs?$AA?9?$AAp?$AAe?$AA?$AA@ 0000000180031fd8     LIBCMT:winapinls.obj
 0002:00005fe8       ??_C@_1M@IBMCAOEC@?$AAe?$AAs?$AA?9?$AAp?$AAr?$AA?$AA@ 0000000180031fe8     LIBCMT:winapinls.obj
 0002:00005ff8       ??_C@_1M@FGMDIJED@?$AAe?$AAs?$AA?9?$AAp?$AAy?$AA?$AA@ 0000000180031ff8     LIBCMT:winapinls.obj
 0002:00006008       ??_C@_1M@IIDEOLLL@?$AAe?$AAs?$AA?9?$AAs?$AAv?$AA?$AA@ 0000000180032008     LIBCMT:winapinls.obj
 0002:00006018       ??_C@_1M@GAOBIPA@?$AAe?$AAs?$AA?9?$AAu?$AAy?$AA?$AA@ 0000000180032018     LIBCMT:winapinls.obj
 0002:00006028       ??_C@_1M@JKFFICHJ@?$AAe?$AAs?$AA?9?$AAv?$AAe?$AA?$AA@ 0000000180032028     LIBCMT:winapinls.obj
 0002:00006038       ??_C@_1M@PNMLOJDF@?$AAe?$AAt?$AA?9?$AAe?$AAe?$AA?$AA@ 0000000180032038     LIBCMT:winapinls.obj
 0002:00006048       ??_C@_1M@GHHLIKEI@?$AAe?$AAu?$AA?9?$AAe?$AAs?$AA?$AA@ 0000000180032048     LIBCMT:winapinls.obj
 0002:00006058       ??_C@_1M@PBNONODE@?$AAf?$AAa?$AA?9?$AAi?$AAr?$AA?$AA@ 0000000180032058     LIBCMT:winapinls.obj
 0002:00006068       ??_C@_1M@JEEHPMIL@?$AAf?$AAi?$AA?9?$AAf?$AAi?$AA?$AA@ 0000000180032068     LIBCMT:winapinls.obj
 0002:00006078       ??_C@_1M@LMDCNDBA@?$AAf?$AAo?$AA?9?$AAf?$AAo?$AA?$AA@ 0000000180032078     LIBCMT:winapinls.obj
 0002:00006088       ??_C@_1M@JKEOHLDK@?$AAf?$AAr?$AA?9?$AAb?$AAe?$AA?$AA@ 0000000180032088     LIBCMT:winapinls.obj
 0002:00006098       ??_C@_1M@NOHADPMI@?$AAf?$AAr?$AA?9?$AAc?$AAa?$AA?$AA@ 0000000180032098     LIBCMT:winapinls.obj
 0002:000060a8       ??_C@_1M@KDHIHAEC@?$AAf?$AAr?$AA?9?$AAc?$AAh?$AA?$AA@ 00000001800320a8     LIBCMT:winapinls.obj
 0002:000060b8       ??_C@_1M@MMBBFGAK@?$AAf?$AAr?$AA?9?$AAf?$AAr?$AA?$AA@ 00000001800320b8     LIBCMT:winapinls.obj
 0002:000060c8       ??_C@_1M@PAFNENNF@?$AAf?$AAr?$AA?9?$AAl?$AAu?$AA?$AA@ 00000001800320c8     LIBCMT:winapinls.obj
 0002:000060d8       ??_C@_1M@EOHDJGDD@?$AAf?$AAr?$AA?9?$AAm?$AAc?$AA?$AA@ 00000001800320d8     LIBCMT:winapinls.obj
 0002:000060e8       ??_C@_1M@FAPLLOPF@?$AAg?$AAl?$AA?9?$AAe?$AAs?$AA?$AA@ 00000001800320e8     LIBCMT:winapinls.obj
 0002:000060f8       ??_C@_1M@FOPBFLOO@?$AAg?$AAu?$AA?9?$AAi?$AAn?$AA?$AA@ 00000001800320f8     LIBCMT:winapinls.obj
 0002:00006108       ??_C@_1M@KBMCINPM@?$AAh?$AAe?$AA?9?$AAi?$AAl?$AA?$AA@ 0000000180032108     LIBCMT:winapinls.obj
 0002:00006118       ??_C@_1M@BBPHKFPJ@?$AAh?$AAi?$AA?9?$AAi?$AAn?$AA?$AA@ 0000000180032118     LIBCMT:winapinls.obj
 0002:00006128       ??_C@_1M@PMBNDPHD@?$AAh?$AAr?$AA?9?$AAb?$AAa?$AA?$AA@ 0000000180032128     LIBCMT:winapinls.obj
 0002:00006138       ??_C@_1M@BPCKOEGE@?$AAh?$AAr?$AA?9?$AAh?$AAr?$AA?$AA@ 0000000180032138     LIBCMT:winapinls.obj
 0002:00006148       ??_C@_1M@GACBMHKE@?$AAh?$AAu?$AA?9?$AAh?$AAu?$AA?$AA@ 0000000180032148     LIBCMT:winapinls.obj
 0002:00006158       ??_C@_1M@MILPAJJC@?$AAh?$AAy?$AA?9?$AAa?$AAm?$AA?$AA@ 0000000180032158     LIBCMT:winapinls.obj
 0002:00006168       ??_C@_1M@BABBICEC@?$AAi?$AAd?$AA?9?$AAi?$AAd?$AA?$AA@ 0000000180032168     LIBCMT:winapinls.obj
 0002:00006178       ??_C@_1M@BIKNHHPF@?$AAi?$AAs?$AA?9?$AAi?$AAs?$AA?$AA@ 0000000180032178     LIBCMT:winapinls.obj
 0002:00006188       ??_C@_1M@NMPCJPHE@?$AAi?$AAt?$AA?9?$AAc?$AAh?$AA?$AA@ 0000000180032188     LIBCMT:winapinls.obj
 0002:00006198       ??_C@_1M@GHKGFEDF@?$AAi?$AAt?$AA?9?$AAi?$AAt?$AA?$AA@ 0000000180032198     LIBCMT:winapinls.obj
 0002:000061a8       ??_C@_1M@NIEJCJJA@?$AAj?$AAa?$AA?9?$AAj?$AAp?$AA?$AA@ 00000001800321a8     LIBCMT:winapinls.obj
 0002:000061b8       ??_C@_1M@JILFNBIM@?$AAk?$AAa?$AA?9?$AAg?$AAe?$AA?$AA@ 00000001800321b8     LIBCMT:winapinls.obj
 0002:000061c8       ??_C@_1M@PACPMGPH@?$AAk?$AAk?$AA?9?$AAk?$AAz?$AA?$AA@ 00000001800321c8     LIBCMT:winapinls.obj
 0002:000061d8       ??_C@_1M@IELFGMHA@?$AAk?$AAn?$AA?9?$AAi?$AAn?$AA?$AA@ 00000001800321d8     LIBCMT:winapinls.obj
 0002:000061e8       ??_C@_1O@IBBJHCH@?$AAk?$AAo?$AAk?$AA?9?$AAi?$AAn?$AA?$AA@ 00000001800321e8     LIBCMT:winapinls.obj
 0002:000061f8       ??_C@_1M@DMHAEOGC@?$AAk?$AAo?$AA?9?$AAk?$AAr?$AA?$AA@ 00000001800321f8     LIBCMT:winapinls.obj
 0002:00006208       ??_C@_1M@HBAHBIGA@?$AAk?$AAy?$AA?9?$AAk?$AAg?$AA?$AA@ 0000000180032208     LIBCMT:winapinls.obj
 0002:00006218       ??_C@_1M@KPMILCJG@?$AAl?$AAt?$AA?9?$AAl?$AAt?$AA?$AA@ 0000000180032218     LIBCMT:winapinls.obj
 0002:00006228       ??_C@_1M@BDEKKCA@?$AAl?$AAv?$AA?9?$AAl?$AAv?$AA?$AA@ 0000000180032228     LIBCMT:winapinls.obj
 0002:00006238       ??_C@_1M@ELCKCCJJ@?$AAm?$AAi?$AA?9?$AAn?$AAz?$AA?$AA@ 0000000180032238     LIBCMT:winapinls.obj
 0002:00006248       ??_C@_1M@CBOOLAPA@?$AAm?$AAk?$AA?9?$AAm?$AAk?$AA?$AA@ 0000000180032248     LIBCMT:winapinls.obj
 0002:00006258       ??_C@_1M@GPHNBJKN@?$AAm?$AAl?$AA?9?$AAi?$AAn?$AA?$AA@ 0000000180032258     LIBCMT:winapinls.obj
 0002:00006268       ??_C@_1M@PABJILIG@?$AAm?$AAn?$AA?9?$AAm?$AAn?$AA?$AA@ 0000000180032268     LIBCMT:winapinls.obj
 0002:00006278       ??_C@_1M@FGBKKIPG@?$AAm?$AAr?$AA?9?$AAi?$AAn?$AA?$AA@ 0000000180032278     LIBCMT:winapinls.obj
 0002:00006288       ??_C@_1M@NDBPDDAL@?$AAm?$AAs?$AA?9?$AAb?$AAn?$AA?$AA@ 0000000180032288     LIBCMT:winapinls.obj
 0002:00006298       ??_C@_1M@OPIHOOPI@?$AAm?$AAs?$AA?9?$AAm?$AAy?$AA?$AA@ 0000000180032298     LIBCMT:winapinls.obj
 0002:000062a8       ??_C@_1M@PPDBCNFM@?$AAm?$AAt?$AA?9?$AAm?$AAt?$AA?$AA@ 00000001800322a8     LIBCMT:winapinls.obj
 0002:000062b8       ??_C@_1M@KDJDKMDD@?$AAn?$AAb?$AA?9?$AAn?$AAo?$AA?$AA@ 00000001800322b8     LIBCMT:winapinls.obj
 0002:000062c8       ??_C@_1M@KFCFLMJP@?$AAn?$AAl?$AA?9?$AAb?$AAe?$AA?$AA@ 00000001800322c8     LIBCMT:winapinls.obj
 0002:000062d8       ??_C@_1M@KPOPDDGO@?$AAn?$AAl?$AA?9?$AAn?$AAl?$AA?$AA@ 00000001800322d8     LIBCMT:winapinls.obj
 0002:000062e8       ??_C@_1M@LJKPEMLN@?$AAn?$AAn?$AA?9?$AAn?$AAo?$AA?$AA@ 00000001800322e8     LIBCMT:winapinls.obj
 0002:000062f8       ??_C@_1M@BDGHHBFL@?$AAn?$AAs?$AA?9?$AAz?$AAa?$AA?$AA@ 00000001800322f8     LIBCMT:winapinls.obj
 0002:00006308       ??_C@_1M@IDEHOAP@?$AAp?$AAa?$AA?9?$AAi?$AAn?$AA?$AA@ 0000000180032308     LIBCMT:winapinls.obj
 0002:00006318       ??_C@_1M@HDBKGOGH@?$AAp?$AAl?$AA?9?$AAp?$AAl?$AA?$AA@ 0000000180032318     LIBCMT:winapinls.obj
 0002:00006328       ??_C@_1M@LJLLCMEH@?$AAp?$AAt?$AA?9?$AAb?$AAr?$AA?$AA@ 0000000180032328     LIBCMT:winapinls.obj
 0002:00006338       ??_C@_1M@NCMONAAL@?$AAp?$AAt?$AA?9?$AAp?$AAt?$AA?$AA@ 0000000180032338     LIBCMT:winapinls.obj
 0002:00006348       ??_C@_1O@EAKMAJDN@?$AAq?$AAu?$AAz?$AA?9?$AAb?$AAo?$AA?$AA@ 0000000180032348     LIBCMT:winapinls.obj
 0002:00006358       ??_C@_1O@BHHPIGDN@?$AAq?$AAu?$AAz?$AA?9?$AAe?$AAc?$AA?$AA@ 0000000180032358     LIBCMT:winapinls.obj
 0002:00006368       ??_C@_1O@GBAPEKMJ@?$AAq?$AAu?$AAz?$AA?9?$AAp?$AAe?$AA?$AA@ 0000000180032368     LIBCMT:winapinls.obj
 0002:00006378       ??_C@_1M@CLGLEFBO@?$AAr?$AAo?$AA?9?$AAr?$AAo?$AA?$AA@ 0000000180032378     LIBCMT:winapinls.obj
 0002:00006388       ??_C@_1M@CEEDODME@?$AAr?$AAu?$AA?9?$AAr?$AAu?$AA?$AA@ 0000000180032388     LIBCMT:winapinls.obj
 0002:00006398       ??_C@_1M@HPKKKMPP@?$AAs?$AAa?$AA?9?$AAi?$AAn?$AA?$AA@ 0000000180032398     LIBCMT:winapinls.obj
 0002:000063a8       ??_C@_1M@BKMAIGOJ@?$AAs?$AAe?$AA?9?$AAf?$AAi?$AA?$AA@ 00000001800323a8     LIBCMT:winapinls.obj
 0002:000063b8       ??_C@_1M@NDPIFLFI@?$AAs?$AAe?$AA?9?$AAn?$AAo?$AA?$AA@ 00000001800323b8     LIBCMT:winapinls.obj
 0002:000063c8       ??_C@_1M@DANKKHJ@?$AAs?$AAe?$AA?9?$AAs?$AAe?$AA?$AA@ 00000001800323c8     LIBCMT:winapinls.obj
 0002:000063d8       ??_C@_1M@PNBLONPJ@?$AAs?$AAk?$AA?9?$AAs?$AAk?$AA?$AA@ 00000001800323d8     LIBCMT:winapinls.obj
 0002:000063e8       ??_C@_1M@LFMODOAL@?$AAs?$AAl?$AA?9?$AAs?$AAi?$AA?$AA@ 00000001800323e8     LIBCMT:winapinls.obj
 0002:000063f8       ??_C@_1O@DFKOMPG@?$AAs?$AAm?$AAa?$AA?9?$AAn?$AAo?$AA?$AA@ 00000001800323f8     LIBCMT:winapinls.obj
 0002:00006408       ??_C@_1O@NDKPBNNH@?$AAs?$AAm?$AAa?$AA?9?$AAs?$AAe?$AA?$AA@ 0000000180032408     LIBCMT:winapinls.obj
 0002:00006418       ??_C@_1O@PLLKBHAB@?$AAs?$AAm?$AAj?$AA?9?$AAn?$AAo?$AA?$AA@ 0000000180032418     LIBCMT:winapinls.obj
 0002:00006428       ??_C@_1O@CLEPOGCA@?$AAs?$AAm?$AAj?$AA?9?$AAs?$AAe?$AA?$AA@ 0000000180032428     LIBCMT:winapinls.obj
 0002:00006438       ??_C@_1O@DLGJGKMK@?$AAs?$AAm?$AAn?$AA?9?$AAf?$AAi?$AA?$AA@ 0000000180032438     LIBCMT:winapinls.obj
 0002:00006448       ??_C@_1O@OJDJGAJC@?$AAs?$AAm?$AAs?$AA?9?$AAf?$AAi?$AA?$AA@ 0000000180032448     LIBCMT:winapinls.obj
 0002:00006458       ??_C@_1M@BOFOGHPB@?$AAs?$AAq?$AA?9?$AAa?$AAl?$AA?$AA@ 0000000180032458     LIBCMT:winapinls.obj
 0002:00006468       ??_C@_1BG@LJBBIPGB@?$AAs?$AAr?$AA?9?$AAb?$AAa?$AA?9?$AAc?$AAy?$AAr?$AAl?$AA?$AA@ 0000000180032468     LIBCMT:winapinls.obj
 0002:00006480       ??_C@_1BG@JLBENFOE@?$AAs?$AAr?$AA?9?$AAb?$AAa?$AA?9?$AAl?$AAa?$AAt?$AAn?$AA?$AA@ 0000000180032480     LIBCMT:winapinls.obj
 0002:00006498       ??_C@_1BG@KODPNHE@?$AAs?$AAr?$AA?9?$AAs?$AAp?$AA?9?$AAc?$AAy?$AAr?$AAl?$AA?$AA@ 0000000180032498     LIBCMT:winapinls.obj
 0002:000064b0       ??_C@_1BG@CIOGKHPB@?$AAs?$AAr?$AA?9?$AAs?$AAp?$AA?9?$AAl?$AAa?$AAt?$AAn?$AA?$AA@ 00000001800324b0     LIBCMT:winapinls.obj
 0002:000064c8       ??_C@_1M@NGFJLMAC@?$AAs?$AAv?$AA?9?$AAf?$AAi?$AA?$AA@ 00000001800324c8     LIBCMT:winapinls.obj
 0002:000064d8       ??_C@_1M@MPJEJAJC@?$AAs?$AAv?$AA?9?$AAs?$AAe?$AA?$AA@ 00000001800324d8     LIBCMT:winapinls.obj
 0002:000064e8       ??_C@_1M@MPNDHLFK@?$AAs?$AAw?$AA?9?$AAk?$AAe?$AA?$AA@ 00000001800324e8     LIBCMT:winapinls.obj
 0002:000064f8       ??_C@_1O@KOHBJJI@?$AAs?$AAy?$AAr?$AA?9?$AAs?$AAy?$AA?$AA@ 00000001800324f8     LIBCMT:winapinls.obj
 0002:00006508       ??_C@_1M@LDCEFHA@?$AAt?$AAa?$AA?9?$AAi?$AAn?$AA?$AA@ 0000000180032508     LIBCMT:winapinls.obj
 0002:00006518       ??_C@_1M@CNJOFAK@?$AAt?$AAe?$AA?9?$AAi?$AAn?$AA?$AA@ 0000000180032518     LIBCMT:winapinls.obj
 0002:00006528       ??_C@_1M@GNAECACD@?$AAt?$AAh?$AA?9?$AAt?$AAh?$AA?$AA@ 0000000180032528     LIBCMT:winapinls.obj
 0002:00006538       ??_C@_1M@CHBIHOJO@?$AAt?$AAn?$AA?9?$AAz?$AAa?$AA?$AA@ 0000000180032538     LIBCMT:winapinls.obj
 0002:00006548       ??_C@_1M@GCCMIGPJ@?$AAt?$AAr?$AA?9?$AAt?$AAr?$AA?$AA@ 0000000180032548     LIBCMT:winapinls.obj
 0002:00006558       ??_C@_1M@CELMCNBK@?$AAt?$AAt?$AA?9?$AAr?$AAu?$AA?$AA@ 0000000180032558     LIBCMT:winapinls.obj
 0002:00006568       ??_C@_1M@KLMCELGA@?$AAu?$AAk?$AA?9?$AAu?$AAa?$AA?$AA@ 0000000180032568     LIBCMT:winapinls.obj
 0002:00006578       ??_C@_1M@EPAJJAJF@?$AAu?$AAr?$AA?9?$AAp?$AAk?$AA?$AA@ 0000000180032578     LIBCMT:winapinls.obj
 0002:00006588       ??_C@_1BG@GEGPMCDJ@?$AAu?$AAz?$AA?9?$AAu?$AAz?$AA?9?$AAc?$AAy?$AAr?$AAl?$AA?$AA@ 0000000180032588     LIBCMT:winapinls.obj
 0002:000065a0       ??_C@_1BG@EGGKJILM@?$AAu?$AAz?$AA?9?$AAu?$AAz?$AA?9?$AAl?$AAa?$AAt?$AAn?$AA?$AA@ 00000001800325a0     LIBCMT:winapinls.obj
 0002:000065b8       ??_C@_1M@GFOCLFF@?$AAv?$AAi?$AA?9?$AAv?$AAn?$AA?$AA@ 00000001800325b8     LIBCMT:winapinls.obj
 0002:000065c8       ??_C@_1M@CPAMEDFI@?$AAx?$AAh?$AA?9?$AAz?$AAa?$AA?$AA@ 00000001800325c8     LIBCMT:winapinls.obj
 0002:000065d8       ??_C@_1O@EBKIFIGN@?$AAz?$AAh?$AA?9?$AAc?$AAh?$AAs?$AA?$AA@ 00000001800325d8     LIBCMT:winapinls.obj
 0002:000065e8       ??_C@_1O@NMHPGANE@?$AAz?$AAh?$AA?9?$AAc?$AAh?$AAt?$AA?$AA@ 00000001800325e8     LIBCMT:winapinls.obj
 0002:000065f8       ??_C@_1M@LPINJOMC@?$AAz?$AAh?$AA?9?$AAc?$AAn?$AA?$AA@ 00000001800325f8     LIBCMT:winapinls.obj
 0002:00006608       ??_C@_1M@OCJEJODD@?$AAz?$AAh?$AA?9?$AAh?$AAk?$AA?$AA@ 0000000180032608     LIBCMT:winapinls.obj
 0002:00006618       ??_C@_1M@DNDLJINH@?$AAz?$AAh?$AA?9?$AAm?$AAo?$AA?$AA@ 0000000180032618     LIBCMT:winapinls.obj
 0002:00006628       ??_C@_1M@MBFDNDND@?$AAz?$AAh?$AA?9?$AAs?$AAg?$AA?$AA@ 0000000180032628     LIBCMT:winapinls.obj
 0002:00006638       ??_C@_1M@IMEPLEPE@?$AAz?$AAh?$AA?9?$AAt?$AAw?$AA?$AA@ 0000000180032638     LIBCMT:winapinls.obj
 0002:00006648       ??_C@_1M@BBGHNHJP@?$AAz?$AAu?$AA?9?$AAz?$AAa?$AA?$AA@ 0000000180032648     LIBCMT:winapinls.obj
 0002:00006670       ??_C@_03KHJOGHMM@exp?$AA@  0000000180032670     LIBCMT:fpexcept.obj
 0002:00006674       ??_C@_03JGHBODFD@pow?$AA@  0000000180032674     LIBCMT:fpexcept.obj
 0002:00006678       ??_C@_03MGHMBJCF@log?$AA@  0000000180032678     LIBCMT:fpexcept.obj
 0002:0000667c       ??_C@_05HGHHAHAP@log10?$AA@ 000000018003267c     LIBCMT:fpexcept.obj
 0002:00006684       ??_C@_04COOMCNPB@sinh?$AA@ 0000000180032684     LIBCMT:fpexcept.obj
 0002:0000668c       ??_C@_04HPJJNFIM@cosh?$AA@ 000000018003268c     LIBCMT:fpexcept.obj
 0002:00006694       ??_C@_04FJHINJAO@tanh?$AA@ 0000000180032694     LIBCMT:fpexcept.obj
 0002:0000669c       ??_C@_04FIHNOPOL@asin?$AA@ 000000018003269c     LIBCMT:fpexcept.obj
 0002:000066a4       ??_C@_04PDIFKINK@acos?$AA@ 00000001800326a4     LIBCMT:fpexcept.obj
 0002:000066ac       ??_C@_04MLLJIGOK@atan?$AA@ 00000001800326ac     LIBCMT:fpexcept.obj
 0002:000066b4       ??_C@_05KNGEOGJB@atan2?$AA@ 00000001800326b4     LIBCMT:fpexcept.obj
 0002:000066bc       ??_C@_04EIAKFFMI@sqrt?$AA@ 00000001800326bc     LIBCMT:fpexcept.obj
 0002:000066c4       ??_C@_03BLEJJJBH@sin?$AA@  00000001800326c4     LIBCMT:fpexcept.obj
 0002:000066c8       ??_C@_03LALBNOCG@cos?$AA@  00000001800326c8     LIBCMT:fpexcept.obj
 0002:000066cc       ??_C@_04GFPJNGEK@ceil?$AA@ 00000001800326cc     LIBCMT:fpexcept.obj
 0002:000066d4       ??_C@_05PBJFFIGL@floor?$AA@ 00000001800326d4     LIBCMT:fpexcept.obj
 0002:000066dc       ??_C@_04ODHECPBC@fabs?$AA@ 00000001800326dc     LIBCMT:fpexcept.obj
 0002:000066e4       ??_C@_04EHEDPDJG@modf?$AA@ 00000001800326e4     LIBCMT:fpexcept.obj
 0002:000066ec       ??_C@_05CEJMAHNP@ldexp?$AA@ 00000001800326ec     LIBCMT:fpexcept.obj
 0002:000066f4       ??_C@_05KBKMEMPO@_cabs?$AA@ 00000001800326f4     LIBCMT:fpexcept.obj
 0002:000066fc       ??_C@_04KEPJIHGP@fmod?$AA@ 00000001800326fc     LIBCMT:fpexcept.obj
 0002:00006704       ??_C@_05GKKHEGJL@frexp?$AA@ 0000000180032704     LIBCMT:fpexcept.obj
 0002:0000670c       ??_C@_03MJLDFKDL@_y0?$AA@  000000018003270c     LIBCMT:fpexcept.obj
 0002:00006710       ??_C@_03NAKIGLHK@_y1?$AA@  0000000180032710     LIBCMT:fpexcept.obj
 0002:00006714       ??_C@_03ONILCKOB@_yn?$AA@  0000000180032714     LIBCMT:fpexcept.obj
 0002:00006718       ??_C@_05JGDBENOH@_logb?$AA@ 0000000180032718     LIBCMT:fpexcept.obj
 0002:00006720       __lookuptable_s            0000000180032720     LIBCMT:outputs.obj
 0002:00006780       __newctype                 0000000180032780     LIBCMT:ctype.obj
 0002:00006a80       _wctype                    0000000180032a80     LIBCMT:ctype.obj
 0002:00006c90       __newclmap                 0000000180032c90     LIBCMT:ctype.obj
 0002:00006e10       __newcumap                 0000000180032e10     LIBCMT:ctype.obj
 0002:00006f90       __rg_language_count        0000000180032f90     LIBCMT:getqloc.obj
 0002:00006f94       __rg_country_count         0000000180032f94     LIBCMT:getqloc.obj
 0002:000072b8       ??_C@_08EHJDFFNH@__based?$CI?$AA@ 00000001800332b8     LIBCMT:undname.obj
 0002:000072c8       ??_C@_07KOLFKCDI@__cdecl?$AA@ 00000001800332c8     LIBCMT:undname.obj
 0002:000072d0       ??_C@_08GHMPAG@__pascal?$AA@ 00000001800332d0     LIBCMT:undname.obj
 0002:000072e0       ??_C@_09IFJBGAPI@__stdcall?$AA@ 00000001800332e0     LIBCMT:undname.obj
 0002:000072f0       ??_C@_0L@NPHFGOKO@__thiscall?$AA@ 00000001800332f0     LIBCMT:undname.obj
 0002:00007300       ??_C@_0L@JMKHOMEK@__fastcall?$AA@ 0000000180033300     LIBCMT:undname.obj
 0002:00007310       ??_C@_0N@BCKKPABJ@__vectorcall?$AA@ 0000000180033310     LIBCMT:undname.obj
 0002:00007320       ??_C@_09HIJEGCPM@__clrcall?$AA@ 0000000180033320     LIBCMT:undname.obj
 0002:0000732c       ??_C@_06GHPCKEAG@__eabi?$AA@ 000000018003332c     LIBCMT:undname.obj
 0002:00007338       ??_C@_07JOMMBBKO@__ptr64?$AA@ 0000000180033338     LIBCMT:undname.obj
 0002:00007340       ??_C@_0L@PILCLIHE@__restrict?$AA@ 0000000180033340     LIBCMT:undname.obj
 0002:00007350       ??_C@_0M@GFIIJFMG@__unaligned?$AA@ 0000000180033350     LIBCMT:undname.obj
 0002:00007360       ??_C@_09DHDLOLLB@restrict?$CI?$AA@ 0000000180033360     LIBCMT:undname.obj
 0002:0000736c       ??_C@_04NIHEBCM@?5new?$AA@ 000000018003336c     LIBCMT:undname.obj
 0002:00007378       ??_C@_07FPCDHGMM@?5delete?$AA@ 0000000180033378     LIBCMT:undname.obj
 0002:00007380       ??_C@_01NEMOKFLO@?$DN?$AA@ 0000000180033380     LIBCMT:undname.obj
 0002:00007384       ??_C@_02GPIOPFAK@?$DO?$DO?$AA@ 0000000180033384     LIBCMT:undname.obj
 0002:00007388       ??_C@_02FODMEDOG@?$DM?$DM?$AA@ 0000000180033388     LIBCMT:undname.obj
 0002:0000738c       ??_C@_01DCLJPIOD@?$CB?$AA@ 000000018003338c     LIBCMT:undname.obj
 0002:00007390       ??_C@_02EGOFBIJA@?$DN?$DN?$AA@ 0000000180033390     LIBCMT:undname.obj
 0002:00007394       ??_C@_02FDNJECIE@?$CB?$DN?$AA@ 0000000180033394     LIBCMT:undname.obj
 0002:00007398       ??_C@_02GPECMEKF@?$FL?$FN?$AA@ 0000000180033398     LIBCMT:undname.obj
 0002:000073a0       ??_C@_08LHJFAFGD@operator?$AA@ 00000001800333a0     LIBCMT:undname.obj
 0002:000073ac       ??_C@_02HBOOOICD@?9?$DO?$AA@ 00000001800333ac     LIBCMT:undname.obj
 0002:000073b0       ??_C@_01NBENCBCI@?$CK?$AA@ 00000001800333b0     LIBCMT:undname.obj
 0002:000073b4       ??_C@_02ECNGHCIF@?$CL?$CL?$AA@ 00000001800333b4     LIBCMT:undname.obj
 0002:000073b8       ??_C@_02BAABKJLB@?9?9?$AA@ 00000001800333b8     LIBCMT:undname.obj
 0002:000073bc       ??_C@_01JOAMLHOP@?9?$AA@   00000001800333bc     LIBCMT:undname.obj
 0002:000073c0       ??_C@_01MIFGBAGJ@?$CL?$AA@ 00000001800333c0     LIBCMT:undname.obj
 0002:000073c4       ??_C@_01HNPIGOCE@?$CG?$AA@ 00000001800333c4     LIBCMT:undname.obj
 0002:000073c8       ??_C@_03MNHNFDLC@?9?$DO?$CK?$AA@ 00000001800333c8     LIBCMT:undname.obj
 0002:000073cc       ??_C@_01KMDKNFGN@?1?$AA@   00000001800333cc     LIBCMT:undname.obj
 0002:000073d0       ??_C@_01FGNFDNOH@?$CF?$AA@ 00000001800333d0     LIBCMT:undname.obj
 0002:000073d4       ??_C@_01MNNFJEPP@?$DM?$AA@ 00000001800333d4     LIBCMT:undname.obj
 0002:000073d8       ??_C@_02EHCHHCKH@?$DM?$DN?$AA@ 00000001800333d8     LIBCMT:undname.obj
 0002:000073dc       ??_C@_01PPODPGHN@?$DO?$AA@ 00000001800333dc     LIBCMT:undname.obj
 0002:000073e0       ??_C@_02EEKDKGMJ@?$DO?$DN?$AA@ 00000001800333e0     LIBCMT:undname.obj
 0002:000073e4       ??_C@_01IHBHIGKO@?0?$AA@   00000001800333e4     LIBCMT:undname.obj
 0002:000073e8       ??_C@_02HCKGKOFO@?$CI?$CJ?$AA@ 00000001800333e8     LIBCMT:undname.obj
 0002:000073ec       ??_C@_01PJKLJHI@?$HO?$AA@  00000001800333ec     LIBCMT:undname.obj
 0002:000073f0       ??_C@_01JKBOJNNK@?$FO?$AA@ 00000001800333f0     LIBCMT:undname.obj
 0002:000073f4       ??_C@_01DNKMNLPK@?$HM?$AA@ 00000001800333f4     LIBCMT:undname.obj
 0002:000073f8       ??_C@_02PPKAJPJL@?$CG?$CG?$AA@ 00000001800333f8     LIBCMT:undname.obj
 0002:000073fc       ??_C@_02NONPIBCD@?$HM?$HM?$AA@ 00000001800333fc     LIBCMT:undname.obj
 0002:00007400       ??_C@_02FPIMKNGF@?$CK?$DN?$AA@ 0000000180033400     LIBCMT:undname.obj
 0002:00007404       ??_C@_02FOEOMHFC@?$CL?$DN?$AA@ 0000000180033404     LIBCMT:undname.obj
 0002:00007408       ??_C@_02FKMDLLOA@?9?$DN?$AA@ 0000000180033408     LIBCMT:undname.obj
 0002:0000740c       ??_C@_02FJEHGPIO@?1?$DN?$AA@ 000000018003340c     LIBCMT:undname.obj
 0002:00007410       ??_C@_02FENAOKFI@?$CF?$DN?$AA@ 0000000180033410     LIBCMT:undname.obj
 0002:00007414       ??_C@_03IKFCCPFF@?$DO?$DO?$DN?$AA@ 0000000180033414     LIBCMT:undname.obj
 0002:00007418       ??_C@_03CDNPDDLA@?$DM?$DM?$DN?$AA@ 0000000180033418     LIBCMT:undname.obj
 0002:0000741c       ??_C@_02FGJGFEAB@?$CG?$DN?$AA@ 000000018003341c     LIBCMT:undname.obj
 0002:00007420       ??_C@_02DHLNPPGH@?$HM?$DN?$AA@ 0000000180033420     LIBCMT:undname.obj
 0002:00007424       ??_C@_02MHEGNOJ@?$FO?$DN?$AA@ 0000000180033424     LIBCMT:undname.obj
 0002:00007428       ??_C@_09IFPLHPGF@?$GAvftable?8?$AA@ 0000000180033428     LIBCMT:undname.obj
 0002:00007438       ??_C@_09BLBHBJP@?$GAvbtable?8?$AA@ 0000000180033438     LIBCMT:undname.obj
 0002:00007448       ??_C@_07FEEIOKP@?$GAvcall?8?$AA@ 0000000180033448     LIBCMT:undname.obj
 0002:00007450       ??_C@_08LLFFHHDJ@?$GAtypeof?8?$AA@ 0000000180033450     LIBCMT:undname.obj
 0002:00007460       ??_C@_0BF@KDPPACIK@?$GAlocal?5static?5guard?8?$AA@ 0000000180033460     LIBCMT:undname.obj
 0002:00007478       ??_C@_08OBABFOLI@?$GAstring?8?$AA@ 0000000180033478     LIBCMT:undname.obj
 0002:00007488       ??_C@_0BD@JDLKDPAB@?$GAvbase?5destructor?8?$AA@ 0000000180033488     LIBCMT:undname.obj
 0002:000074a0       ??_C@_0BN@DEGPLNFK@?$GAvector?5deleting?5destructor?8?$AA@ 00000001800334a0     LIBCMT:undname.obj
 0002:000074c0       ??_C@_0BO@OBMKPJIG@?$GAdefault?5constructor?5closure?8?$AA@ 00000001800334c0     LIBCMT:undname.obj
 0002:000074e0       ??_C@_0BN@IMDCHIKM@?$GAscalar?5deleting?5destructor?8?$AA@ 00000001800334e0     LIBCMT:undname.obj
 0002:00007500       ??_C@_0BO@PFGOCPJJ@?$GAvector?5constructor?5iterator?8?$AA@ 0000000180033500     LIBCMT:undname.obj
 0002:00007520       ??_C@_0BN@LFPFMEDL@?$GAvector?5destructor?5iterator?8?$AA@ 0000000180033520     LIBCMT:undname.obj
 0002:00007540       ??_C@_0CE@IKBNEHA@?$GAvector?5vbase?5constructor?5iterat@ 0000000180033540     LIBCMT:undname.obj
 0002:00007568       ??_C@_0BL@NILFHHPC@?$GAvirtual?5displacement?5map?8?$AA@ 0000000180033568     LIBCMT:undname.obj
 0002:00007588       ??_C@_0CB@JONCMFFK@?$GAeh?5vector?5constructor?5iterator?8@ 0000000180033588     LIBCMT:undname.obj
 0002:000075b0       ??_C@_0CA@GCEOPDGL@?$GAeh?5vector?5destructor?5iterator?8?$AA@ 00000001800335b0     LIBCMT:undname.obj
 0002:000075d0       ??_C@_0CH@OOJPLCPH@?$GAeh?5vector?5vbase?5constructor?5ite@ 00000001800335d0     LIBCMT:undname.obj
 0002:000075f8       ??_C@_0BL@LLKPOHJI@?$GAcopy?5constructor?5closure?8?$AA@ 00000001800335f8     LIBCMT:undname.obj
 0002:00007618       ??_C@_0BA@KBCDOMBN@?$GAudt?5returning?8?$AA@ 0000000180033618     LIBCMT:undname.obj
 0002:00007628       ??_C@_03KLGMFNMG@?$GAEH?$AA@ 0000000180033628     LIBCMT:undname.obj
 0002:0000762c       ??_C@_05KHLCHHI@?$GARTTI?$AA@ 000000018003362c     LIBCMT:undname.obj
 0002:00007638       ??_C@_0BA@KKLDJDLB@?$GAlocal?5vftable?8?$AA@ 0000000180033638     LIBCMT:undname.obj
 0002:00007648       ??_C@_0CE@IIHCMGGL@?$GAlocal?5vftable?5constructor?5closu@ 0000000180033648     LIBCMT:undname.obj
 0002:0000766c       ??_C@_06FHBGPFGH@?5new?$FL?$FN?$AA@ 000000018003366c     LIBCMT:undname.obj
 0002:00007678       ??_C@_09LBNFPBCA@?5delete?$FL?$FN?$AA@ 0000000180033678     LIBCMT:undname.obj
 0002:00007688       ??_C@_0P@HJKNJFNN@?$GAomni?5callsig?8?$AA@ 0000000180033688     LIBCMT:undname.obj
 0002:00007698       ??_C@_0BL@CNOONJFP@?$GAplacement?5delete?5closure?8?$AA@ 0000000180033698     LIBCMT:undname.obj
 0002:000076b8       ??_C@_0BN@CKNJLHMB@?$GAplacement?5delete?$FL?$FN?5closure?8?$AA@ 00000001800336b8     LIBCMT:undname.obj
 0002:000076d8       ??_C@_0CG@CFDHKGGD@?$GAmanaged?5vector?5constructor?5iter@ 00000001800336d8     LIBCMT:undname.obj
 0002:00007700       ??_C@_0CF@IMGKMJNO@?$GAmanaged?5vector?5destructor?5itera@ 0000000180033700     LIBCMT:undname.obj
 0002:00007728       ??_C@_0CG@HLDDJMAG@?$GAeh?5vector?5copy?5constructor?5iter@ 0000000180033728     LIBCMT:undname.obj
 0002:00007750       ??_C@_0CM@FCBBDIGB@?$GAeh?5vector?5vbase?5copy?5constructo@ 0000000180033750     LIBCMT:undname.obj
 0002:00007780       ??_C@_0BL@CLIPGLGB@?$GAdynamic?5initializer?5for?5?8?$AA@ 0000000180033780     LIBCMT:undname.obj
 0002:000077a0       ??_C@_0CB@PDBIFEP@?$GAdynamic?5atexit?5destructor?5for?5?8@ 00000001800337a0     LIBCMT:undname.obj
 0002:000077c8       ??_C@_0CD@CGAJBKEJ@?$GAvector?5copy?5constructor?5iterato@ 00000001800337c8     LIBCMT:undname.obj
 0002:000077f0       ??_C@_0CJ@GJELGAMM@?$GAvector?5vbase?5copy?5constructor?5i@ 00000001800337f0     LIBCMT:undname.obj
 0002:00007820       ??_C@_0CL@FGIJHLCE@?$GAmanaged?5vector?5copy?5constructor@ 0000000180033820     LIBCMT:undname.obj
 0002:00007850       ??_C@_0BM@PMGGMLDN@?$GAlocal?5static?5thread?5guard?8?$AA@ 0000000180033850     LIBCMT:undname.obj
 0002:00007870       ??_C@_0BC@DAFEJGAK@?5Type?5Descriptor?8?$AA@ 0000000180033870     LIBCMT:undname.obj
 0002:00007888       ??_C@_0BM@LDKODKLH@?5Base?5Class?5Descriptor?5at?5?$CI?$AA@ 0000000180033888     LIBCMT:undname.obj
 0002:000078a8       ??_C@_0BD@LGICGFMM@?5Base?5Class?5Array?8?$AA@ 00000001800338a8     LIBCMT:undname.obj
 0002:000078c0       ??_C@_0BN@MECKDCOJ@?5Class?5Hierarchy?5Descriptor?8?$AA@ 00000001800338c0     LIBCMT:undname.obj
 0002:000078e0       ??_C@_0BK@CFCOFLF@?5Complete?5Object?5Locator?8?$AA@ 00000001800338e0     LIBCMT:undname.obj
 0002:00007900       ??_C@_0M@HHGEPIBF@CreateFile2?$AA@ 0000000180033900     LIBCMT:wopen.obj
 0002:0000790c       ??_C@_06PGGFOGJG@1?$CDSNAN?$AA@ 000000018003390c     LIBCMT:x10fout.obj
 0002:00007914       ??_C@_05PHHOCPM@1?$CDIND?$AA@ 0000000180033914     LIBCMT:x10fout.obj
 0002:0000791c       ??_C@_05DNEBIAHO@1?$CDINF?$AA@ 000000018003391c     LIBCMT:x10fout.obj
 0002:00007924       ??_C@_06IMKFLFPG@1?$CDQNAN?$AA@ 0000000180033924     LIBCMT:x10fout.obj
 0002:00007930       ??_C@_1BA@BALFACEM@?$AAC?$AAO?$AAN?$AAO?$AAU?$AAT?$AA$?$AA?$AA@ 0000000180033930     LIBCMT:initcon.obj
 0002:00007940       ??_C@_0CK@JCPCLECK@external?5memory?5allocation?5limit@ 0000000180033940     Canvas.obj
 0002:00007970       ??_C@_1DG@OKCGPKIB@?$AAp?$AAe?$AAr?$AAs?$AAi?$AAs?$AAt?$AAe?$AAn?$AAt?$AA?$CI?$AA?$CJ?$AA?4?$AAI?$AAs?$AAN?$AAe?$AAa?$AAr?$AAD?$AAe?$AAa?$AAt?$AAh?$AA?$CI?$AA?$CJ?$AA?$AA@ 0000000180033970     Canvas.obj
 0002:000079a8       ??_C@_1CO@EGNPJLKI@?$AAp?$AAe?$AAr?$AAs?$AAi?$AAs?$AAt?$AAe?$AAn?$AAt?$AA?$CI?$AA?$CJ?$AA?4?$AAI?$AAs?$AAE?$AAm?$AAp?$AAt?$AAy?$AA?$CI?$AA?$CJ?$AA?$AA@ 00000001800339a8     Canvas.obj
 0002:000079d8       ??_C@_1DA@FBGAEOIO@?$AA?$CB?$AAp?$AAe?$AAr?$AAs?$AAi?$AAs?$AAt?$AAe?$AAn?$AAt?$AA?$CI?$AA?$CJ?$AA?4?$AAI?$AAs?$AAE?$AAm?$AAp?$AAt?$AAy?$AA?$CI?$AA?$CJ?$AA?$AA@ 00000001800339d8     Canvas.obj
 0002:00007a08       ??_C@_1CO@JCKLEFMA@?$AA?$CB?$AAp?$AAe?$AAr?$AAs?$AAi?$AAs?$AAt?$AAe?$AAn?$AAt?$AA?$CI?$AA?$CJ?$AA?4?$AAI?$AAs?$AAW?$AAe?$AAa?$AAk?$AA?$CI?$AA?$CJ?$AA?$AA@ 0000000180033a08     Canvas.obj
 0002:00007a38       ??_C@_1BE@GMLLOIPJ@?$AAr?$AAe?$AAf?$AAs?$AA_?$AA?5?$AA?$DO?$AA?5?$AA0?$AA?$AA@ 0000000180033a38     Canvas.obj
 0002:00007a50       ??_C@_1CC@GBFLAAPF@?$AAw?$AAr?$AAa?$AAp?$AA?9?$AA?$DO?$AAr?$AAe?$AAf?$AAs?$AA_?$AA?5?$AA?$DN?$AA?$DN?$AA?5?$AA0?$AA?$AA@ 0000000180033a50     Canvas.obj
 0002:00007a78       ??_C@_1DI@ELDBKNAK@?$AAw?$AAr?$AAa?$AAp?$AA?9?$AA?$DO?$AAh?$AAa?$AAn?$AAd?$AAl?$AAe?$AA_?$AA?4?$AAI?$AAs?$AAN?$AAe?$AAa?$AAr?$AAD?$AAe?$AAa?$AAt?$AAh?$AA?$CI?$AA?$CJ?$AA?$AA@ 0000000180033a78     Canvas.obj
 0002:00007ab0       ??_C@_1OC@JGDKNBHA@?$AAC?$AA?3?$AA?2?$AAU?$AAs?$AAe?$AAr?$AAs?$AA?2?$AAB?$AAe?$AAn?$AAn?$AAe?$AAt?$AA?2?$AAD?$AAe?$AAs?$AAk?$AAt?$AAo?$AAp?$AA?2?$AAW?$AAa?$AAr?$AAf?$AAa?$AAc?$AAe?$AAS@ 0000000180033ab0     Canvas.obj
 0002:00007ba0       ??_C@_1FM@LOELJOFK@?$AAs?$AAi?$AAz?$AAe?$AA?5?$AA?$DM?$AA?$DN?$AA?5?$AAi?$AAm?$AAp?$AA?3?$AA?3?$AAk?$AAM?$AAa?$AAx?$AAL?$AAe?$AAn?$AAg?$AAt?$AAh?$AA?5?$AA?$CG?$AA?$CG?$AA?5?$AA?$CC?$AAt?$AAo?$AAo?$AA?5@ 0000000180033ba0     Canvas.obj
 0002:00007c00       ??_C@_1PK@LEOIPOBC@?$AAc?$AA?3?$AA?2?$AAu?$AAs?$AAe?$AAr?$AAs?$AA?2?$AAb?$AAe?$AAn?$AAn?$AAe?$AAt?$AA?2?$AAd?$AAe?$AAs?$AAk?$AAt?$AAo?$AAp?$AA?2?$AAw?$AAa?$AAr?$AAf?$AAa?$AAc?$AAe?$AAs@ 0000000180033c00     Canvas.obj
 0002:00007d00       ??_C@_1EC@MGGLMBLC@?$AAo?$AAb?$AAj?$AAe?$AAc?$AAt?$AA?9?$AA?$DO?$AAI?$AAn?$AAt?$AAe?$AAr?$AAn?$AAa?$AAl?$AAF?$AAi?$AAe?$AAl?$AAd?$AAC?$AAo?$AAu?$AAn?$AAt?$AA?$CI?$AA?$CJ?$AA?5?$AA?$DO?$AA?5?$AA0@ 0000000180033d00     Canvas.obj
 0002:00007d44       ??_C@_05EGBLHKBN@1?44?43?$AA@ 0000000180033d44     Canvas.obj
 0002:00007d4c       ??_C@_06PBIJCONE@Canvas?$AA@ 0000000180033d4c     Canvas.obj
 0002:00007d58       ??_C@_08GOCDALDA@toBuffer?$AA@ 0000000180033d58     Canvas.obj
 0002:00007d68       ??_C@_0O@IOKOGJGN@streamPNGSync?$AA@ 0000000180033d68     Canvas.obj
 0002:00007d78       ??_C@_04GPMDFGEJ@type?$AA@ 0000000180033d78     Canvas.obj
 0002:00007d80       ??_C@_05IGKADHGO@width?$AA@ 0000000180033d80     Canvas.obj
 0002:00007d88       ??_C@_06LNLHEAAG@height?$AA@ 0000000180033d88     Canvas.obj
 0002:00007d90       ??_C@_0P@DNOOAMCM@PNG_NO_FILTERS?$AA@ 0000000180033d90     Canvas.obj
 0002:00007da0       ??_C@_0BA@NECJFJGB@PNG_FILTER_NONE?$AA@ 0000000180033da0     Canvas.obj
 0002:00007db0       ??_C@_0P@ILKINAJE@PNG_FILTER_SUB?$AA@ 0000000180033db0     Canvas.obj
 0002:00007dc0       ??_C@_0O@PHEANGBB@PNG_FILTER_UP?$AA@ 0000000180033dc0     Canvas.obj
 0002:00007dd0       ??_C@_0P@OIJAFJM@PNG_FILTER_AVG?$AA@ 0000000180033dd0     Canvas.obj
 0002:00007de0       ??_C@_0BB@EOMICOFG@PNG_FILTER_PAETH?$AA@ 0000000180033de0     Canvas.obj
 0002:00007df8       ??_C@_0BA@HBOOLNBH@PNG_ALL_FILTERS?$AA@ 0000000180033df8     Canvas.obj
 0002:00007e08       ??_C@_03MJPNCPKC@pdf?$AA@  0000000180033e08     Canvas.obj
 0002:00007e0c       ??_C@_03NNPBMGBD@svg?$AA@  0000000180033e0c     Canvas.obj
 0002:00007e10       ??_C@_05NGOMGBBD@image?$AA@ 0000000180033e10     Canvas.obj
 0002:00007e18       ??_C@_01GBGANLPD@0?$AA@    0000000180033e18     Canvas.obj
 0002:00007e20       ??_C@_0DE@NKCMEFAA@Allowed?5compression?5levels?5lie?5i@ 0000000180033e20     Canvas.obj
 0002:00007e58       ??_C@_0CE@KMCMNKHK@Compression?5level?5must?5be?5a?5numb@ 0000000180033e58     Canvas.obj
 0002:00007e80       ??_C@_0BG@HPFBKLBE@Invalid?5filter?5value?4?$AA@ 0000000180033e80     Canvas.obj
 0002:00007e98       ??_C@_0BL@NEPODJIN@callback?5function?5required?$AA@ 0000000180033e98     Canvas.obj
 0002:00007eb8       ??_C@_1CC@CMIELAMF@?$AA?4?$AA?4?$AA?2?$AAs?$AAr?$AAc?$AA?2?$AAC?$AAa?$AAn?$AAv?$AAa?$AAs?$AA?4?$AAc?$AAc?$AA?$AA@ 0000000180033eb8     Canvas.obj
 0002:00007ee0       ??_C@_1BC@KFAOGGDO@?$AA_?$AAc?$AAl?$AAo?$AAs?$AAu?$AAr?$AAe?$AA?$AA@ 0000000180033ee0     Canvas.obj
 0002:00007ef8       ??_C@_1DO@PEKPJEKO@?$AAs?$AAt?$AAa?$AAt?$AAu?$AAs?$AA?5?$AA?$DN?$AA?$DN?$AA?5?$AAC?$AAA?$AAI?$AAR?$AAO?$AA_?$AAS?$AAT?$AAA?$AAT?$AAU?$AAS?$AA_?$AAS?$AAU?$AAC?$AAC?$AAE?$AAS?$AAS?$AA?$AA@ 0000000180033ef8     Canvas.obj
 0002:00007f38       ??_C@_1BC@OIIGNDNN@?$AA_?$AAs?$AAu?$AAr?$AAf?$AAa?$AAc?$AAe?$AA?$AA@ 0000000180033f38     Canvas.obj
 0002:00007f50       ??_C@_07JKKCBBMM@context?$AA@ 0000000180033f50     Canvas.obj
 0002:00007f58       ??_C@_1CE@LNAGEONJ@?$AA?$CB?$AAo?$AAb?$AAj?$AAe?$AAc?$AAt?$AA?4?$AAI?$AAs?$AAE?$AAm?$AAp?$AAt?$AAy?$AA?$CI?$AA?$CJ?$AA?$AA@ 0000000180033f58     Canvas.obj
 0002:00007f80       ??_7ExternalSourceStream@ScriptCompiler@v8@@6B@ 0000000180033f80     Canvas.obj
 0002:00007fa0       ??_7ObjectWrap@Nan@@6B@    0000000180033fa0     Canvas.obj
 0002:00007fa0       ??_7ImageData@@6B@         0000000180033fa0     ImageData.obj
 0002:00007fb8       ??_7Canvas@@6B@            0000000180033fb8     Canvas.obj
 0002:00007fd0       ??_7ExternalOneByteStringResourceImpl@v8@@6B@ 0000000180033fd0     Canvas.obj
 0002:00007ff0       ??_7Allocator@ArrayBuffer@v8@@6B@ 0000000180033ff0     Canvas.obj
 0002:00008010       ?kMaxLength@String@v8@@2HB 0000000180034010     Canvas.obj
 0002:00008014       ?kInternalFieldCount@ArrayBufferView@v8@@2HB 0000000180034014     Canvas.obj
 0002:00008014       ?kInternalFieldCount@ArrayBuffer@v8@@2HB 0000000180034014     Canvas.obj
 0002:00008014       ?kInternalFieldCount@SharedArrayBuffer@v8@@2HB 0000000180034014     Canvas.obj
 0002:00008018       ?kNoScriptId@UnboundScript@v8@@2HB 0000000180034018     Canvas.obj
 0002:00008018       __real@00000000            0000000180034018     color.obj
 0002:00008018       ?kNoLineNumberInfo@Message@v8@@2HB 0000000180034018     Canvas.obj
 0002:00008018       ?kNoScriptIdInfo@Message@v8@@2HB 0000000180034018     Canvas.obj
 0002:00008018       ?kNoColumnInfo@Message@v8@@2HB 0000000180034018     Canvas.obj
 0002:00008020       ??_7ExternalStringResourceBase@String@v8@@6B@ 0000000180034020     Canvas.obj
 0002:00008030       ??_7Extension@v8@@6B@      0000000180034030     Canvas.obj
 0002:00008040       ??_7ExternalOneByteStringResource@String@v8@@6B@ 0000000180034040     Canvas.obj
 0002:00008040       ??_7ExternalStringResource@String@v8@@6B@ 0000000180034040     Canvas.obj
 0002:00008060       ??_7PersistentHandleVisitor@v8@@6B@ 0000000180034060     Canvas.obj
 0002:00008060       ??_7ExternalResourceVisitor@v8@@6B@ 0000000180034060     Canvas.obj
 0002:00008070       ??_C@_0P@CKNMLMDB@CanvasGradient?$AA@ 0000000180034070     CanvasGradient.obj
 0002:00008080       ??_C@_0N@FFOKKILE@addColorStop?$AA@ 0000000180034080     CanvasGradient.obj
 0002:00008090       ??_C@_0BC@KNPMEBHA@invalid?5arguments?$AA@ 0000000180034090     CanvasGradient.obj
 0002:000080a8       ??_C@_0BA@ELGKPKEI@offset?5required?$AA@ 00000001800340a8     CanvasGradient.obj
 0002:000080b8       ??_C@_0BG@HHHCEBEM@color?5string?5required?$AA@ 00000001800340b8     CanvasGradient.obj
 0002:000080d0       ??_C@_0BD@JKDEPLNJ@parse?5color?5failed?$AA@ 00000001800340d0     CanvasGradient.obj
 0002:000080e8       ??_7Gradient@@6B@          00000001800340e8     CanvasGradient.obj
 0002:00008100       ??_7Pattern@@6B@           0000000180034100     CanvasPattern.obj
 0002:00008118       ??_C@_0O@KEPDKAFI@CanvasPattern?$AA@ 0000000180034118     CanvasPattern.obj
 0002:00008128       ??_C@_0CG@CKGIHBBA@Image?5given?5has?5not?5completed?5lo@ 0000000180034128     CanvasPattern.obj
 0002:00008150       ??_C@_0BJ@NBALILEB@Image?5or?5Canvas?5expected?$AA@ 0000000180034150     CanvasPattern.obj
 0002:00008170       ??_C@_0BJ@OLEJJKDH@CanvasRenderingContext2d?$AA@ 0000000180034170     CanvasRenderingContext2d.obj
 0002:00008190       ??_C@_09LANPKMCJ@drawImage?$AA@ 0000000180034190     CanvasRenderingContext2d.obj
 0002:000081a0       ??_C@_0N@HMHAOANH@putImageData?$AA@ 00000001800341a0     CanvasRenderingContext2d.obj
 0002:000081b0       ??_C@_0N@LJBMKNKJ@getImageData?$AA@ 00000001800341b0     CanvasRenderingContext2d.obj
 0002:000081c0       ??_C@_07IEJLLIOD@addPage?$AA@ 00000001800341c0     CanvasRenderingContext2d.obj
 0002:000081c8       ??_C@_04EMMDIJJL@save?$AA@ 00000001800341c8     CanvasRenderingContext2d.obj
 0002:000081d0       ??_C@_07HICINA@restore?$AA@ 00000001800341d0     CanvasRenderingContext2d.obj
 0002:000081d8       ??_C@_06CEHMNFAL@rotate?$AA@ 00000001800341d8     CanvasRenderingContext2d.obj
 0002:000081e0       ??_C@_09ODNGOEIO@translate?$AA@ 00000001800341e0     CanvasRenderingContext2d.obj
 0002:000081f0       ??_C@_09IFONHNKG@transform?$AA@ 00000001800341f0     CanvasRenderingContext2d.obj
 0002:00008200       ??_C@_0P@KBHJLFLN@resetTransform?$AA@ 0000000180034200     CanvasRenderingContext2d.obj
 0002:00008210       ??_C@_0O@MDNHBEAB@isPointInPath?$AA@ 0000000180034210     CanvasRenderingContext2d.obj
 0002:00008220       ??_C@_05MHMEBBGO@scale?$AA@ 0000000180034220     CanvasRenderingContext2d.obj
 0002:00008228       ??_C@_04POIGMEJN@clip?$AA@ 0000000180034228     CanvasRenderingContext2d.obj
 0002:00008230       ??_C@_04OBAECEGJ@fill?$AA@ 0000000180034230     CanvasRenderingContext2d.obj
 0002:00008238       ??_C@_06JDPPEKDJ@stroke?$AA@ 0000000180034238     CanvasRenderingContext2d.obj
 0002:00008240       ??_C@_08BKNBKKHP@fillText?$AA@ 0000000180034240     CanvasRenderingContext2d.obj
 0002:00008250       ??_C@_0L@NKNGGLJB@strokeText?$AA@ 0000000180034250     CanvasRenderingContext2d.obj
 0002:00008260       ??_C@_08IFOCBDEO@fillRect?$AA@ 0000000180034260     CanvasRenderingContext2d.obj
 0002:00008270       ??_C@_0L@EFOFNCKA@strokeRect?$AA@ 0000000180034270     CanvasRenderingContext2d.obj
 0002:00008280       ??_C@_09CADLENBP@clearRect?$AA@ 0000000180034280     CanvasRenderingContext2d.obj
 0002:0000828c       ??_C@_04LHPFHFPH@rect?$AA@ 000000018003428c     CanvasRenderingContext2d.obj
 0002:00008298       ??_C@_0M@PDPLNFGN@measureText?$AA@ 0000000180034298     CanvasRenderingContext2d.obj
 0002:000082a4       ??_C@_06ICOKFDHB@moveTo?$AA@ 00000001800342a4     CanvasRenderingContext2d.obj
 0002:000082ac       ??_C@_06KCFEGHJL@lineTo?$AA@ 00000001800342ac     CanvasRenderingContext2d.obj
 0002:000082b8       ??_C@_0O@PAEGDEKM@bezierCurveTo?$AA@ 00000001800342b8     CanvasRenderingContext2d.obj
 0002:000082c8       ??_C@_0BB@NNCDNEFE@quadraticCurveTo?$AA@ 00000001800342c8     CanvasRenderingContext2d.obj
 0002:000082e0       ??_C@_09GMDIDHBP@beginPath?$AA@ 00000001800342e0     CanvasRenderingContext2d.obj
 0002:000082f0       ??_C@_09FFNFMCIM@closePath?$AA@ 00000001800342f0     CanvasRenderingContext2d.obj
 0002:000082fc       ??_C@_03EEIEDENP@arc?$AA@  00000001800342fc     CanvasRenderingContext2d.obj
 0002:00008300       ??_C@_05KOMEJIOF@arcTo?$AA@ 0000000180034300     CanvasRenderingContext2d.obj
 0002:00008308       ??_C@_0M@KIBHMOJH@setLineDash?$AA@ 0000000180034308     CanvasRenderingContext2d.obj
 0002:00008318       ??_C@_0M@KHAJBIBE@getLineDash?$AA@ 0000000180034318     CanvasRenderingContext2d.obj
 0002:00008328       ??_C@_08GCBDMPHE@_setFont?$AA@ 0000000180034328     CanvasRenderingContext2d.obj
 0002:00008338       ??_C@_0O@LDAFEHIB@_setFillColor?$AA@ 0000000180034338     CanvasRenderingContext2d.obj
 0002:00008348       ??_C@_0BA@KNEOHGAJ@_setStrokeColor?$AA@ 0000000180034348     CanvasRenderingContext2d.obj
 0002:00008358       ??_C@_0BA@PBFLDAPN@_setFillPattern?$AA@ 0000000180034358     CanvasRenderingContext2d.obj
 0002:00008368       ??_C@_0BC@FDNPDMMP@_setStrokePattern?$AA@ 0000000180034368     CanvasRenderingContext2d.obj
 0002:00008380       ??_C@_0BB@CFGDFFJO@_setTextBaseline?$AA@ 0000000180034380     CanvasRenderingContext2d.obj
 0002:00008398       ??_C@_0BC@FPEBGOFB@_setTextAlignment?$AA@ 0000000180034398     CanvasRenderingContext2d.obj
 0002:000083b0       ??_C@_0P@HGKACBEG@patternQuality?$AA@ 00000001800343b0     CanvasRenderingContext2d.obj
 0002:000083c0       ??_C@_0BJ@KOAEPHEF@globalCompositeOperation?$AA@ 00000001800343c0     CanvasRenderingContext2d.obj
 0002:000083e0       ??_C@_0M@EJNLOLOE@globalAlpha?$AA@ 00000001800343e0     CanvasRenderingContext2d.obj
 0002:000083f0       ??_C@_0M@JPJLLJDB@shadowColor?$AA@ 00000001800343f0     CanvasRenderingContext2d.obj
 0002:00008400       ??_C@_09EGMCAAKI@fillColor?$AA@ 0000000180034400     CanvasRenderingContext2d.obj
 0002:00008410       ??_C@_0M@BLAMIBG@strokeColor?$AA@ 0000000180034410     CanvasRenderingContext2d.obj
 0002:00008420       ??_C@_0L@EFNIPLDK@miterLimit?$AA@ 0000000180034420     CanvasRenderingContext2d.obj
 0002:00008430       ??_C@_09PELAPJEH@lineWidth?$AA@ 0000000180034430     CanvasRenderingContext2d.obj
 0002:00008440       ??_C@_07IPBACFHB@lineCap?$AA@ 0000000180034440     CanvasRenderingContext2d.obj
 0002:00008448       ??_C@_08CCMLJKBL@lineJoin?$AA@ 0000000180034448     CanvasRenderingContext2d.obj
 0002:00008458       ??_C@_0P@NNEFDNMM@lineDashOffset?$AA@ 0000000180034458     CanvasRenderingContext2d.obj
 0002:00008468       ??_C@_0O@FOAIOCIO@shadowOffsetX?$AA@ 0000000180034468     CanvasRenderingContext2d.obj
 0002:00008478       ??_C@_0O@EHBDNDMP@shadowOffsetY?$AA@ 0000000180034478     CanvasRenderingContext2d.obj
 0002:00008488       ??_C@_0L@FJBIPGOL@shadowBlur?$AA@ 0000000180034488     CanvasRenderingContext2d.obj
 0002:00008498       ??_C@_09BEIGEBLF@antialias?$AA@ 0000000180034498     CanvasRenderingContext2d.obj
 0002:000084a8       ??_C@_0BA@GALDJJKL@textDrawingMode?$AA@ 00000001800344a8     CanvasRenderingContext2d.obj
 0002:000084b8       ??_C@_06EOIELIPE@filter?$AA@ 00000001800344b8     CanvasRenderingContext2d.obj
 0002:000084c0       ??_C@_0BA@IBFIJLCO@Canvas?5expected?$AA@ 00000001800344c0     CanvasRenderingContext2d.obj
 0002:000084d0       ??_C@_0CG@EHLCPGGB@only?5PDF?5canvases?5support?5?4nextP@ 00000001800344d0     CanvasRenderingContext2d.obj
 0002:000084f8       ??_C@_0BD@DJPHEEKJ@ImageData?5expected?$AA@ 00000001800344f8     CanvasRenderingContext2d.obj
 0002:00008510       ??_C@_0CH@NDMGIAMG@IndexSizeError?3?5The?5source?5width@ 0000000180034510     CanvasRenderingContext2d.obj
 0002:00008538       ??_C@_0CI@HDADGBDO@IndexSizeError?3?5The?5source?5heigh@ 0000000180034538     CanvasRenderingContext2d.obj
 0002:00008560       ??_C@_0M@OABMHCHE@source?9over?$AA@ 0000000180034560     CanvasRenderingContext2d.obj
 0002:00008570       ??_C@_0M@MKIEODMK@source?9atop?$AA@ 0000000180034570     CanvasRenderingContext2d.obj
 0002:00008580       ??_C@_09CMAEPNDN@source?9in?$AA@ 0000000180034580     CanvasRenderingContext2d.obj
 0002:00008590       ??_C@_0L@CGAPOHFD@source?9out?$AA@ 0000000180034590     CanvasRenderingContext2d.obj
 0002:0000859c       ??_C@_03COLCDPPJ@xor?$AA@  000000018003459c     CanvasRenderingContext2d.obj
 0002:000085a0       ??_C@_0BB@CPBJJEG@destination?9atop?$AA@ 00000001800345a0     CanvasRenderingContext2d.obj
 0002:000085b8       ??_C@_0P@GAHJLNBO@destination?9in?$AA@ 00000001800345b8     CanvasRenderingContext2d.obj
 0002:000085c8       ??_C@_0BA@IECEOLGB@destination?9out?$AA@ 00000001800345c8     CanvasRenderingContext2d.obj
 0002:000085d8       ??_C@_0BB@CIGJAIPI@destination?9over?$AA@ 00000001800345d8     CanvasRenderingContext2d.obj
 0002:000085ec       ??_C@_05MEHLAELG@clear?$AA@ 00000001800345ec     CanvasRenderingContext2d.obj
 0002:000085f4       ??_C@_06OEKOLKIL@source?$AA@ 00000001800345f4     CanvasRenderingContext2d.obj
 0002:000085fc       ??_C@_04EEHDLEKF@dest?$AA@ 00000001800345fc     CanvasRenderingContext2d.obj
 0002:00008604       ??_C@_04DPPOAFIB@over?$AA@ 0000000180034604     CanvasRenderingContext2d.obj
 0002:00008610       ??_C@_08MEKLKAIJ@saturate?$AA@ 0000000180034610     CanvasRenderingContext2d.obj
 0002:00008620       ??_C@_07OODLOHBD@lighten?$AA@ 0000000180034620     CanvasRenderingContext2d.obj
 0002:00008628       ??_C@_03BDGOHNNK@add?$AA@  0000000180034628     CanvasRenderingContext2d.obj
 0002:0000862c       ??_C@_06OCOCEFJK@darker?$AA@ 000000018003462c     CanvasRenderingContext2d.obj
 0002:00008638       ??_C@_08MMOCDOEL@multiply?$AA@ 0000000180034638     CanvasRenderingContext2d.obj
 0002:00008644       ??_C@_06LPLGMLP@screen?$AA@ 0000000180034644     CanvasRenderingContext2d.obj
 0002:00008650       ??_C@_07BJNHBMF@overlay?$AA@ 0000000180034650     CanvasRenderingContext2d.obj
 0002:00008658       ??_C@_0L@CEKGHIKD@hard?9light?$AA@ 0000000180034658     CanvasRenderingContext2d.obj
 0002:00008668       ??_C@_0L@DKCPCJMJ@soft?9light?$AA@ 0000000180034668     CanvasRenderingContext2d.obj
 0002:00008678       ??_C@_07LGBGJPAP@hsl?9hue?$AA@ 0000000180034678     CanvasRenderingContext2d.obj
 0002:00008680       ??_C@_0P@HLIOCFIP@hsl?9saturation?$AA@ 0000000180034680     CanvasRenderingContext2d.obj
 0002:00008690       ??_C@_09IEDFIDAP@hsl?9color?$AA@ 0000000180034690     CanvasRenderingContext2d.obj
 0002:000086a0       ??_C@_0P@HOBGGHID@hsl?9luminosity?$AA@ 00000001800346a0     CanvasRenderingContext2d.obj
 0002:000086b0       ??_C@_0M@HJIFAOGP@color?9dodge?$AA@ 00000001800346b0     CanvasRenderingContext2d.obj
 0002:000086c0       ??_C@_0L@BNODHIAO@color?9burn?$AA@ 00000001800346c0     CanvasRenderingContext2d.obj
 0002:000086d0       ??_C@_0L@CHCOIIBP@difference?$AA@ 00000001800346d0     CanvasRenderingContext2d.obj
 0002:000086e0       ??_C@_09GJPEMMGJ@exclusion?$AA@ 00000001800346e0     CanvasRenderingContext2d.obj
 0002:000086ec       ??_C@_04LBNBHAJC@fast?$AA@ 00000001800346ec     CanvasRenderingContext2d.obj
 0002:000086f4       ??_C@_04DDJAGGFE@good?$AA@ 00000001800346f4     CanvasRenderingContext2d.obj
 0002:000086fc       ??_C@_04MLDDEBAF@best?$AA@ 00000001800346fc     CanvasRenderingContext2d.obj
 0002:00008708       ??_C@_07NHJEPDMH@nearest?$AA@ 0000000180034708     CanvasRenderingContext2d.obj
 0002:00008710       ??_C@_08LJMMPFJO@bilinear?$AA@ 0000000180034710     CanvasRenderingContext2d.obj
 0002:00008720       ??_C@_07IEMLKEO@lighter?$AA@ 0000000180034720     CanvasRenderingContext2d.obj
 0002:00008728       ??_C@_04CGFJFPFD@none?$AA@ 0000000180034728     CanvasRenderingContext2d.obj
 0002:00008730       ??_C@_04GEBBKIAA@gray?$AA@ 0000000180034730     CanvasRenderingContext2d.obj
 0002:00008738       ??_C@_08JOJOGLJH@subpixel?$AA@ 0000000180034738     CanvasRenderingContext2d.obj
 0002:00008748       ??_C@_07DLHCIBDH@default?$AA@ 0000000180034748     CanvasRenderingContext2d.obj
 0002:00008750       ??_C@_04LNEJFJGI@path?$AA@ 0000000180034750     CanvasRenderingContext2d.obj
 0002:00008758       ??_C@_05OIOMJNBL@glyph?$AA@ 0000000180034758     CanvasRenderingContext2d.obj
 0002:00008760       ??_C@_07CIFAGBMG@unknown?$AA@ 0000000180034760     CanvasRenderingContext2d.obj
 0002:00008768       ??_C@_05JDNDNKBA@bevel?$AA@ 0000000180034768     CanvasRenderingContext2d.obj
 0002:00008770       ??_C@_05MIMAKCN@round?$AA@ 0000000180034770     CanvasRenderingContext2d.obj
 0002:00008778       ??_C@_05NJDNHCJA@miter?$AA@ 0000000180034778     CanvasRenderingContext2d.obj
 0002:00008780       ??_C@_06ICDKOIFG@square?$AA@ 0000000180034780     CanvasRenderingContext2d.obj
 0002:00008788       ??_C@_04JOGFAABP@butt?$AA@ 0000000180034788     CanvasRenderingContext2d.obj
 0002:00008790       ??_C@_0BN@MEBGIMHG@Gradient?5or?5Pattern?5expected?$AA@ 0000000180034790     CanvasRenderingContext2d.obj
 0002:000087b0       ??_C@_0BM@CKBGKGDN@lineTo?$CI?$CJ?5x?5must?5be?5a?5number?$AA@ 00000001800347b0     CanvasRenderingContext2d.obj
 0002:000087d0       ??_C@_0BM@PNPECGGF@lineTo?$CI?$CJ?5y?5must?5be?5a?5number?$AA@ 00000001800347d0     CanvasRenderingContext2d.obj
 0002:000087f0       ??_C@_0BM@GIIBHACD@moveTo?$CI?$CJ?5x?5must?5be?5a?5number?$AA@ 00000001800347f0     CanvasRenderingContext2d.obj
 0002:00008810       ??_C@_0BM@LPGDPAHL@moveTo?$CI?$CJ?5y?5must?5be?5a?5number?$AA@ 0000000180034810     CanvasRenderingContext2d.obj
 0002:0000882c       ??_C@_06DAHKLION@italic?$AA@ 000000018003482c     CanvasRenderingContext2d.obj
 0002:00008838       ??_C@_07PNBIOHPA@oblique?$AA@ 0000000180034838     CanvasRenderingContext2d.obj
 0002:00008840       ??_C@_04PJDGFHHN@bold?$AA@ 0000000180034840     CanvasRenderingContext2d.obj
 0002:00008848       ??_C@_0BG@IGICBKHO@actualBoundingBoxLeft?$AA@ 0000000180034848     CanvasRenderingContext2d.obj
 0002:00008860       ??_C@_0BH@KNMENBEI@actualBoundingBoxRight?$AA@ 0000000180034860     CanvasRenderingContext2d.obj
 0002:00008878       ??_C@_0BI@NBNJEOJE@actualBoundingBoxAscent?$AA@ 0000000180034878     CanvasRenderingContext2d.obj
 0002:00008890       ??_C@_0BJ@LKCIMDON@actualBoundingBoxDescent?$AA@ 0000000180034890     CanvasRenderingContext2d.obj
 0002:000088b0       ??_C@_0P@FGHEPLGI@emHeightAscent?$AA@ 00000001800348b0     CanvasRenderingContext2d.obj
 0002:000088c0       ??_C@_0BA@OKENAGP@emHeightDescent?$AA@ 00000001800348c0     CanvasRenderingContext2d.obj
 0002:000088d0       ??_C@_0BD@NGFBNEGE@alphabeticBaseline?$AA@ 00000001800348d0     CanvasRenderingContext2d.obj
 0002:000088e8       ??_C@_0BD@OLBABOEK@vector?$DMT?$DO?5too?5long?$AA@ 00000001800348e8     CanvasRenderingContext2d.obj
 0002:00008900       ??_7Context2d@@6B@         0000000180034900     CanvasRenderingContext2d.obj
 0002:00008918       ??_C@_0M@CEEDCJLA@transparent?$AA@ 0000000180034918     color.obj
 0002:00008928       ??_C@_09GNHGKALJ@aliceblue?$AA@ 0000000180034928     color.obj
 0002:00008938       ??_C@_0N@OJFLMGEJ@antiquewhite?$AA@ 0000000180034938     color.obj
 0002:00008948       ??_C@_04GANAGBLL@aqua?$AA@ 0000000180034948     color.obj
 0002:00008950       ??_C@_0L@MOKEMMG@aquamarine?$AA@ 0000000180034950     color.obj
 0002:0000895c       ??_C@_05CNOJAJLP@azure?$AA@ 000000018003495c     color.obj
 0002:00008964       ??_C@_05EJOPPCPO@beige?$AA@ 0000000180034964     color.obj
 0002:0000896c       ??_C@_06HGAAELGA@bisque?$AA@ 000000018003496c     color.obj
 0002:00008974       ??_C@_05BIMBDNDC@black?$AA@ 0000000180034974     color.obj
 0002:00008980       ??_C@_0P@CMCBOAOE@blanchedalmond?$AA@ 0000000180034980     color.obj
 0002:00008990       ??_C@_04OBGPFBCN@blue?$AA@ 0000000180034990     color.obj
 0002:00008998       ??_C@_0L@LKLKALMM@blueviolet?$AA@ 0000000180034998     color.obj
 0002:000089a4       ??_C@_05EBJGJMAL@brown?$AA@ 00000001800349a4     color.obj
 0002:000089b0       ??_C@_09JHLANABP@burlywood?$AA@ 00000001800349b0     color.obj
 0002:000089c0       ??_C@_09KIJDGGAG@cadetblue?$AA@ 00000001800349c0     color.obj
 0002:000089d0       ??_C@_0L@CHNAEACO@chartreuse?$AA@ 00000001800349d0     color.obj
 0002:000089e0       ??_C@_09BPADAHOC@chocolate?$AA@ 00000001800349e0     color.obj
 0002:000089ec       ??_C@_05JKFECOJP@coral?$AA@ 00000001800349ec     color.obj
 0002:000089f8       ??_C@_0P@KLMOGGLK@cornflowerblue?$AA@ 00000001800349f8     color.obj
 0002:00008a08       ??_C@_08DECOJLB@cornsilk?$AA@ 0000000180034a08     color.obj
 0002:00008a18       ??_C@_07DAGIGOOE@crimson?$AA@ 0000000180034a18     color.obj
 0002:00008a20       ??_C@_04EDBDANFH@cyan?$AA@ 0000000180034a20     color.obj
 0002:00008a28       ??_C@_08MFEOPMII@darkblue?$AA@ 0000000180034a28     color.obj
 0002:00008a38       ??_C@_08GHDCKAPC@darkcyan?$AA@ 0000000180034a38     color.obj
 0002:00008a48       ??_C@_0O@GGJPBKNE@darkgoldenrod?$AA@ 0000000180034a48     color.obj
 0002:00008a58       ??_C@_08EADAAFKF@darkgray?$AA@ 0000000180034a58     color.obj
 0002:00008a68       ??_C@_09MHNMOMAI@darkgreen?$AA@ 0000000180034a68     color.obj
 0002:00008a78       ??_C@_08EHDJKNHJ@darkgrey?$AA@ 0000000180034a78     color.obj
 0002:00008a88       ??_C@_09FAPDIPMK@darkkhaki?$AA@ 0000000180034a88     color.obj
 0002:00008a98       ??_C@_0M@MEEFECHN@darkmagenta?$AA@ 0000000180034a98     color.obj
 0002:00008aa8       ??_C@_0P@BGCLDNDK@darkolivegreen?$AA@ 0000000180034aa8     color.obj
 0002:00008ab8       ??_C@_0L@ICJJPBF@darkorange?$AA@ 0000000180034ab8     color.obj
 0002:00008ac8       ??_C@_0L@EEAHIPOC@darkorchid?$AA@ 0000000180034ac8     color.obj
 0002:00008ad8       ??_C@_07MFAOOMGP@darkred?$AA@ 0000000180034ad8     color.obj
 0002:00008ae0       ??_C@_0L@CKNHPKLG@darksalmon?$AA@ 0000000180034ae0     color.obj
 0002:00008af0       ??_C@_0N@FBOCOPGH@darkseagreen?$AA@ 0000000180034af0     color.obj
 0002:00008b00       ??_C@_0O@PABAFENG@darkslateblue?$AA@ 0000000180034b00     color.obj
 0002:00008b10       ??_C@_0O@HFGOKNPL@darkslategray?$AA@ 0000000180034b10     color.obj
 0002:00008b20       ??_C@_0O@HCGHAFCH@darkslategrey?$AA@ 0000000180034b20     color.obj
 0002:00008b30       ??_C@_0O@HKLGOIEA@darkturquoise?$AA@ 0000000180034b30     color.obj
 0002:00008b40       ??_C@_0L@NGBKDFME@darkviolet?$AA@ 0000000180034b40     color.obj
 0002:00008b50       ??_C@_08CJGCPHKF@deeppink?$AA@ 0000000180034b50     color.obj
 0002:00008b60       ??_C@_0M@BGGBNDNG@deepskyblue?$AA@ 0000000180034b60     color.obj
 0002:00008b70       ??_C@_07DJPEDLIH@dimgray?$AA@ 0000000180034b70     color.obj
 0002:00008b78       ??_C@_07DOPNJDFL@dimgrey?$AA@ 0000000180034b78     color.obj
 0002:00008b80       ??_C@_0L@MIOOBLBJ@dodgerblue?$AA@ 0000000180034b80     color.obj
 0002:00008b90       ??_C@_09ELCPEDIM@firebrick?$AA@ 0000000180034b90     color.obj
 0002:00008ba0       ??_C@_0M@FFMCAIP@floralwhite?$AA@ 0000000180034ba0     color.obj
 0002:00008bb0       ??_C@_0M@HBKAKFBN@forestgreen?$AA@ 0000000180034bb0     color.obj
 0002:00008bc0       ??_C@_07FHEBJCGF@fuchsia?$AA@ 0000000180034bc0     color.obj
 0002:00008bc8       ??_C@_09MIGKOGAO@gainsboro?$AA@ 0000000180034bc8     color.obj
 0002:00008bd8       ??_C@_0L@CELMEDAA@ghostwhite?$AA@ 0000000180034bd8     color.obj
 0002:00008be4       ??_C@_04DBNGNIAN@gold?$AA@ 0000000180034be4     color.obj
 0002:00008bf0       ??_C@_09KJDOAGJL@goldenrod?$AA@ 0000000180034bf0     color.obj
 0002:00008bfc       ??_C@_05GBEEJKMC@green?$AA@ 0000000180034bfc     color.obj
 0002:00008c08       ??_C@_0M@LFPLFELJ@greenyellow?$AA@ 0000000180034c08     color.obj
 0002:00008c14       ??_C@_04GDBIAANM@grey?$AA@ 0000000180034c14     color.obj
 0002:00008c20       ??_C@_08BKNCNHLL@honeydew?$AA@ 0000000180034c20     color.obj
 0002:00008c30       ??_C@_07PCCOEED@hotpink?$AA@ 0000000180034c30     color.obj
 0002:00008c38       ??_C@_09IELIJPNO@indianred?$AA@ 0000000180034c38     color.obj
 0002:00008c44       ??_C@_06MLCCIEFE@indigo?$AA@ 0000000180034c44     color.obj
 0002:00008c4c       ??_C@_05NNJJIMHF@ivory?$AA@ 0000000180034c4c     color.obj
 0002:00008c54       ??_C@_05PGGLPJAA@khaki?$AA@ 0000000180034c54     color.obj
 0002:00008c60       ??_C@_08KJDCPJPL@lavender?$AA@ 0000000180034c60     color.obj
 0002:00008c70       ??_C@_0O@CCCMFNCK@lavenderblush?$AA@ 0000000180034c70     color.obj
 0002:00008c80       ??_C@_09MONDINDP@lawngreen?$AA@ 0000000180034c80     color.obj
 0002:00008c90       ??_C@_0N@ICDCAEHK@lemonchiffon?$AA@ 0000000180034c90     color.obj
 0002:00008ca0       ??_C@_09NBIPJLA@lightblue?$AA@ 0000000180034ca0     color.obj
 0002:00008cb0       ??_C@_0L@BEAGLGMO@lightcoral?$AA@ 0000000180034cb0     color.obj
 0002:00008cc0       ??_C@_09KPGEKFMK@lightcyan?$AA@ 0000000180034cc0     color.obj
 0002:00008cd0       ??_C@_0BF@PJADCIND@lightgoldenrodyellow?$AA@ 0000000180034cd0     color.obj
 0002:00008ce8       ??_C@_09IIGGAAJN@lightgray?$AA@ 0000000180034ce8     color.obj
 0002:00008cf8       ??_C@_0L@OPBGACJD@lightgreen?$AA@ 0000000180034cf8     color.obj
 0002:00008d08       ??_C@_09IPGPKIEB@lightgrey?$AA@ 0000000180034d08     color.obj
 0002:00008d18       ??_C@_09KOBGKMHP@lightpink?$AA@ 0000000180034d18     color.obj
 0002:00008d28       ??_C@_0M@ENCCHKJE@lightsalmon?$AA@ 0000000180034d28     color.obj
 0002:00008d38       ??_C@_0O@BLOIENJC@lightseagreen?$AA@ 0000000180034d38     color.obj
 0002:00008d48       ??_C@_0N@JIFIFCAN@lightskyblue?$AA@ 0000000180034d48     color.obj
 0002:00008d58       ??_C@_0P@LIPDKBMK@lightslategray?$AA@ 0000000180034d58     color.obj
 0002:00008d68       ??_C@_0P@LPPKAJBG@lightslategrey?$AA@ 0000000180034d68     color.obj
 0002:00008d78       ??_C@_0P@EIHJHAMG@lightsteelblue?$AA@ 0000000180034d78     color.obj
 0002:00008d88       ??_C@_0M@FBHPKJLB@lightyellow?$AA@ 0000000180034d88     color.obj
 0002:00008d94       ??_C@_04HLLEONLG@lime?$AA@ 0000000180034d94     color.obj
 0002:00008da0       ??_C@_09JKHHFGDO@limegreen?$AA@ 0000000180034da0     color.obj
 0002:00008dac       ??_C@_05MLLCELJD@linen?$AA@ 0000000180034dac     color.obj
 0002:00008db8       ??_C@_07EMDGAPCI@magenta?$AA@ 0000000180034db8     color.obj
 0002:00008dc0       ??_C@_06BDPIEPJF@maroon?$AA@ 0000000180034dc0     color.obj
 0002:00008dc8       ??_C@_0BB@HHCOFKIC@mediumaquamarine?$AA@ 0000000180034dc8     color.obj
 0002:00008de0       ??_C@_0L@CEFFILOH@mediumblue?$AA@ 0000000180034de0     color.obj
 0002:00008df0       ??_C@_0N@GIADPNAO@mediumorchid?$AA@ 0000000180034df0     color.obj
 0002:00008e00       ??_C@_0N@DDGNBDHJ@mediumpurple?$AA@ 0000000180034e00     color.obj
 0002:00008e10       ??_C@_0P@BNCCGPJD@mediumseagreen?$AA@ 0000000180034e10     color.obj
 0002:00008e20       ??_C@_0BA@EKIMKCFD@mediumslateblue?$AA@ 0000000180034e20     color.obj
 0002:00008e30       ??_C@_0BC@POGDBPNO@mediumspringgreen?$AA@ 0000000180034e30     color.obj
 0002:00008e48       ??_C@_0BA@MACKBOMF@mediumturquoise?$AA@ 0000000180034e48     color.obj
 0002:00008e58       ??_C@_0BA@PNNCDMHM@mediumvioletred?$AA@ 0000000180034e58     color.obj
 0002:00008e68       ??_C@_0N@PJDKAOHK@midnightblue?$AA@ 0000000180034e68     color.obj
 0002:00008e78       ??_C@_09INCGBEJA@mintcream?$AA@ 0000000180034e78     color.obj
 0002:00008e88       ??_C@_09HABDAMOF@mistyrose?$AA@ 0000000180034e88     color.obj
 0002:00008e98       ??_C@_08OIIPPDDA@moccasin?$AA@ 0000000180034e98     color.obj
 0002:00008ea8       ??_C@_0M@OKLAMJCL@navajowhite?$AA@ 0000000180034ea8     color.obj
 0002:00008eb4       ??_C@_04DCMEIHPF@navy?$AA@ 0000000180034eb4     color.obj
 0002:00008ec0       ??_C@_07MBCGBJON@oldlace?$AA@ 0000000180034ec0     color.obj
 0002:00008ec8       ??_C@_05OFIFEKBG@olive?$AA@ 0000000180034ec8     color.obj
 0002:00008ed0       ??_C@_09CNLBGLAE@olivedrab?$AA@ 0000000180034ed0     color.obj
 0002:00008edc       ??_C@_06HDDOCMMN@orange?$AA@ 0000000180034edc     color.obj
 0002:00008ee8       ??_C@_09OPJMLMBK@orangered?$AA@ 0000000180034ee8     color.obj
 0002:00008ef4       ??_C@_06DPBADMDK@orchid?$AA@ 0000000180034ef4     color.obj
 0002:00008f00       ??_C@_0O@KONOLMEH@palegoldenrod?$AA@ 0000000180034f00     color.obj
 0002:00008f10       ??_C@_09NAJHJFNO@palegreen?$AA@ 0000000180034f10     color.obj
 0002:00008f20       ??_C@_0O@LCPHEOND@paleturquoise?$AA@ 0000000180034f20     color.obj
 0002:00008f30       ??_C@_0O@IPAPGMGK@palevioletred?$AA@ 0000000180034f30     color.obj
 0002:00008f40       ??_C@_0L@NPJMDDDD@papayawhip?$AA@ 0000000180034f40     color.obj
 0002:00008f50       ??_C@_09GELOGGEC@peachpuff?$AA@ 0000000180034f50     color.obj
 0002:00008f5c       ??_C@_04MJMKNOJB@peru?$AA@ 0000000180034f5c     color.obj
 0002:00008f64       ??_C@_04ECGBAEOC@pink?$AA@ 0000000180034f64     color.obj
 0002:00008f6c       ??_C@_04DDJGBPMH@plum?$AA@ 0000000180034f6c     color.obj
 0002:00008f78       ??_C@_0L@MNADNFAH@powderblue?$AA@ 0000000180034f78     color.obj
 0002:00008f84       ??_C@_06GEHONCEN@purple?$AA@ 0000000180034f84     color.obj
 0002:00008f90       ??_C@_0O@JGOBAAIL@rebeccapurple?$AA@ 0000000180034f90     color.obj
 0002:00008fa0       ??_C@_03FAAAOPJM@red?$AA@  0000000180034fa0     color.obj
 0002:00008fa8       ??_C@_09DJJHENIF@rosybrown?$AA@ 0000000180034fa8     color.obj
 0002:00008fb8       ??_C@_09FEEJNHFN@royalblue?$AA@ 0000000180034fb8     color.obj
 0002:00008fc8       ??_C@_0M@MOEGEDCP@saddlebrown?$AA@ 0000000180034fc8     color.obj
 0002:00008fd4       ??_C@_06FBMAEJGO@salmon?$AA@ 0000000180034fd4     color.obj
 0002:00008fe0       ??_C@_0L@HLMGLGHH@sandybrown?$AA@ 0000000180034fe0     color.obj
 0002:00008ff0       ??_C@_08EKGLDJFB@seagreen?$AA@ 0000000180034ff0     color.obj
 0002:00009000       ??_C@_08MFJLKPPC@seashell?$AA@ 0000000180035000     color.obj
 0002:0000900c       ??_C@_06CEGMHAGE@sienna?$AA@ 000000018003500c     color.obj
 0002:00009014       ??_C@_06NBGLMDBG@silver?$AA@ 0000000180035014     color.obj
 0002:00009020       ??_C@_07MFCMKLDM@skyblue?$AA@ 0000000180035020     color.obj
 0002:00009028       ??_C@_09DPLBEIJJ@slateblue?$AA@ 0000000180035028     color.obj
 0002:00009038       ??_C@_09LKMPLBLE@slategray?$AA@ 0000000180035038     color.obj
 0002:00009048       ??_C@_09LNMGBJGI@slategrey?$AA@ 0000000180035048     color.obj
 0002:00009054       ??_C@_04HPKDHBOB@snow?$AA@ 0000000180035054     color.obj
 0002:00009060       ??_C@_0M@IPKJFOEB@springgreen?$AA@ 0000000180035060     color.obj
 0002:00009070       ??_C@_09EKEFGALI@steelblue?$AA@ 0000000180035070     color.obj
 0002:0000907c       ??_C@_03IIINPABG@tan?$AA@  000000018003507c     color.obj
 0002:00009080       ??_C@_04LJCKMMGA@teal?$AA@ 0000000180035080     color.obj
 0002:00009088       ??_C@_07CGANODJO@thistle?$AA@ 0000000180035088     color.obj
 0002:00009090       ??_C@_06NALDPNEI@tomato?$AA@ 0000000180035090     color.obj
 0002:00009098       ??_C@_09LFBHPEAP@turquoise?$AA@ 0000000180035098     color.obj
 0002:000090a4       ??_C@_06KNANIGBM@violet?$AA@ 00000001800350a4     color.obj
 0002:000090ac       ??_C@_05PPOGEFHN@wheat?$AA@ 00000001800350ac     color.obj
 0002:000090b4       ??_C@_05PMAELIEO@white?$AA@ 00000001800350b4     color.obj
 0002:000090c0       ??_C@_0L@FDFMBGNF@whitesmoke?$AA@ 00000001800350c0     color.obj
 0002:000090cc       ??_C@_06ENJNJKEL@yellow?$AA@ 00000001800350cc     color.obj
 0002:000090d8       ??_C@_0M@GCLLLGON@yellowgreen?$AA@ 00000001800350d8     color.obj
 0002:000090e8       ??_C@_0O@CAFKCKKM@?$CD?$CF?42x?$CF?42x?$CF?42x?$AA@ 00000001800350e8     color.obj
 0002:000090f8       ??_C@_0BH@IMKFBGII@rgba?$CI?$CFd?0?5?$CFd?0?5?$CFd?0?5?$CF?42f?$CJ?$AA@ 00000001800350f8     color.obj
 0002:00009110       ??_C@_04KDAMFBD@rgb?$CI?$AA@ 0000000180035110     color.obj
 0002:00009118       ??_C@_05KGKCGJPO@rgba?$CI?$AA@ 0000000180035118     color.obj
 0002:00009120       ??_C@_05HBFAAOHC@hsla?$CI?$AA@ 0000000180035120     color.obj
 0002:00009128       ??_C@_04PFIFKHPC@hsl?$CI?$AA@ 0000000180035128     color.obj
 0002:00009130       ??_C@_04CLILDBFP@rgba?$AA@ 0000000180035130     color.obj
 0002:00009138       ??_C@_03FNOJMHE@rgb?$AA@   0000000180035138     color.obj
 0002:0000913c       ??_C@_04NEDOFDLO@hsla?$AA@ 000000018003513c     color.obj
 0002:00009144       ??_C@_03LPNGANKN@hsl?$AA@  0000000180035144     color.obj
 0002:00009ab0       ??_C@_00CNPNBAHC@?$AA@     0000000180035ab0     Image.obj
 0002:00009ab4       ??_C@_05NBEAGECF@Image?$AA@ 0000000180035ab4     Image.obj
 0002:00009ac0       ??_C@_08IPNIAGNA@complete?$AA@ 0000000180035ac0     Image.obj
 0002:00009acc       ??_C@_06FKJAAAAK@onload?$AA@ 0000000180035acc     Image.obj
 0002:00009ad8       ??_C@_07MAAHHAB@onerror?$AA@ 0000000180035ad8     Image.obj
 0002:00009ae0       ??_C@_08ELMFDEKI@dataMode?$AA@ 0000000180035ae0     Image.obj
 0002:00009af0       ??_C@_0L@ICMMJJAL@MODE_IMAGE?$AA@ 0000000180035af0     Image.obj
 0002:00009b00       ??_C@_09IDBFNFDI@MODE_MIME?$AA@ 0000000180035b00     Image.obj
 0002:00009b0c       ??_C@_02JDPG@rb?$AA@       0000000180035b0c     Image.obj
 0002:00009b10       ??_7Image@@6B@             0000000180035b10     Image.obj
 0002:00009b28       ??_C@_09NIGIGFDC@ImageData?$AA@ 0000000180035b28     ImageData.obj
 0002:00009b38       ??_C@_0BK@BFELGOEH@The?5source?5width?5is?5zero?4?$AA@ 0000000180035b38     ImageData.obj
 0002:00009b58       ??_C@_0BL@EMOEEHOI@The?5source?5height?5is?5zero?4?$AA@ 0000000180035b58     ImageData.obj
 0002:00009b78       ??_C@_0CH@IEOMAMPI@The?5input?5data?5has?5a?5zero?5byte?5l@ 0000000180035b78     ImageData.obj
 0002:00009ba0       ??_C@_0DD@ECEPEMHG@The?5input?5data?5byte?5length?5is?5no@ 0000000180035ba0     ImageData.obj
 0002:00009bd8       ??_C@_0DN@JBNNAEFP@The?5input?5data?5byte?5length?5is?5no@ 0000000180035bd8     ImageData.obj
 0002:00009c20       ??_C@_0EB@FFMBNCCC@The?5input?5data?5byte?5length?5is?5no@ 0000000180035c20     ImageData.obj
 0002:00009c70       ??_C@_0EB@JCAHACPK@Expected?5?$CIUint8ClampedArray?0?5wid@ 0000000180035c70     ImageData.obj
 0002:00009cb4       ??_C@_04PJOLNDGD@data?$AA@ 0000000180035cb4     ImageData.obj
 0002:00009cc0       ??_C@_0N@OGDOEBIM@cairoVersion?$AA@ 0000000180035cc0     init.obj
 0002:00009cd0       ??_C@_0P@PAFBMNKD@?4?4?2src?2init?4cc?$AA@ 0000000180035cd0     init.obj
 0002:00009ce0       ??_C@_06DODEBHEI@canvas?$AA@ 0000000180035ce0     init.obj
 0002:00009ce8       ??_C@_08HCOMDCCD@iojs?4exe?$AA@ 0000000180035ce8     win_delay_load_hook.obj
 0002:00009cf8       ??_C@_08JDDNMFDB@node?4exe?$AA@ 0000000180035cf8     win_delay_load_hook.obj
 0002:00009f38       __real@3dcccccd            0000000180035f38     color.obj
 0002:00009f3c       __real@3f000000            0000000180035f3c     CanvasRenderingContext2d.obj
 0002:00009f40       __real@3f13cd36            0000000180035f40     CanvasRenderingContext2d.obj
 0002:00009f44       __real@3f800000            0000000180035f44     color.obj
 0002:00009f48       __real@3fe0000000000000    0000000180035f48     CanvasRenderingContext2d.obj
 0002:00009f50       __real@3fe5555555555555    0000000180035f50     CanvasRenderingContext2d.obj
 0002:00009f58       __real@3ff0000000000000    0000000180035f58     color.obj
 0002:00009f60       __real@3ff6666666666666    0000000180035f60     CanvasRenderingContext2d.obj
 0002:00009f68       __real@40000000            0000000180035f68     color.obj
 0002:00009f70       __real@4000000000000000    0000000180035f70     Image.obj
 0002:00009f78       __real@400921fb54442d18    0000000180035f78     CanvasRenderingContext2d.obj
 0002:00009f80       __real@401921fb54442d18    0000000180035f80     CanvasRenderingContext2d.obj
 0002:00009f88       __real@40400000            0000000180035f88     color.obj
 0002:00009f90       __real@406fe00000000000    0000000180035f90     color.obj
 0002:00009f98       __real@40800000            0000000180035f98     color.obj
 0002:00009f9c       __real@40c00000            0000000180035f9c     color.obj
 0002:00009fa0       __real@41200000            0000000180035fa0     color.obj
 0002:00009fa4       __real@42c80000            0000000180035fa4     color.obj
 0002:00009fa8       __real@437f0000            0000000180035fa8     color.obj
 0002:00009fac       __real@43b40000            0000000180035fac     color.obj
 0002:00009fb0       __real@477fff00            0000000180035fb0     CanvasRenderingContext2d.obj
 0002:00009fb8       __real@bff0000000000000    0000000180035fb8     CanvasRenderingContext2d.obj
 0002:00009fc0       __real@c0c00000            0000000180035fc0     color.obj
 0002:00009fd0       __xmm@3ff00000000000000000000000000000 0000000180035fd0     CanvasRenderingContext2d.obj
 0002:00009fe0       __xmm@80000000000000008000000000000000 0000000180035fe0     CanvasRenderingContext2d.obj
 0002:00009ff0       __xmm@80000000800000008000000080000000 0000000180035ff0     CanvasRenderingContext2d.obj
 0002:0000a5c0       __real@3c91a62633145c07    00000001800365c0     LIBCMT:acos.obj
 0002:0000a5c8       __real@3f0951665d321061    00000001800365c8     LIBCMT:acos.obj
 0002:0000a5d0       __real@3f51e5f887a62135    00000001800365d0     LIBCMT:acos.obj
 0002:0000a5d8       __real@3fac28d390c29690    00000001800365d8     LIBCMT:acos.obj
 0002:0000a5e0       __real@3fbb1a422982ce76    00000001800365e0     LIBCMT:acos.obj
 0002:0000a5e8       __real@3fcd1e4180029834    00000001800365e8     LIBCMT:acos.obj
 0002:0000a5f0       __real@3fd1a2bec1b7ef59    00000001800365f0     LIBCMT:acos.obj
 0002:0000a5f8       __real@3fdc7b297e269eac    00000001800365f8     LIBCMT:acos.obj
 0002:0000a600       __real@3fee324ab418f78d    0000000180036600     LIBCMT:acos.obj
 0002:0000a608       __real@3ff5d6b12001f228    0000000180036608     LIBCMT:acos.obj
 0002:0000a610       __real@3ff921fb54442d18    0000000180036610     LIBCMT:acos.obj
 0002:0000a618       __real@40062021571dccfc    0000000180036618     LIBCMT:acos.obj
 0002:0000a620       __real@400a4646f903cdea    0000000180036620     LIBCMT:acos.obj
 0002:0000a648       ??_C@_05FFFCHCED@acosf?$AA@ 0000000180036648     LIBCMT:acosf.obj
 0002:0000a650       __real@3b81ce6b            0000000180036650     LIBCMT:acosf.obj
 0002:0000a654       __real@3d678bdd            0000000180036654     LIBCMT:acosf.obj
 0002:0000a658       __real@3e3c94dc            0000000180036658     LIBCMT:acosf.obj
 0002:0000a65c       __real@3f561f0d            000000018003665c     LIBCMT:acosf.obj
 0002:0000a660       __real@3f8d6fa5            0000000180036660     LIBCMT:acosf.obj
 0002:0000a664       __real@3fc90fdb            0000000180036664     LIBCMT:acosf.obj
 0002:0000a668       __real@40490fdb            0000000180036668     LIBCMT:acosf.obj
 0002:0000a66c       __real@bc5b3fe1            000000018003666c     LIBCMT:acosf.obj
 0002:0000a670       __real@bf800000            0000000180036670     LIBCMT:acosf.obj
 0002:0000a674       ??_C@_05OOAOEJGP@fmodf?$AA@ 0000000180036674     LIBCMT:fmodf.obj
 0002:0000a67c       ??_C@_05KGFAIMPG@sqrtf?$AA@ 000000018003667c     LIBCMT:sqrtf.obj
 0002:0000ab30       __L_2_by_pi_bits           0000000180036b30     LIBCMT:L2_by_pi_bits.obj
 0002:0000abd0       _load_config_used          0000000180036bd0     LIBCMT:loadcfg.obj
 0002:0000ace0       ??_R1A@?0A@EA@exception@std@@8 0000000180036ce0     libcpmt:xthrow.obj
 0002:0000ad08       ??_R3exception@std@@8      0000000180036d08     libcpmt:xthrow.obj
 0002:0000ad20       ??_R2exception@std@@8      0000000180036d20     libcpmt:xthrow.obj
 0002:0000ad30       ??_R4bad_alloc@std@@6B@    0000000180036d30     libcpmt:xthrow.obj
 0002:0000ad58       ??_R3bad_alloc@std@@8      0000000180036d58     libcpmt:xthrow.obj
 0002:0000ad70       ??_R2bad_alloc@std@@8      0000000180036d70     libcpmt:xthrow.obj
 0002:0000ad88       ??_R1A@?0A@EA@bad_alloc@std@@8 0000000180036d88     libcpmt:xthrow.obj
 0002:0000adb0       ??_R4logic_error@std@@6B@  0000000180036db0     libcpmt:xthrow.obj
 0002:0000add8       ??_R3logic_error@std@@8    0000000180036dd8     libcpmt:xthrow.obj
 0002:0000adf0       ??_R2logic_error@std@@8    0000000180036df0     libcpmt:xthrow.obj
 0002:0000ae08       ??_R1A@?0A@EA@logic_error@std@@8 0000000180036e08     libcpmt:xthrow.obj
 0002:0000ae30       ??_R4length_error@std@@6B@ 0000000180036e30     libcpmt:xthrow.obj
 0002:0000ae58       ??_R3length_error@std@@8   0000000180036e58     libcpmt:xthrow.obj
 0002:0000ae70       ??_R2length_error@std@@8   0000000180036e70     libcpmt:xthrow.obj
 0002:0000ae90       ??_R1A@?0A@EA@length_error@std@@8 0000000180036e90     libcpmt:xthrow.obj
 0002:0000aeb8       ??_R4type_info@@6B@        0000000180036eb8     LIBCMT:typinfo.obj
 0002:0000aee0       ??_R3type_info@@8          0000000180036ee0     LIBCMT:typinfo.obj
 0002:0000aef8       ??_R2type_info@@8          0000000180036ef8     LIBCMT:typinfo.obj
 0002:0000af08       ??_R1A@?0A@EA@type_info@@8 0000000180036f08     LIBCMT:typinfo.obj
 0002:0000af30       ??_R4exception@std@@6B@    0000000180036f30     LIBCMT:stdexcpt.obj
 0002:0000af58       ??_R4bad_exception@std@@6B@ 0000000180036f58     LIBCMT:frame.obj
 0002:0000af80       ??_R3bad_exception@std@@8  0000000180036f80     LIBCMT:frame.obj
 0002:0000af98       ??_R2bad_exception@std@@8  0000000180036f98     LIBCMT:frame.obj
 0002:0000afb0       ??_R1A@?0A@EA@bad_exception@std@@8 0000000180036fb0     LIBCMT:frame.obj
 0002:0000afd8       __rtc_iaa                  0000000180036fd8     LIBCMT:initsect.obj
 0002:0000afe0       __rtc_izz                  0000000180036fe0     LIBCMT:initsect.obj
 0002:0000afe8       __rtc_taa                  0000000180036fe8     LIBCMT:initsect.obj
 0002:0000aff0       __rtc_tzz                  0000000180036ff0     LIBCMT:initsect.obj
 0002:0000dc28       _TI2?AVbad_alloc@std@@     0000000180039c28     libcpmt:xthrow.obj
 0002:0000dc48       _CTA2?AVbad_alloc@std@@    0000000180039c48     libcpmt:xthrow.obj
 0002:0000dc60       _CT??_R0?AVbad_alloc@std@@@8??0bad_alloc@std@@QEAA@AEBV01@@Z24 0000000180039c60     libcpmt:xthrow.obj
 0002:0000dc88       _CT??_R0?AVexception@std@@@8??0exception@std@@QEAA@AEBV01@@Z24 0000000180039c88     libcpmt:xthrow.obj
 0002:0000dcb0       _CT??_R0?AVlogic_error@std@@@8??0logic_error@std@@QEAA@AEBV01@@Z24 0000000180039cb0     libcpmt:xthrow.obj
 0002:0000dcd8       _TI3?AVlength_error@std@@  0000000180039cd8     libcpmt:xthrow.obj
 0002:0000dcf8       _CTA3?AVlength_error@std@@ 0000000180039cf8     libcpmt:xthrow.obj
 0002:0000dd18       _CT??_R0?AVlength_error@std@@@8??0length_error@std@@QEAA@AEBV01@@Z24 0000000180039d18     libcpmt:xthrow.obj
 0002:0000dd40       _TI2?AVbad_exception@std@@ 0000000180039d40     LIBCMT:frame.obj
 0002:0000dd60       _CTA2?AVbad_exception@std@@ 0000000180039d60     LIBCMT:frame.obj
 0002:0000dd78       _CT??_R0?AVbad_exception@std@@@8??0bad_exception@std@@QEAA@AEBV01@@Z24 0000000180039d78     LIBCMT:frame.obj
 0002:0000dd9c       __DELAY_IMPORT_DESCRIPTOR_node_exe 0000000180039d9c     node:node.exe
 0002:0000ddbc       __NULL_DELAY_IMPORT_DESCRIPTOR 0000000180039dbc     node:node.exe
 0002:0000e190       \177node_NULL_THUNK_DATA_DLN 000000018003a190     node:node.exe
 0002:000100f8       \177node_NULL_THUNK_DATA_DLB 000000018003c0f8     node:node.exe
 0002:00014008       __IMPORT_DESCRIPTOR_KERNEL32 0000000180040008     kernel32:KERNEL32.dll
 0002:0001401c       __IMPORT_DESCRIPTOR_libcairo-2 000000018004001c     cairo:libcairo-2.dll
 0002:00014030       __IMPORT_DESCRIPTOR_libpng14-14 0000000180040030     libpng:libpng14-14.dll
 0002:00014044       __NULL_IMPORT_DESCRIPTOR   0000000180040044     kernel32:KERNEL32.dll
 0003:00000000       _Denorm                    0000000180042000     libcpmt:xvalues.obj
 0003:00000010       _Hugeval                   0000000180042010     libcpmt:xvalues.obj
 0003:00000020       _Inf                       0000000180042020     libcpmt:xvalues.obj
 0003:00000030       _Nan                       0000000180042030     libcpmt:xvalues.obj
 0003:00000040       _Snan                      0000000180042040     libcpmt:xvalues.obj
 0003:00000050       _Eps                       0000000180042050     libcpmt:xvalues.obj
 0003:00000060       _Rteps                     0000000180042060     libcpmt:xvalues.obj
 0003:00000070       _Xbig                      0000000180042070     libcpmt:xvalues.obj
 0003:000000f0       _fltused                   00000001800420f0     LIBCMT:fpinit.obj
 0003:000000f4       _ldused                    00000001800420f4     LIBCMT:fpinit.obj
 0003:000000f8       __security_cookie          00000001800420f8     LIBCMT:gs_cookie.obj
 0003:00000100       __security_cookie_complement 0000000180042100     LIBCMT:gs_cookie.obj
 0003:00000108       __isa_available            0000000180042108     LIBCMT:cpu_disp.obj
 0003:0000010c       __isa_enabled              000000018004210c     LIBCMT:cpu_disp.obj
 0003:00000280       __abort_behavior           0000000180042280     LIBCMT:abort.obj
 0003:00000290       _iob                       0000000180042290     LIBCMT:_file.obj
 0003:00000658       __nullstring               0000000180042658     LIBCMT:output.obj
 0003:00000660       __wnullstring              0000000180042660     LIBCMT:output.obj
 0003:00000670       _lookuptrailbytes          0000000180042670     LIBCMT:read.obj
 0003:00000770       _mbctype                   0000000180042770     LIBCMT:mbctype.obj
 0003:00000880       _mbcasemap                 0000000180042880     LIBCMT:mbctype.obj
 0003:00000980       __initialmbcinfo           0000000180042980     LIBCMT:mbctype.obj
 0003:00000ca0       __ptmbcinfo                0000000180042ca0     LIBCMT:mbctype.obj
 0003:00000ca8       __flsindex                 0000000180042ca8     LIBCMT:tidtable.obj
 0003:00000cac       __mb_cur_max               0000000180042cac     LIBCMT:nlsdata.obj
 0003:00000cb0       __wclocalestr              0000000180042cb0     LIBCMT:nlsdata.obj
 0003:00000cc0       __lc_time_c                0000000180042cc0     LIBCMT:nlsdata.obj
 0003:00000f80       __ptlocinfo                0000000180042f80     LIBCMT:nlsdata.obj
 0003:00000f90       __initiallocinfo           0000000180042f90     LIBCMT:nlsdata.obj
 0003:000010e8       __globallocalestatus       00000001800430e8     LIBCMT:glstatus.obj
 0003:00001100       __badioinfo                0000000180043100     LIBCMT:ioinit.obj
 0003:00001160       _cfltcvt_tab               0000000180043160     LIBCMT:cmiscdat.obj
 0003:000015c0       _matherr_flag              00000001800435c0     LIBCMT:matherr.obj
 0003:000015d0       __lconv_c                  00000001800435d0     LIBCMT:lconv.obj
 0003:00001668       __lconv_static_decimal     0000000180043668     LIBCMT:lconv.obj
 0003:0000166c       __lconv_static_W_decimal   000000018004366c     LIBCMT:lconv.obj
 0003:00001670       __lconv                    0000000180043670     LIBCMT:lconv.obj
 0003:00001678       _pctype                    0000000180043678     LIBCMT:ctype.obj
 0003:00001680       _pwctype                   0000000180043680     LIBCMT:ctype.obj
 0003:00001690       _d_inf                     0000000180043690     LIBCMT:util.obj
 0003:00001698       _d_ind                     0000000180043698     LIBCMT:util.obj
 0003:000016a0       _d_max                     00000001800436a0     LIBCMT:util.obj
 0003:000016a8       _d_min                     00000001800436a8     LIBCMT:util.obj
 0003:000016b0       _d_mzero                   00000001800436b0     LIBCMT:util.obj
 0003:000016f0       _confh                     00000001800436f0     LIBCMT:initcon.obj
 0003:00001700       _pow10pos                  0000000180043700     LIBCMT:constpow.obj
 0003:00001860       _pow10neg                  0000000180043860     LIBCMT:constpow.obj
 0003:000019c0       _HUGE                      00000001800439c0     LIBCMT:huge.obj
 0003:00001a10       __pfnDliNotifyHook2        0000000180043a10     win_delay_load_hook.obj
 0003:00001a20       ??_R0?AVbad_alloc@std@@@8  0000000180043a20     libcpmt:xthrow.obj
 0003:00001a48       ??_R0?AVexception@std@@@8  0000000180043a48     libcpmt:xthrow.obj
 0003:00001a70       ??_R0?AVlogic_error@std@@@8 0000000180043a70     libcpmt:xthrow.obj
 0003:00001a98       ??_R0?AVlength_error@std@@@8 0000000180043a98     libcpmt:xthrow.obj
 0003:00001ac0       ??_R0?AVtype_info@@@8      0000000180043ac0     LIBCMT:typinfo.obj
 0003:00001ae0       ??_R0?AVbad_exception@std@@@8 0000000180043ae0     LIBCMT:frame.obj
 0003:00001b08       __imp_?Data@Buffer@node@@YAPEADV?$Local@VObject@v8@@@v8@@@Z 0000000180043b08     node:node.exe
 0003:00001b10       __imp_?Copy@Buffer@node@@YA?AV?$MaybeLocal@VObject@v8@@@v8@@PEAVIsolate@4@PEBD_K@Z 0000000180043b10     node:node.exe
 0003:00001b18       __imp_?MakeCallback@node@@YA?AV?$Local@VValue@v8@@@v8@@PEAVIsolate@3@V?$Local@VObject@v8@@@3@V?$Local@VFunction@v8@@@3@HPEAV23@@Z 0000000180043b18     node:node.exe
 0003:00001b20       __imp_uv_default_loop      0000000180043b20     node:node.exe
 0003:00001b28       __imp_?ReThrow@TryCatch@v8@@QEAA?AV?$Local@VValue@v8@@@2@XZ 0000000180043b28     node:node.exe
 0003:00001b30       __imp_?HasCaught@TryCatch@v8@@QEBA_NXZ 0000000180043b30     node:node.exe
 0003:00001b38       __imp_??1TryCatch@v8@@QEAA@XZ 0000000180043b38     node:node.exe
 0003:00001b40       __imp_??0TryCatch@v8@@QEAA@XZ 0000000180043b40     node:node.exe
 0003:00001b48       __imp_?Initialize@Locker@v8@@AEAAXPEAVIsolate@2@@Z 0000000180043b48     node:node.exe
 0003:00001b50       __imp_?New@Signature@v8@@SA?AV?$Local@VSignature@v8@@@2@PEAVIsolate@2@V?$Local@VFunctionTemplate@v8@@@2@@Z 0000000180043b50     node:node.exe
 0003:00001b58       __imp_?GetId@UnboundScript@v8@@QEAAHXZ 0000000180043b58     node:node.exe
 0003:00001b60       __imp_?Global@Context@v8@@QEAA?AV?$Local@VObject@v8@@@2@XZ 0000000180043b60     node:node.exe
 0003:00001b68       __imp_?GetUnboundScript@Script@v8@@QEAA?AV?$Local@VUnboundScript@v8@@@2@XZ 0000000180043b68     node:node.exe
 0003:00001b70       __imp_?ToLocalEmpty@V8@v8@@CAXXZ 0000000180043b70     node:node.exe
 0003:00001b78       __imp_?ClearWeak@V8@v8@@CAPEAXPEAPEAVObject@internal@2@@Z 0000000180043b78     node:node.exe
 0003:00001b80       __imp_?MakeWeak@V8@v8@@CAXPEAPEAVObject@internal@2@PEAXP6AXAEBV?$WeakCallbackInfo@X@2@@ZW4WeakCallbackType@2@@Z 0000000180043b80     node:node.exe
 0003:00001b88       __imp_?DisposeGlobal@V8@v8@@CAXPEAPEAVObject@internal@2@@Z 0000000180043b88     node:node.exe
 0003:00001b90       __imp_?GlobalizeReference@V8@v8@@CAPEAPEAVObject@internal@2@PEAVIsolate@42@PEAPEAV342@@Z 0000000180043b90     node:node.exe
 0003:00001b98       __imp_?Escape@EscapableHandleScope@v8@@AEAAPEAPEAVObject@internal@2@PEAPEAV342@@Z 0000000180043b98     node:node.exe
 0003:00001ba0       __imp_??0EscapableHandleScope@v8@@QEAA@PEAVIsolate@1@@Z 0000000180043ba0     node:node.exe
 0003:00001ba8       __imp_?StrictEquals@Value@v8@@QEBA_NV?$Local@VValue@v8@@@2@@Z 0000000180043ba8     node:node.exe
 0003:00001bb0       __imp_?Uint32Value@Value@v8@@QEBAIXZ 0000000180043bb0     node:node.exe
 0003:00001bb8       __imp_?ToInt32@Value@v8@@QEBA?AV?$MaybeLocal@VInt32@v8@@@2@V?$Local@VContext@v8@@@2@@Z 0000000180043bb8     node:node.exe
 0003:00001bc0       __imp_?ToUint32@Value@v8@@QEBA?AV?$MaybeLocal@VUint32@v8@@@2@V?$Local@VContext@v8@@@2@@Z 0000000180043bc0     node:node.exe
 0003:00001bc8       __imp_?ToInteger@Value@v8@@QEBA?AV?$MaybeLocal@VInteger@v8@@@2@V?$Local@VContext@v8@@@2@@Z 0000000180043bc8     node:node.exe
 0003:00001bd0       __imp_?ToObject@Value@v8@@QEBA?AV?$MaybeLocal@VObject@v8@@@2@V?$Local@VContext@v8@@@2@@Z 0000000180043bd0     node:node.exe
 0003:00001bd8       __imp_?ToDetailString@Value@v8@@QEBA?AV?$MaybeLocal@VString@v8@@@2@V?$Local@VContext@v8@@@2@@Z 0000000180043bd8     node:node.exe
 0003:00001be0       __imp_?ToString@Value@v8@@QEBA?AV?$MaybeLocal@VString@v8@@@2@V?$Local@VContext@v8@@@2@@Z 0000000180043be0     node:node.exe
 0003:00001be8       __imp_?ToNumber@Value@v8@@QEBA?AV?$MaybeLocal@VNumber@v8@@@2@V?$Local@VContext@v8@@@2@@Z 0000000180043be8     node:node.exe
 0003:00001bf0       __imp_?ToBoolean@Value@v8@@QEBA?AV?$MaybeLocal@VBoolean@v8@@@2@V?$Local@VContext@v8@@@2@@Z 0000000180043bf0     node:node.exe
 0003:00001bf8       __imp_?IsUint32@Value@v8@@QEBA_NXZ 0000000180043bf8     node:node.exe
 0003:00001c00       __imp_?IsNumber@Value@v8@@QEBA_NXZ 0000000180043c00     node:node.exe
 0003:00001c08       __imp_?IsFunction@Value@v8@@QEBA_NXZ 0000000180043c08     node:node.exe
 0003:00001c10       __imp_?SetClassName@FunctionTemplate@v8@@QEAAXV?$Local@VString@v8@@@2@@Z 0000000180043c10     node:node.exe
 0003:00001c18       __imp_?PrototypeTemplate@FunctionTemplate@v8@@QEAA?AV?$Local@VObjectTemplate@v8@@@2@XZ 0000000180043c18     node:node.exe
 0003:00001c20       __imp_?InstanceTemplate@FunctionTemplate@v8@@QEAA?AV?$Local@VObjectTemplate@v8@@@2@XZ 0000000180043c20     node:node.exe
 0003:00001c28       __imp_?GetFunction@FunctionTemplate@v8@@QEAA?AV?$Local@VFunction@v8@@@2@XZ 0000000180043c28     node:node.exe
 0003:00001c30       __imp_?GetFunction@FunctionTemplate@v8@@QEAA?AV?$MaybeLocal@VFunction@v8@@@2@V?$Local@VContext@v8@@@2@@Z 0000000180043c30     node:node.exe
 0003:00001c38       __imp_?New@FunctionTemplate@v8@@SA?AV?$Local@VFunctionTemplate@v8@@@2@PEAVIsolate@2@P6AXAEBV?$FunctionCallbackInfo@VValue@v8@@@2@@ZV?$Local@VValue@v8@@@2@V?$Local@VSignature@v8@@@2@H@Z 0000000180043c38     node:node.exe
 0003:00001c40       __imp_?Error@Exception@v8@@SA?AV?$Local@VValue@v8@@@2@V?$Local@VString@v8@@@2@@Z 0000000180043c40     node:node.exe
 0003:00001c48       __imp_?TypeError@Exception@v8@@SA?AV?$Local@VValue@v8@@@2@V?$Local@VString@v8@@@2@@Z 0000000180043c48     node:node.exe
 0003:00001c50       __imp_?RangeError@Exception@v8@@SA?AV?$Local@VValue@v8@@@2@V?$Local@VString@v8@@@2@@Z 0000000180043c50     node:node.exe
 0003:00001c58       __imp_??1Utf8Value@String@v8@@QEAA@XZ 0000000180043c58     node:node.exe
 0003:00001c60       __imp_??0Utf8Value@String@v8@@QEAA@V?$Local@VValue@v8@@@2@@Z 0000000180043c60     node:node.exe
 0003:00001c68       __imp_?NewFromUtf8@String@v8@@SA?AV?$MaybeLocal@VString@v8@@@2@PEAVIsolate@2@PEBDW4NewStringType@2@H@Z 0000000180043c68     node:node.exe
 0003:00001c70       __imp_?CreateHandle@HandleScope@v8@@KAPEAPEAVObject@internal@2@PEAVIsolate@42@PEAV342@@Z 0000000180043c70     node:node.exe
 0003:00001c78       __imp_?CreateHandle@HandleScope@v8@@CAPEAPEAVObject@internal@2@PEAVHeapObject@42@PEAV342@@Z 0000000180043c78     node:node.exe
 0003:00001c80       __imp_??1HandleScope@v8@@QEAA@XZ 0000000180043c80     node:node.exe
 0003:00001c88       __imp_??0HandleScope@v8@@QEAA@PEAVIsolate@1@@Z 0000000180043c88     node:node.exe
 0003:00001c90       __imp_?New@Number@v8@@SA?AV?$Local@VNumber@v8@@@2@PEAVIsolate@2@N@Z 0000000180043c90     node:node.exe
 0003:00001c98       __imp_?SlowGetAlignedPointerFromInternalField@Object@v8@@AEAAPEAXH@Z 0000000180043c98     node:node.exe
 0003:00001ca0       __imp_?SlowGetInternalField@Object@v8@@AEAA?AV?$Local@VValue@v8@@@2@H@Z 0000000180043ca0     node:node.exe
 0003:00001ca8       __imp_?New@Object@v8@@SA?AV?$Local@VObject@v8@@@2@PEAVIsolate@2@@Z 0000000180043ca8     node:node.exe
 0003:00001cb0       __imp_?SetAlignedPointerInInternalField@Object@v8@@QEAAXHPEAX@Z 0000000180043cb0     node:node.exe
 0003:00001cb8       __imp_?SetInternalField@Object@v8@@QEAAXHV?$Local@VValue@v8@@@2@@Z 0000000180043cb8     node:node.exe
 0003:00001cc0       __imp_?InternalFieldCount@Object@v8@@QEAAHXZ 0000000180043cc0     node:node.exe
 0003:00001cc8       __imp_?Get@Object@v8@@QEAA?AV?$Local@VValue@v8@@@2@V32@@Z 0000000180043cc8     node:node.exe
 0003:00001cd0       __imp_?Get@Object@v8@@QEAA?AV?$Local@VValue@v8@@@2@I@Z 0000000180043cd0     node:node.exe
 0003:00001cd8       __imp_?Set@Object@v8@@QEAA?AV?$Maybe@_N@2@V?$Local@VContext@v8@@@2@V?$Local@VValue@v8@@@2@1@Z 0000000180043cd8     node:node.exe
 0003:00001ce0       __imp_?Set@Object@v8@@QEAA?AV?$Maybe@_N@2@V?$Local@VContext@v8@@@2@IV?$Local@VValue@v8@@@2@@Z 0000000180043ce0     node:node.exe
 0003:00001ce8       __imp_?Initialize@Unlocker@v8@@AEAAXPEAVIsolate@2@@Z 0000000180043ce8     node:node.exe
 0003:00001cf0       __imp_?Set@Template@v8@@QEAAXV?$Local@VName@v8@@@2@V?$Local@VData@v8@@@2@W4PropertyAttribute@2@@Z 0000000180043cf0     node:node.exe
 0003:00001cf8       __imp_?SetInternalFieldCount@ObjectTemplate@v8@@QEAAXH@Z 0000000180043cf8     node:node.exe
 0003:00001d00       __imp_?SetHandler@ObjectTemplate@v8@@QEAAXAEBUIndexedPropertyHandlerConfiguration@2@@Z 0000000180043d00     node:node.exe
 0003:00001d08       __imp_?SetAccessor@ObjectTemplate@v8@@QEAAXV?$Local@VName@v8@@@2@P6AX0AEBV?$PropertyCallbackInfo@VValue@v8@@@2@@ZP6AX0V?$Local@VValue@v8@@@2@AEBV?$PropertyCallbackInfo@X@2@@Z3W4AccessControl@2@W4PropertyAttribute@2@V?$Local@VAccessorSignature@v8@@@2@@Z 0000000180043d08     node:node.exe
 0003:00001d10       __imp_?NewInstance@ObjectTemplate@v8@@QEAA?AV?$MaybeLocal@VObject@v8@@@2@V?$Local@VContext@v8@@@2@@Z 0000000180043d10     node:node.exe
 0003:00001d18       __imp_?New@ObjectTemplate@v8@@SA?AV?$Local@VObjectTemplate@v8@@@2@PEAVIsolate@2@V?$Local@VFunctionTemplate@v8@@@2@@Z 0000000180043d18     node:node.exe
 0003:00001d20       __imp_?NewFromUnsigned@Integer@v8@@SA?AV?$Local@VInteger@v8@@@2@PEAVIsolate@2@I@Z 0000000180043d20     node:node.exe
 0003:00001d28       __imp_?SetName@Function@v8@@QEAAXV?$Local@VString@v8@@@2@@Z 0000000180043d28     node:node.exe
 0003:00001d30       __imp_?NewInstance@Function@v8@@QEBA?AV?$MaybeLocal@VObject@v8@@@2@V?$Local@VContext@v8@@@2@HQEAV?$Local@VValue@v8@@@2@@Z 0000000180043d30     node:node.exe
 0003:00001d38       __imp_?CollectAllGarbage@Isolate@v8@@AEAAXPEBD@Z 0000000180043d38     node:node.exe
 0003:00001d40       __imp_?VisitHandlesForPartialDependence@Isolate@v8@@QEAAXPEAVPersistentHandleVisitor@2@@Z 0000000180043d40     node:node.exe
 0003:00001d48       __imp_?VisitHandlesWithClassIds@Isolate@v8@@QEAAXPEAVPersistentHandleVisitor@2@@Z 0000000180043d48     node:node.exe
 0003:00001d50       __imp_?VisitExternalResources@Isolate@v8@@QEAAXPEAVExternalResourceVisitor@2@@Z 0000000180043d50     node:node.exe
 0003:00001d58       __imp_?RemoveMemoryAllocationCallback@Isolate@v8@@QEAAXP6AXW4ObjectSpace@2@W4AllocationAction@2@H@Z@Z 0000000180043d58     node:node.exe
 0003:00001d60       __imp_?AddMemoryAllocationCallback@Isolate@v8@@QEAAXP6AXW4ObjectSpace@2@W4AllocationAction@2@H@Z01@Z 0000000180043d60     node:node.exe
 0003:00001d68       __imp_?SetCaptureStackTraceForUncaughtExceptions@Isolate@v8@@QEAAX_NHW4StackTraceOptions@StackTrace@2@@Z 0000000180043d68     node:node.exe
 0003:00001d70       __imp_?SetFailedAccessCheckCallbackFunction@Isolate@v8@@QEAAXP6AXV?$Local@VObject@v8@@@2@W4AccessType@2@V?$Local@VValue@v8@@@2@@Z@Z 0000000180043d70     node:node.exe
 0003:00001d78       __imp_?RemoveMessageListeners@Isolate@v8@@QEAAXP6AXV?$Local@VMessage@v8@@@2@V?$Local@VValue@v8@@@2@@Z@Z 0000000180043d78     node:node.exe
 0003:00001d80       __imp_?AddMessageListener@Isolate@v8@@QEAA_NP6AXV?$Local@VMessage@v8@@@2@V?$Local@VValue@v8@@@2@@Z1@Z 0000000180043d80     node:node.exe
 0003:00001d88       __imp_?IsDead@Isolate@v8@@QEAA_NXZ 0000000180043d88     node:node.exe
 0003:00001d90       __imp_?SetAllowCodeGenerationFromStringsCallback@Isolate@v8@@QEAAXP6A_NV?$Local@VContext@v8@@@2@@Z@Z 0000000180043d90     node:node.exe
 0003:00001d98       __imp_?SetFatalErrorHandler@Isolate@v8@@QEAAXP6AXPEBD0@Z@Z 0000000180043d98     node:node.exe
 0003:00001da0       __imp_?CancelTerminateExecution@Isolate@v8@@QEAAXXZ 0000000180043da0     node:node.exe
 0003:00001da8       __imp_?IsExecutionTerminating@Isolate@v8@@QEAA_NXZ 0000000180043da8     node:node.exe
 0003:00001db0       __imp_?TerminateExecution@Isolate@v8@@QEAAXXZ 0000000180043db0     node:node.exe
 0003:00001db8       __imp_?RemoveGCEpilogueCallback@Isolate@v8@@QEAAXP6AXPEAV12@W4GCType@2@W4GCCallbackFlags@2@@Z@Z 0000000180043db8     node:node.exe
 0003:00001dc0       __imp_?RemoveGCPrologueCallback@Isolate@v8@@QEAAXP6AXPEAV12@W4GCType@2@W4GCCallbackFlags@2@@Z@Z 0000000180043dc0     node:node.exe
 0003:00001dc8       __imp_?ThrowException@Isolate@v8@@QEAA?AV?$Local@VValue@v8@@@2@V32@@Z 0000000180043dc8     node:node.exe
 0003:00001dd0       __imp_?GetCurrentContext@Isolate@v8@@QEAA?AV?$Local@VContext@v8@@@2@XZ 0000000180043dd0     node:node.exe
 0003:00001dd8       __imp_?Exit@Isolate@v8@@QEAAXXZ 0000000180043dd8     node:node.exe
 0003:00001de0       __imp_?Enter@Isolate@v8@@QEAAXXZ 0000000180043de0     node:node.exe
 0003:00001de8       __imp_?GetCurrent@Isolate@v8@@SAPEAV12@XZ 0000000180043de8     node:node.exe
 0003:00001df0       __imp_?ResetToBookmark@ExternalSourceStream@ScriptCompiler@v8@@UEAAXXZ 0000000180043df0     node:node.exe
 0003:00001df8       __imp_?SetBookmark@ExternalSourceStream@ScriptCompiler@v8@@UEAA_NXZ 0000000180043df8     node:node.exe
 0003:00001e00       __imp_?Value@External@v8@@QEBAPEAXXZ 0000000180043e00     node:node.exe
 0003:00001e08       __imp_?New@External@v8@@SA?AV?$Local@VExternal@v8@@@2@PEAVIsolate@2@PEAX@Z 0000000180043e08     node:node.exe
 0003:00001e10       __imp_uv_queue_work        0000000180043e10     node:node.exe
 0003:00001e18       __imp_?NumberValue@Value@v8@@QEBANXZ 0000000180043e18     node:node.exe
 0003:00001e20       __imp_?HasInstance@FunctionTemplate@v8@@QEAA_NV?$Local@VValue@v8@@@2@@Z 0000000180043e20     node:node.exe
 0003:00001e28       __imp_?New@Uint8ClampedArray@v8@@SA?AV?$Local@VUint8ClampedArray@v8@@@2@V?$Local@VArrayBuffer@v8@@@2@_K1@Z 0000000180043e28     node:node.exe
 0003:00001e30       __imp_?Int32Value@Value@v8@@QEBAHXZ 0000000180043e30     node:node.exe
 0003:00001e38       __imp_?BooleanValue@Value@v8@@QEBA_NXZ 0000000180043e38     node:node.exe
 0003:00001e40       __imp_?IsInt32@Value@v8@@QEBA_NXZ 0000000180043e40     node:node.exe
 0003:00001e48       __imp_?IsArray@Value@v8@@QEBA_NXZ 0000000180043e48     node:node.exe
 0003:00001e50       __imp_?New@Array@v8@@SA?AV?$Local@VArray@v8@@@2@PEAVIsolate@2@H@Z 0000000180043e50     node:node.exe
 0003:00001e58       __imp_?Length@Array@v8@@QEBAIXZ 0000000180043e58     node:node.exe
 0003:00001e60       __imp_?Set@Object@v8@@QEAA_NV?$Local@VValue@v8@@@2@0@Z 0000000180043e60     node:node.exe
 0003:00001e68       __imp_?New@Integer@v8@@SA?AV?$Local@VInteger@v8@@@2@PEAVIsolate@2@H@Z 0000000180043e68     node:node.exe
 0003:00001e70       __imp_?NewInstance@Function@v8@@QEBA?AV?$Local@VObject@v8@@@2@HQEAV?$Local@VValue@v8@@@2@@Z 0000000180043e70     node:node.exe
 0003:00001e78       __imp_?GetContents@ArrayBuffer@v8@@QEAA?AVContents@12@XZ 0000000180043e78     node:node.exe
 0003:00001e80       __imp_?New@ArrayBuffer@v8@@SA?AV?$Local@VArrayBuffer@v8@@@2@PEAVIsolate@2@_K@Z 0000000180043e80     node:node.exe
 0003:00001e88       __imp_?Length@Buffer@node@@YA_KV?$Local@VObject@v8@@@v8@@@Z 0000000180043e88     node:node.exe
 0003:00001e90       __imp_?HasInstance@Buffer@node@@YA_NV?$Local@VValue@v8@@@v8@@@Z 0000000180043e90     node:node.exe
 0003:00001e98       __imp_?Buffer@ArrayBufferView@v8@@QEAA?AV?$Local@VArrayBuffer@v8@@@2@XZ 0000000180043e98     node:node.exe
 0003:00001ea0       __imp_?IsUint8ClampedArray@Value@v8@@QEBA_NXZ 0000000180043ea0     node:node.exe
 0003:00001ea8       __imp_?Length@TypedArray@v8@@QEAA_KXZ 0000000180043ea8     node:node.exe
 0003:00001eb0       __imp_node_module_register 0000000180043eb0     node:node.exe
 0003:00001eb8       \177node_NULL_THUNK_DATA_DLA 0000000180043eb8     node:node.exe
 0003:00001ec0       __hmod__node_exe           0000000180043ec0     node:node.exe
 0003:00001ed0       _Zero                      0000000180043ed0     libcpmt:xvalues.obj
 0003:00001ee8       _aenvptr                   0000000180043ee8     LIBCMT:dllcrt0.obj
 0003:00001ef0       _wenvptr                   0000000180043ef0     LIBCMT:dllcrt0.obj
 0003:00001ef8       __fastflag                 0000000180043ef8     LIBCMT:fpinit.obj
 0003:00002474       __favor                    0000000180044474     LIBCMT:cpu_disp.obj
 0003:00002478       _crtheap                   0000000180044478     LIBCMT:heapinit.obj
 0003:00002480       ?_pnhHeap@@3P6AH_K@ZEA     0000000180044480     LIBCMT:handler.obj
 0003:00002488       _C_Exit_Done               0000000180044488     LIBCMT:crt0dat.obj
 0003:0000248c       __argc                     000000018004448c     LIBCMT:crt0dat.obj
 0003:00002490       __argv                     0000000180044490     LIBCMT:crt0dat.obj
 0003:00002498       __wargv                    0000000180044498     LIBCMT:crt0dat.obj
 0003:000024a0       _environ                   00000001800444a0     LIBCMT:crt0dat.obj
 0003:000024a8       _wenviron                  00000001800444a8     LIBCMT:crt0dat.obj
 0003:000024b0       _pgmptr                    00000001800444b0     LIBCMT:crt0dat.obj
 0003:000024b8       _wpgmptr                   00000001800444b8     LIBCMT:crt0dat.obj
 0003:000024c0       _umaskval                  00000001800444c0     LIBCMT:crt0dat.obj
 0003:000024c4       _exitflag                  00000001800444c4     LIBCMT:crt0dat.obj
 0003:000024c8       _C_Termination_Done        00000001800444c8     LIBCMT:crt0dat.obj
 0003:000024d0       __winitenv                 00000001800444d0     LIBCMT:crt0dat.obj
 0003:000024d8       __initenv                  00000001800444d8     LIBCMT:crt0dat.obj
 0003:000024e0       __app_type                 00000001800444e0     LIBCMT:crt0msg.obj
 0003:00002b18       _newmode                   0000000180044b18     LIBCMT:_newmode.obj
 0003:00002b20       ?__pInconsistency@@3P6AXXZEA 0000000180044b20     LIBCMT:hooks.obj
 0003:00002b28       __pInvalidArgHandler       0000000180044b28     LIBCMT:invarg.obj
 0003:00002b30       __error_mode               0000000180044b30     LIBCMT:errmode.obj
 0003:00002b34       _cflush                    0000000180044b34     LIBCMT:_file.obj
 0003:00002b88       _maxwait                   0000000180044b88     LIBCMT:crtheap.obj
 0003:00002b90       __pPurecall                0000000180044b90     LIBCMT:inithelp.obj
 0003:00002b98       _stdbuf                    0000000180044b98     LIBCMT:_sftbuf.obj
 0003:00002ba8       __mbcodepage               0000000180044ba8     LIBCMT:mbctype.obj
 0003:00002bac       __ismbcodepage             0000000180044bac     LIBCMT:mbctype.obj
 0003:00002bb0       __mbulinfo                 0000000180044bb0     LIBCMT:mbctype.obj
 0003:00002bc0       __mblocalename             0000000180044bc0     LIBCMT:mbctype.obj
 0003:00002bcc       __locale_changed           0000000180044bcc     LIBCMT:wsetloca.obj
 0003:00002bd0       __pioinfo                  0000000180044bd0     LIBCMT:ioinit.obj
 0003:00002ed8       ?g_OutOfMemoryExceptionCallback@@3P6APEAXXZEA 0000000180044ed8     LIBCMT:frame.obj
 0003:00003130       _commode                   0000000180045130     LIBCMT:ncommode.obj
 0003:00003134       __lconv_static_null        0000000180045134     LIBCMT:lconv.obj
 0003:00003138       __lconv_static_W_null      0000000180045138     LIBCMT:lconv.obj
 0003:00003140       ?m_pGetParameter@UnDecorator@@0P6APEADJ@ZEA 0000000180045140     LIBCMT:undname.obj
 0003:00003148       ?pArgList@UnDecorator@@0PEAVReplicator@@EA 0000000180045148     LIBCMT:undname.obj
 0003:00003150       ?pZNameList@UnDecorator@@0PEAVReplicator@@EA 0000000180045150     LIBCMT:undname.obj
 0003:00003158       ?pTemplateArgList@UnDecorator@@0PEAVReplicator@@EA 0000000180045158     LIBCMT:undname.obj
 0003:00003160       ?gName@UnDecorator@@0PEBDEB 0000000180045160     LIBCMT:undname.obj
 0003:00003168       ?name@UnDecorator@@0PEBDEB 0000000180045168     LIBCMT:undname.obj
 0003:00003170       ?outputString@UnDecorator@@0PEADEA 0000000180045170     LIBCMT:undname.obj
 0003:00003178       ?maxStringLength@UnDecorator@@0HA 0000000180045178     LIBCMT:undname.obj
 0003:0000317c       ?disableFlags@UnDecorator@@0KA 000000018004517c     LIBCMT:undname.obj
 0003:00003180       ?fExplicitTemplateParams@UnDecorator@@0_NA 0000000180045180     LIBCMT:undname.obj
 0003:00003181       ?fGetTemplateArgumentList@UnDecorator@@0_NA 0000000180045181     LIBCMT:undname.obj
 0003:000031b0       _outputformat              00000001800451b0     LIBCMT:outputformat.obj
 0003:000031b4       _fmode                     00000001800451b4     LIBCMT:txtmode.obj
 0003:000031b8       __pfnDliFailureHook2       00000001800451b8     DelayImp:delayhk1.obj
 0003:000031c0       ?id@?$num_put@_WV?$back_insert_iterator@V?$basic_string@_WU?$char_traits@_W@std@@V?$allocator@_W@2@@std@@@std@@@std@@2V0locale@2@A 00000001800451c0     Canvas.obj
 0003:000031c8       ?_System_object@?$_Error_objects@H@std@@2V_System_error_category@2@A 00000001800451c8     Canvas.obj
 0003:000031d0       ?id@?$numpunct@_W@std@@2V0locale@2@A 00000001800451d0     Canvas.obj
 0003:000031d8       ?id@?$num_put@DV?$back_insert_iterator@V?$basic_string@DU?$char_traits@D@std@@V?$allocator@D@2@@std@@@std@@@std@@2V0locale@2@A 00000001800451d8     Canvas.obj
 0003:000031e0       ?constructor@Canvas@@2V?$Persistent@VFunctionTemplate@v8@@V?$NonCopyablePersistentTraits@VFunctionTemplate@v8@@@2@@Nan@@A 00000001800451e0     Canvas.obj
 0003:000031f0       ?constructor@Gradient@@2V?$Persistent@VFunctionTemplate@v8@@V?$NonCopyablePersistentTraits@VFunctionTemplate@v8@@@2@@Nan@@A 00000001800451f0     CanvasGradient.obj
 0003:000031f8       ?constructor@Pattern@@2V?$Persistent@VFunctionTemplate@v8@@V?$NonCopyablePersistentTraits@VFunctionTemplate@v8@@@2@@Nan@@A 00000001800451f8     CanvasPattern.obj
 0003:00003200       ?constructor@Context2d@@2V?$Persistent@VFunctionTemplate@v8@@V?$NonCopyablePersistentTraits@VFunctionTemplate@v8@@@2@@Nan@@A 0000000180045200     CanvasRenderingContext2d.obj
 0003:00003210       ?constructor@Image@@2V?$Persistent@VFunctionTemplate@v8@@V?$NonCopyablePersistentTraits@VFunctionTemplate@v8@@@2@@Nan@@A 0000000180045210     Image.obj
 0003:00003218       ?constructor@ImageData@@2V?$Persistent@VFunctionTemplate@v8@@V?$NonCopyablePersistentTraits@VFunctionTemplate@v8@@@2@@Nan@@A 0000000180045218     ImageData.obj
 0003:00003220       ?_Iostream_object@?$_Error_objects@H@std@@2V_Iostream_error_category@2@A 0000000180045220     Canvas.obj
 0003:00003228       ?_Generic_object@?$_Error_objects@H@std@@2V_Generic_error_category@2@A 0000000180045228     Canvas.obj
 0003:00003230       ?id@?$numpunct@D@std@@2V0locale@2@A 0000000180045230     Canvas.obj
 0003:00003238       __fma3_is_available        0000000180045238     LIBCMT:fma3_available.obj
 0003:0000323c       __use_fma3_lib             000000018004523c     LIBCMT:fma3_available.obj
 0003:00003240       _setjmpexused              0000000180045240     <common>
 0003:00003248       _debugger_hook_dummy       0000000180045248     <common>
 0003:00003260       encodedKERNEL32Functions   0000000180045260     <common>
 0003:00003368       _nhandle                   0000000180045368     <common>
 0003:00003370       __piob                     0000000180045370     <common>
 0003:00003378       _nstream                   0000000180045378     <common>
 0003:00003380       _bufin                     0000000180045380     <common>
 0003:00004380       __dyn_tls_init_callback    0000000180046380     <common>
 0003:00004388       __onexitend                0000000180046388     <common>
 0003:00004390       __onexitbegin              0000000180046390     <common>
 0003:00004398       __mbctype_initialized      0000000180046398     <common>
 0003:0000439c       __env_initialized          000000018004639c     <common>
 0003:000043a0       _acmdln                    00000001800463a0     <common>

 entry point at        0001:00016330

 Static symbols

 0000:fffb5000       .debug$S                   0000000180000000     kernel32:KERNEL32.dll
 0000:fffb5000       .debug$S                   0000000180000000     kernel32:KERNEL32.dll
 0000:fffb5000       .debug$S                   0000000180000000     kernel32:KERNEL32.dll
 0000:fffb5000       .debug$S                   0000000180000000     kernel32:KERNEL32.dll
 0000:fffb5000       .debug$S                   0000000180000000     kernel32:KERNEL32.dll
 0000:fffb5000       .debug$S                   0000000180000000     kernel32:KERNEL32.dll
 0000:fffb5000       .debug$S                   0000000180000000     kernel32:KERNEL32.dll
 0000:fffb5000       .debug$S                   0000000180000000     kernel32:KERNEL32.dll
 0000:fffb5000       .debug$S                   0000000180000000     kernel32:KERNEL32.dll
 0000:fffb5000       .debug$S                   0000000180000000     kernel32:KERNEL32.dll
 0000:fffb5000       .debug$S                   0000000180000000     kernel32:KERNEL32.dll
 0000:fffb5000       .debug$S                   0000000180000000     kernel32:KERNEL32.dll
 0000:fffb5000       .debug$S                   0000000180000000     kernel32:KERNEL32.dll
 0000:fffb5000       .debug$S                   0000000180000000     kernel32:KERNEL32.dll
 0000:fffb5000       .debug$S                   0000000180000000     kernel32:KERNEL32.dll
 0000:fffb5000       .debug$S                   0000000180000000     kernel32:KERNEL32.dll
 0000:fffb5000       .debug$S                   0000000180000000     kernel32:KERNEL32.dll
 0000:fffb5000       .debug$S                   0000000180000000     kernel32:KERNEL32.dll
 0000:fffb5000       .debug$S                   0000000180000000     kernel32:KERNEL32.dll
 0000:fffb5000       .debug$S                   0000000180000000     kernel32:KERNEL32.dll
 0000:fffb5000       .debug$S                   0000000180000000     kernel32:KERNEL32.dll
 0000:fffb5000       .debug$S                   0000000180000000     kernel32:KERNEL32.dll
 0000:fffb5000       .debug$S                   0000000180000000     kernel32:KERNEL32.dll
 0000:fffb5000       .debug$S                   0000000180000000     kernel32:KERNEL32.dll
 0000:fffb5000       .debug$S                   0000000180000000     kernel32:KERNEL32.dll
 0000:fffb5000       .debug$S                   0000000180000000     kernel32:KERNEL32.dll
 0000:fffb5000       .debug$S                   0000000180000000     kernel32:KERNEL32.dll
 0000:fffb5000       .debug$S                   0000000180000000     kernel32:KERNEL32.dll
 0000:fffb5000       .debug$S                   0000000180000000     kernel32:KERNEL32.dll
 0000:fffb5000       .debug$S                   0000000180000000     kernel32:KERNEL32.dll
 0000:fffb5000       .debug$S                   0000000180000000     kernel32:KERNEL32.dll
 0000:fffb5000       .debug$S                   0000000180000000     kernel32:KERNEL32.dll
 0000:fffb5000       .debug$S                   0000000180000000     kernel32:KERNEL32.dll
 0000:fffb5000       .debug$S                   0000000180000000     kernel32:KERNEL32.dll
 0000:fffb5000       .debug$S                   0000000180000000     kernel32:KERNEL32.dll
 0000:fffb5000       .debug$S                   0000000180000000     kernel32:KERNEL32.dll
 0000:fffb5000       .debug$S                   0000000180000000     kernel32:KERNEL32.dll
 0000:fffb5000       .debug$S                   0000000180000000     kernel32:KERNEL32.dll
 0000:fffb5000       .debug$S                   0000000180000000     kernel32:KERNEL32.dll
 0000:fffb5000       .debug$S                   0000000180000000     kernel32:KERNEL32.dll
 0000:fffb5000       .debug$S                   0000000180000000     kernel32:KERNEL32.dll
 0000:fffb5000       .debug$S                   0000000180000000     kernel32:KERNEL32.dll
 0000:fffb5000       .debug$S                   0000000180000000     kernel32:KERNEL32.dll
 0000:fffb5000       .debug$S                   0000000180000000     kernel32:KERNEL32.dll
 0000:fffb5000       .debug$S                   0000000180000000     kernel32:KERNEL32.dll
 0000:fffb5000       .debug$S                   0000000180000000     kernel32:KERNEL32.dll
 0000:fffb5000       .debug$S                   0000000180000000     kernel32:KERNEL32.dll
 0000:fffb5000       .debug$S                   0000000180000000     kernel32:KERNEL32.dll
 0000:fffb5000       .debug$S                   0000000180000000     kernel32:KERNEL32.dll
 0000:fffb5000       .debug$S                   0000000180000000     kernel32:KERNEL32.dll
 0000:fffb5000       .debug$S                   0000000180000000     kernel32:KERNEL32.dll
 0000:fffb5000       .debug$S                   0000000180000000     kernel32:KERNEL32.dll
 0000:fffb5000       .debug$S                   0000000180000000     kernel32:KERNEL32.dll
 0000:fffb5000       .debug$S                   0000000180000000     kernel32:KERNEL32.dll
 0000:fffb5000       .debug$S                   0000000180000000     kernel32:KERNEL32.dll
 0000:fffb5000       .debug$S                   0000000180000000     kernel32:KERNEL32.dll
 0000:fffb5000       .debug$S                   0000000180000000     kernel32:KERNEL32.dll
 0000:fffb5000       .debug$S                   0000000180000000     kernel32:KERNEL32.dll
 0000:fffb5000       .debug$S                   0000000180000000     kernel32:KERNEL32.dll
 0000:fffb5000       .debug$S                   0000000180000000     kernel32:KERNEL32.dll
 0000:fffb5000       .debug$S                   0000000180000000     kernel32:KERNEL32.dll
 0000:fffb5000       .debug$S                   0000000180000000     kernel32:KERNEL32.dll
 0000:fffb5000       .debug$S                   0000000180000000     kernel32:KERNEL32.dll
 0000:fffb5000       .debug$S                   0000000180000000     kernel32:KERNEL32.dll
 0000:fffb5000       .debug$S                   0000000180000000     kernel32:KERNEL32.dll
 0000:fffb5000       .debug$S                   0000000180000000     kernel32:KERNEL32.dll
 0000:fffb5000       .debug$S                   0000000180000000     kernel32:KERNEL32.dll
 0000:fffb5000       .debug$S                   0000000180000000     kernel32:KERNEL32.dll
 0000:fffb5000       .debug$S                   0000000180000000     kernel32:KERNEL32.dll
 0000:fffb5000       .debug$S                   0000000180000000     kernel32:KERNEL32.dll
 0000:fffb5000       .debug$S                   0000000180000000     kernel32:KERNEL32.dll
 0000:fffb5000       .debug$S                   0000000180000000     kernel32:KERNEL32.dll
 0000:fffb5000       .debug$S                   0000000180000000     kernel32:KERNEL32.dll
 0000:fffb5000       .debug$S                   0000000180000000     kernel32:KERNEL32.dll
 0000:fffb5000       .debug$S                   0000000180000000     kernel32:KERNEL32.dll
 0000:fffb5000       .debug$S                   0000000180000000     kernel32:KERNEL32.dll
 0000:fffb5000       .debug$S                   0000000180000000     kernel32:KERNEL32.dll
 0000:fffb5000       .debug$S                   0000000180000000     kernel32:KERNEL32.dll
 0000:fffb5000       .debug$S                   0000000180000000     kernel32:KERNEL32.dll
 0000:fffb5000       .debug$S                   0000000180000000     kernel32:KERNEL32.dll
 0000:fffb5000       .debug$S                   0000000180000000     kernel32:KERNEL32.dll
 0000:fffb5000       .debug$S                   0000000180000000     kernel32:KERNEL32.dll
 0000:fffb5000       .debug$S                   0000000180000000     kernel32:KERNEL32.dll
 0000:fffb5000       .debug$S                   0000000180000000     kernel32:KERNEL32.dll
 0000:fffb5000       .debug$S                   0000000180000000     kernel32:KERNEL32.dll
 0000:fffb5000       .debug$S                   0000000180000000     node:node.exe
 0000:fffb5000       .debug$S                   0000000180000000     node:node.exe
 0000:fffb5000       .debug$S                   0000000180000000     node:node.exe
 0000:fffb5000       .debug$S                   0000000180000000     node:node.exe
 0000:fffb5000       .debug$S                   0000000180000000     node:node.exe
 0000:fffb5000       .debug$S                   0000000180000000     node:node.exe
 0000:fffb5000       .debug$S                   0000000180000000     node:node.exe
 0000:fffb5000       .debug$S                   0000000180000000     node:node.exe
 0000:fffb5000       .debug$S                   0000000180000000     node:node.exe
 0000:fffb5000       .debug$S                   0000000180000000     node:node.exe
 0000:fffb5000       .debug$S                   0000000180000000     node:node.exe
 0000:fffb5000       .debug$S                   0000000180000000     node:node.exe
 0000:fffb5000       .debug$S                   0000000180000000     node:node.exe
 0000:fffb5000       .debug$S                   0000000180000000     node:node.exe
 0000:fffb5000       .debug$S                   0000000180000000     node:node.exe
 0000:fffb5000       .debug$S                   0000000180000000     node:node.exe
 0000:fffb5000       .debug$S                   0000000180000000     node:node.exe
 0000:fffb5000       .debug$S                   0000000180000000     node:node.exe
 0000:fffb5000       .debug$S                   0000000180000000     node:node.exe
 0000:fffb5000       .debug$S                   0000000180000000     node:node.exe
 0000:fffb5000       .debug$S                   0000000180000000     node:node.exe
 0000:fffb5000       .debug$S                   0000000180000000     node:node.exe
 0000:fffb5000       .debug$S                   0000000180000000     node:node.exe
 0000:fffb5000       .debug$S                   0000000180000000     node:node.exe
 0000:fffb5000       .debug$S                   0000000180000000     node:node.exe
 0000:fffb5000       .debug$S                   0000000180000000     node:node.exe
 0000:fffb5000       .debug$S                   0000000180000000     node:node.exe
 0000:fffb5000       .debug$S                   0000000180000000     node:node.exe
 0000:fffb5000       .debug$S                   0000000180000000     node:node.exe
 0000:fffb5000       .debug$S                   0000000180000000     node:node.exe
 0000:fffb5000       .debug$S                   0000000180000000     node:node.exe
 0000:fffb5000       .debug$S                   0000000180000000     node:node.exe
 0000:fffb5000       .debug$S                   0000000180000000     node:node.exe
 0000:fffb5000       .debug$S                   0000000180000000     node:node.exe
 0000:fffb5000       .debug$S                   0000000180000000     node:node.exe
 0000:fffb5000       .debug$S                   0000000180000000     node:node.exe
 0000:fffb5000       .debug$S                   0000000180000000     node:node.exe
 0000:fffb5000       .debug$S                   0000000180000000     node:node.exe
 0000:fffb5000       .debug$S                   0000000180000000     node:node.exe
 0000:fffb5000       .debug$S                   0000000180000000     node:node.exe
 0000:fffb5000       .debug$S                   0000000180000000     node:node.exe
 0000:fffb5000       .debug$S                   0000000180000000     node:node.exe
 0000:fffb5000       .debug$S                   0000000180000000     node:node.exe
 0000:fffb5000       .debug$S                   0000000180000000     node:node.exe
 0000:fffb5000       .debug$S                   0000000180000000     node:node.exe
 0000:fffb5000       .debug$S                   0000000180000000     node:node.exe
 0000:fffb5000       .debug$S                   0000000180000000     node:node.exe
 0000:fffb5000       .debug$S                   0000000180000000     node:node.exe
 0000:fffb5000       .debug$S                   0000000180000000     node:node.exe
 0000:fffb5000       .debug$S                   0000000180000000     node:node.exe
 0000:fffb5000       .debug$S                   0000000180000000     node:node.exe
 0000:fffb5000       .debug$S                   0000000180000000     node:node.exe
 0000:fffb5000       .debug$S                   0000000180000000     libpng:libpng14-14.dll
 0000:fffb5000       .debug$S                   0000000180000000     libpng:libpng14-14.dll
 0000:fffb5000       .debug$S                   0000000180000000     libpng:libpng14-14.dll
 0000:fffb5000       .debug$S                   0000000180000000     libpng:libpng14-14.dll
 0000:fffb5000       .debug$S                   0000000180000000     libpng:libpng14-14.dll
 0000:fffb5000       .debug$S                   0000000180000000     libpng:libpng14-14.dll
 0000:fffb5000       .debug$S                   0000000180000000     libpng:libpng14-14.dll
 0000:fffb5000       .debug$S                   0000000180000000     libpng:libpng14-14.dll
 0000:fffb5000       .debug$S                   0000000180000000     libpng:libpng14-14.dll
 0000:fffb5000       .debug$S                   0000000180000000     libpng:libpng14-14.dll
 0000:fffb5000       .debug$S                   0000000180000000     libpng:libpng14-14.dll
 0000:fffb5000       .debug$S                   0000000180000000     libpng:libpng14-14.dll
 0000:fffb5000       .debug$S                   0000000180000000     libpng:libpng14-14.dll
 0000:fffb5000       .debug$S                   0000000180000000     libpng:libpng14-14.dll
 0000:fffb5000       .debug$S                   0000000180000000     libpng:libpng14-14.dll
 0000:fffb5000       .debug$S                   0000000180000000     libpng:libpng14-14.dll
 0000:fffb5000       .debug$S                   0000000180000000     libpng:libpng14-14.dll
 0000:fffb5000       .debug$S                   0000000180000000     libpng:libpng14-14.dll
 0000:fffb5000       .debug$S                   0000000180000000     cairo:libcairo-2.dll
 0000:fffb5000       .debug$S                   0000000180000000     cairo:libcairo-2.dll
 0000:fffb5000       .debug$S                   0000000180000000     cairo:libcairo-2.dll
 0000:fffb5000       .debug$S                   0000000180000000     cairo:libcairo-2.dll
 0000:fffb5000       .debug$S                   0000000180000000     cairo:libcairo-2.dll
 0000:fffb5000       .debug$S                   0000000180000000     cairo:libcairo-2.dll
 0000:fffb5000       .debug$S                   0000000180000000     cairo:libcairo-2.dll
 0000:fffb5000       .debug$S                   0000000180000000     cairo:libcairo-2.dll
 0000:fffb5000       .debug$S                   0000000180000000     cairo:libcairo-2.dll
 0000:fffb5000       .debug$S                   0000000180000000     cairo:libcairo-2.dll
 0000:fffb5000       .debug$S                   0000000180000000     cairo:libcairo-2.dll
 0000:fffb5000       .debug$S                   0000000180000000     cairo:libcairo-2.dll
 0000:fffb5000       .debug$S                   0000000180000000     cairo:libcairo-2.dll
 0000:fffb5000       .debug$S                   0000000180000000     cairo:libcairo-2.dll
 0000:fffb5000       .debug$S                   0000000180000000     cairo:libcairo-2.dll
 0000:fffb5000       .debug$S                   0000000180000000     cairo:libcairo-2.dll
 0000:fffb5000       .debug$S                   0000000180000000     cairo:libcairo-2.dll
 0000:fffb5000       .debug$S                   0000000180000000     cairo:libcairo-2.dll
 0000:fffb5000       .debug$S                   0000000180000000     cairo:libcairo-2.dll
 0000:fffb5000       .debug$S                   0000000180000000     cairo:libcairo-2.dll
 0000:fffb5000       .debug$S                   0000000180000000     cairo:libcairo-2.dll
 0000:fffb5000       .debug$S                   0000000180000000     cairo:libcairo-2.dll
 0000:fffb5000       .debug$S                   0000000180000000     cairo:libcairo-2.dll
 0000:fffb5000       .debug$S                   0000000180000000     cairo:libcairo-2.dll
 0000:fffb5000       .debug$S                   0000000180000000     cairo:libcairo-2.dll
 0000:fffb5000       .debug$S                   0000000180000000     cairo:libcairo-2.dll
 0000:fffb5000       .debug$S                   0000000180000000     cairo:libcairo-2.dll
 0000:fffb5000       .debug$S                   0000000180000000     cairo:libcairo-2.dll
 0000:fffb5000       .debug$S                   0000000180000000     cairo:libcairo-2.dll
 0000:fffb5000       .debug$S                   0000000180000000     cairo:libcairo-2.dll
 0000:fffb5000       .debug$S                   0000000180000000     cairo:libcairo-2.dll
 0000:fffb5000       .debug$S                   0000000180000000     cairo:libcairo-2.dll
 0000:fffb5000       .debug$S                   0000000180000000     cairo:libcairo-2.dll
 0000:fffb5000       .debug$S                   0000000180000000     cairo:libcairo-2.dll
 0000:fffb5000       .debug$S                   0000000180000000     cairo:libcairo-2.dll
 0000:fffb5000       .debug$S                   0000000180000000     cairo:libcairo-2.dll
 0000:fffb5000       .debug$S                   0000000180000000     cairo:libcairo-2.dll
 0000:fffb5000       .debug$S                   0000000180000000     cairo:libcairo-2.dll
 0000:fffb5000       .debug$S                   0000000180000000     cairo:libcairo-2.dll
 0000:fffb5000       .debug$S                   0000000180000000     cairo:libcairo-2.dll
 0000:fffb5000       .debug$S                   0000000180000000     cairo:libcairo-2.dll
 0000:fffb5000       .debug$S                   0000000180000000     cairo:libcairo-2.dll
 0000:fffb5000       .debug$S                   0000000180000000     cairo:libcairo-2.dll
 0000:fffb5000       .debug$S                   0000000180000000     cairo:libcairo-2.dll
 0000:fffb5000       .debug$S                   0000000180000000     cairo:libcairo-2.dll
 0000:fffb5000       .debug$S                   0000000180000000     cairo:libcairo-2.dll
 0000:fffb5000       .debug$S                   0000000180000000     cairo:libcairo-2.dll
 0000:fffb5000       .debug$S                   0000000180000000     cairo:libcairo-2.dll
 0000:fffb5000       .debug$S                   0000000180000000     cairo:libcairo-2.dll
 0000:fffb5000       .debug$S                   0000000180000000     cairo:libcairo-2.dll
 0000:fffb5000       .debug$S                   0000000180000000     cairo:libcairo-2.dll
 0000:fffb5000       .debug$S                   0000000180000000     cairo:libcairo-2.dll
 0000:fffb5000       .debug$S                   0000000180000000     cairo:libcairo-2.dll
 0000:fffb5000       .debug$S                   0000000180000000     cairo:libcairo-2.dll
 0000:fffb5000       .debug$S                   0000000180000000     cairo:libcairo-2.dll
 0000:fffb5000       .debug$S                   0000000180000000     cairo:libcairo-2.dll
 0000:fffb5000       .debug$S                   0000000180000000     cairo:libcairo-2.dll
 0000:fffb5000       .debug$S                   0000000180000000     cairo:libcairo-2.dll
 0000:fffb5000       .debug$S                   0000000180000000     cairo:libcairo-2.dll
 0000:fffb5000       .debug$S                   0000000180000000     cairo:libcairo-2.dll
 0000:fffb5000       .debug$S                   0000000180000000     cairo:libcairo-2.dll
 0000:fffb5000       .debug$S                   0000000180000000     cairo:libcairo-2.dll
 0000:fffb5000       .debug$S                   0000000180000000     cairo:libcairo-2.dll
 0000:fffb5000       .debug$S                   0000000180000000     cairo:libcairo-2.dll
 0000:fffb5000       .debug$S                   0000000180000000     cairo:libcairo-2.dll
 0000:fffb5000       .debug$S                   0000000180000000     cairo:libcairo-2.dll
 0000:fffb5000       .debug$S                   0000000180000000     cairo:libcairo-2.dll
 0000:fffb5000       .debug$S                   0000000180000000     cairo:libcairo-2.dll
 0000:fffb5000       .debug$S                   0000000180000000     cairo:libcairo-2.dll
 0000:fffb5000       .debug$S                   0000000180000000     cairo:libcairo-2.dll
 0000:fffb5000       .debug$S                   0000000180000000     cairo:libcairo-2.dll
 0000:fffb5000       .debug$S                   0000000180000000     cairo:libcairo-2.dll
 0000:fffb5000       .debug$S                   0000000180000000     cairo:libcairo-2.dll
 0000:fffb5000       .debug$S                   0000000180000000     cairo:libcairo-2.dll
 0000:fffb5000       .debug$S                   0000000180000000     cairo:libcairo-2.dll
 0000:fffb5000       .debug$S                   0000000180000000     cairo:libcairo-2.dll
 0000:fffb5000       .debug$S                   0000000180000000     cairo:libcairo-2.dll
 0000:fffb5000       .debug$S                   0000000180000000     cairo:libcairo-2.dll
 0000:fffb5000       .debug$S                   0000000180000000     cairo:libcairo-2.dll
 0000:fffb5000       .debug$S                   0000000180000000     cairo:libcairo-2.dll
 0000:fffb5000       .debug$S                   0000000180000000     cairo:libcairo-2.dll
 0000:fffb5000       .debug$S                   0000000180000000     cairo:libcairo-2.dll
 0000:fffb5000       .debug$S                   0000000180000000     cairo:libcairo-2.dll
 0000:fffb5000       .debug$S                   0000000180000000     cairo:libcairo-2.dll
 0000:fffb5000       .debug$S                   0000000180000000     cairo:libcairo-2.dll
 0000:fffb5000       .debug$S                   0000000180000000     cairo:libcairo-2.dll
 0000:fffb5000       .debug$S                   0000000180000000     cairo:libcairo-2.dll
 0000:fffb5000       .debug$S                   0000000180000000     cairo:libcairo-2.dll
 0000:fffb5000       .debug$S                   0000000180000000     cairo:libcairo-2.dll
 0000:fffb5000       .debug$S                   0000000180000000     cairo:libcairo-2.dll
 0000:fffb5000       .debug$S                   0000000180000000     cairo:libcairo-2.dll
 0000:fffb5000       .debug$S                   0000000180000000     cairo:libcairo-2.dll
 0000:fffb5000       .debug$S                   0000000180000000     node:node.exe
 0000:fffb5000       .debug$S                   0000000180000000     node:node.exe
 0000:fffb5000       .debug$S                   0000000180000000     node:node.exe
 0000:fffb5000       .debug$S                   0000000180000000     node:node.exe
 0000:fffb5000       .debug$S                   0000000180000000     node:node.exe
 0000:fffb5000       .debug$S                   0000000180000000     node:node.exe
 0000:fffb5000       .debug$S                   0000000180000000     node:node.exe
 0000:fffb5000       .debug$S                   0000000180000000     node:node.exe
 0000:fffb5000       .debug$S                   0000000180000000     node:node.exe
 0000:fffb5000       .debug$S                   0000000180000000     node:node.exe
 0000:fffb5000       .debug$S                   0000000180000000     node:node.exe
 0000:fffb5000       .debug$S                   0000000180000000     node:node.exe
 0000:fffb5000       .debug$S                   0000000180000000     node:node.exe
 0000:fffb5000       .debug$S                   0000000180000000     node:node.exe
 0000:fffb5000       .debug$S                   0000000180000000     node:node.exe
 0000:fffb5000       .debug$S                   0000000180000000     node:node.exe
 0000:fffb5000       .debug$S                   0000000180000000     node:node.exe
 0000:fffb5000       .debug$S                   0000000180000000     node:node.exe
 0000:fffb5000       .debug$S                   0000000180000000     node:node.exe
 0000:fffb5000       .debug$S                   0000000180000000     node:node.exe
 0000:fffb5000       .debug$S                   0000000180000000     node:node.exe
 0000:fffb5000       .debug$S                   0000000180000000     node:node.exe
 0000:fffb5000       .debug$S                   0000000180000000     node:node.exe
 0000:fffb5000       .debug$S                   0000000180000000     node:node.exe
 0000:fffb5000       .debug$S                   0000000180000000     node:node.exe
 0000:fffb5000       .debug$S                   0000000180000000     node:node.exe
 0000:fffb5000       .debug$S                   0000000180000000     node:node.exe
 0000:fffb5000       .debug$S                   0000000180000000     node:node.exe
 0000:fffb5000       .debug$S                   0000000180000000     node:node.exe
 0000:fffb5000       .debug$S                   0000000180000000     node:node.exe
 0000:fffb5000       .debug$S                   0000000180000000     node:node.exe
 0000:fffb5000       .debug$S                   0000000180000000     node:node.exe
 0000:fffb5000       .debug$S                   0000000180000000     node:node.exe
 0000:fffb5000       .debug$S                   0000000180000000     node:node.exe
 0000:fffb5000       .debug$S                   0000000180000000     node:node.exe
 0000:fffb5000       .debug$S                   0000000180000000     node:node.exe
 0000:fffb5000       .debug$S                   0000000180000000     node:node.exe
 0000:fffb5000       .debug$S                   0000000180000000     node:node.exe
 0000:fffb5000       .debug$S                   0000000180000000     node:node.exe
 0000:fffb5000       .debug$S                   0000000180000000     node:node.exe
 0000:fffb5000       .debug$S                   0000000180000000     node:node.exe
 0000:fffb5000       .debug$S                   0000000180000000     node:node.exe
 0000:fffb5000       .debug$S                   0000000180000000     node:node.exe
 0000:fffb5000       .debug$S                   0000000180000000     node:node.exe
 0000:fffb5000       .debug$S                   0000000180000000     node:node.exe
 0000:fffb5000       .debug$S                   0000000180000000     node:node.exe
 0000:fffb5000       .debug$S                   0000000180000000     node:node.exe
 0000:fffb5000       .debug$S                   0000000180000000     node:node.exe
 0000:fffb5000       .debug$S                   0000000180000000     node:node.exe
 0000:fffb5000       .debug$S                   0000000180000000     node:node.exe
 0000:fffb5000       .debug$S                   0000000180000000     node:node.exe
 0000:fffb5000       .debug$S                   0000000180000000     node:node.exe
 0000:fffb5000       .debug$S                   0000000180000000     node:node.exe
 0000:fffb5000       .debug$S                   0000000180000000     node:node.exe
 0000:fffb5000       .debug$S                   0000000180000000     node:node.exe
 0000:fffb5000       .debug$S                   0000000180000000     node:node.exe
 0000:fffb5000       .debug$S                   0000000180000000     node:node.exe
 0000:fffb5000       .debug$S                   0000000180000000     node:node.exe
 0000:fffb5000       .debug$S                   0000000180000000     node:node.exe
 0000:fffb5000       .debug$S                   0000000180000000     node:node.exe
 0000:fffb5000       .debug$S                   0000000180000000     node:node.exe
 0000:fffb5000       .debug$S                   0000000180000000     node:node.exe
 0000:fffb5000       .debug$S                   0000000180000000     node:node.exe
 0000:fffb5000       .debug$S                   0000000180000000     node:node.exe
 0000:fffb5000       .debug$S                   0000000180000000     node:node.exe
 0000:fffb5000       .debug$S                   0000000180000000     node:node.exe
 0001:00000000       ??__Epiecewise_construct@std@@YAXXZ 0000000180001000 f   Canvas.obj
 0001:00000010       ??__Eallocator_arg@std@@YAXXZ 0000000180001010 f   Canvas.obj
 0001:00000020       ??__E?constructor@Canvas@@2V?$Persistent@VFunctionTemplate@v8@@V?$NonCopyablePersistentTraits@VFunctionTemplate@v8@@@2@@Nan@@A@@YAXXZ 0000000180001020 f   Canvas.obj
 0001:00000040       ??__Epiecewise_construct@std@@YAXXZ 0000000180001040 f   CanvasGradient.obj
 0001:00000050       ??__Eallocator_arg@std@@YAXXZ 0000000180001050 f   CanvasGradient.obj
 0001:00000060       ??__E?constructor@Gradient@@2V?$Persistent@VFunctionTemplate@v8@@V?$NonCopyablePersistentTraits@VFunctionTemplate@v8@@@2@@Nan@@A@@YAXXZ 0000000180001060 f   CanvasGradient.obj
 0001:00000080       ??__Epiecewise_construct@std@@YAXXZ 0000000180001080 f   CanvasPattern.obj
 0001:00000090       ??__Eallocator_arg@std@@YAXXZ 0000000180001090 f   CanvasPattern.obj
 0001:000000a0       ??__E?constructor@Pattern@@2V?$Persistent@VFunctionTemplate@v8@@V?$NonCopyablePersistentTraits@VFunctionTemplate@v8@@@2@@Nan@@A@@YAXXZ 00000001800010a0 f   CanvasPattern.obj
 0001:000000c0       ??__Epiecewise_construct@std@@YAXXZ 00000001800010c0 f   CanvasRenderingContext2d.obj
 0001:000000d0       ??__Eallocator_arg@std@@YAXXZ 00000001800010d0 f   CanvasRenderingContext2d.obj
 0001:000000e0       ??__E?constructor@Context2d@@2V?$Persistent@VFunctionTemplate@v8@@V?$NonCopyablePersistentTraits@VFunctionTemplate@v8@@@2@@Nan@@A@@YAXXZ 00000001800010e0 f   CanvasRenderingContext2d.obj
 0001:00000100       ??__Epiecewise_construct@std@@YAXXZ 0000000180001100 f   Image.obj
 0001:00000110       ??__Eallocator_arg@std@@YAXXZ 0000000180001110 f   Image.obj
 0001:00000120       ??__E?constructor@Image@@2V?$Persistent@VFunctionTemplate@v8@@V?$NonCopyablePersistentTraits@VFunctionTemplate@v8@@@2@@Nan@@A@@YAXXZ 0000000180001120 f   Image.obj
 0001:00000140       ??__Epiecewise_construct@std@@YAXXZ 0000000180001140 f   ImageData.obj
 0001:00000150       ??__Eallocator_arg@std@@YAXXZ 0000000180001150 f   ImageData.obj
 0001:00000160       ??__E?constructor@ImageData@@2V?$Persistent@VFunctionTemplate@v8@@V?$NonCopyablePersistentTraits@VFunctionTemplate@v8@@@2@@Nan@@A@@YAXXZ 0000000180001160 f   ImageData.obj
 0001:00000180       ??__Epiecewise_construct@std@@YAXXZ 0000000180001180 f   init.obj
 0001:00000190       ??__Eallocator_arg@std@@YAXXZ 0000000180001190 f   init.obj
 0001:00000820       ?canvas_png_flush@@YAXPEAUpng_struct_def@@@Z 0000000180001820 f i Canvas.obj
 0001:00001340       ?FunctionCallbackWrapper@imp@Nan@@YAXAEBV?$FunctionCallbackInfo@VValue@v8@@@v8@@@Z 0000000180002340 f   Canvas.obj
 0001:000013f0       ?GetterCallbackWrapper@imp@Nan@@YAXV?$Local@VName@v8@@@v8@@AEBV?$PropertyCallbackInfo@VValue@v8@@@4@@Z 00000001800023f0 f   Canvas.obj
 0001:000014a0       ?SetterCallbackWrapper@imp@Nan@@YAXV?$Local@VName@v8@@@v8@@V?$Local@VValue@v8@@@4@AEBV?$PropertyCallbackInfo@X@4@@Z 00000001800024a0 f   Canvas.obj
 0001:00001e70       ?canvas_convert_data_to_bytes@@YAXPEAUpng_struct_def@@PEAUpng_row_info_struct@@PEAE@Z 0000000180002e70 f   Canvas.obj
 0001:00001eb0       ?canvas_unpremultiply_data@@YAXPEAUpng_struct_def@@PEAUpng_row_info_struct@@PEAE@Z 0000000180002eb0 f   Canvas.obj
 0001:00001f60       ?canvas_write_png@@YA?AW4_cairo_status@@PEAU_cairo_surface@@P6AXPEAUpng_struct_def@@PEAE_K@ZPEAX@Z 0000000180002f60 f   Canvas.obj
 0001:000022a0       ?canvas_stream_write_func@@YAXPEAUpng_struct_def@@PEAE_K@Z 00000001800032a0 f   Canvas.obj
 0001:000030a0       ?toBuffer@@YA?AW4_cairo_status@@PEAXPEBEI@Z 00000001800040a0 f   Canvas.obj
 0001:00003c10       ?streamPNG@@YA?AW4_cairo_status@@PEAXPEBEI@Z 0000000180004c10 f   Canvas.obj
 0001:0000b3c4       $LN77                      000000018000c3c4     CanvasRenderingContext2d.obj
 0001:00010e00       ?h@@YAHD@Z                 0000000180011e00 f   color.obj
 0001:00010e3c       $LN9                       0000000180011e3c     color.obj
 0001:00010e4c       $LN8                       0000000180011e4c     color.obj
 0001:00010e90       ?rgba_from_hsla@@YAHMMMM@Z 0000000180011e90 f   color.obj
 0001:00011140       ?rgba_from_rgb_string@@YAHPEBDPEAF@Z 0000000180012140 f   color.obj
 0001:00011360       ?rgba_from_rgba_string@@YAHPEBDPEAF@Z 0000000180012360 f   color.obj
 0001:00011600       ?rgba_from_hsla_string@@YAHPEBDPEAF@Z 0000000180012600 f   color.obj
 0001:00011840       ?rgba_from_hsl_string@@YAHPEBDPEAF@Z 0000000180012840 f   color.obj
 0001:00011a00       ?rgba_from_hex_string@@YAHPEBDPEAF@Z 0000000180012a00 f   color.obj
 0001:00011b10       ?rgba_from_name_string@@YAHPEBDPEAF@Z 0000000180012b10 f   color.obj
 0001:00011c70       ??$parse_integer@H@@YA_NPEAPEBDPEAH@Z 0000000180012c70 f   color.obj
 0001:00011cf0       ??$parse_css_number@M@@YA_NPEAPEBDPEAM@Z 0000000180012cf0 f   color.obj
 0001:00013ab0       _register_canvas           0000000180014ab0 f   init.obj
 0001:00013ac0       load_exe_hook              0000000180014ac0 f   win_delay_load_hook.obj
 0001:00014290       $$000000                   0000000180015290     LIBCMT:amdsecgs.obj
 0001:000142c0       $$000000                   00000001800152c0     LIBCMT:memcpy.obj
 0001:000143b0       MoveSmall                  00000001800153b0     LIBCMT:memcpy.obj
 0001:0001531c       swprintf                   000000018001631c f   LIBCMT:wassert.obj
 0001:000154e0       $$000000                   00000001800164e0     LIBCMT:longjmp.obj
 0001:00016370       __DllMainCRTStartup        0000000180017370 f   LIBCMT:dllcrt0.obj
 0001:00016490       $$000000                   0000000180017490     LIBCMT:strlen.obj
 0001:000176e4       _initterm                  00000001800186e4 f   LIBCMT:crt0dat.obj
 0001:00017798       doexit                     0000000180018798 f   LIBCMT:crt0dat.obj
 0001:00018374       xtow_s                     0000000180019374 f   LIBCMT:xtows.obj
 0001:00018778       flsall                     0000000180019778 f   LIBCMT:fflush.obj
 0001:00019350       _call_matherr              000000018001a350 f   LIBCMT:libm_error.obj
 0001:000193b8       _exception_enabled         000000018001a3b8 f   LIBCMT:libm_error.obj
 0001:0001a26c       write_char                 000000018001b26c f   LIBCMT:output.obj
 0001:0001a2b4       write_multi_char           000000018001b2b4 f   LIBCMT:output.obj
 0001:0001a308       write_string               000000018001b308 f   LIBCMT:output.obj
 0001:0001a3a0       $$000000                   000000018001b3a0     LIBCMT:memset.obj
 0001:0001a545       MsetTab                    000000018001b545     LIBCMT:memset.obj
 0001:0001aae0       $$000000                   000000018001bae0     LIBCMT:jmpuwind.obj
 0001:0001c0ac       ?getSystemCP@@YAHH@Z       000000018001d0ac f   LIBCMT:mbctype.obj
 0001:0001c12c       ?setSBCS@@YAXPEAUthreadmbcinfostruct@@@Z 000000018001d12c f   LIBCMT:mbctype.obj
 0001:0001c1bc       ?setSBUpLow@@YAXPEAUthreadmbcinfostruct@@@Z 000000018001d1bc f   LIBCMT:mbctype.obj
 0001:0001d504       parse_cmdline              000000018001e504 f   LIBCMT:stdargv.obj
 0001:0001e108       ?CatchIt@@YAXPEAUEHExceptionRecord@@PEA_KPEAU_CONTEXT@@PEAU_xDISPATCHER_CONTEXT@@PEBU_s_FuncInfo@@PEBU_s_HandlerType@@PEBU_s_CatchableType@@PEBU_s_TryBlockMapEntry@@H1EE@Z 000000018001f108 f   LIBCMT:frame.obj
 0001:0001e1cc       ?FindHandler@@YAXPEAUEHExceptionRecord@@PEA_KPEAU_CONTEXT@@PEAU_xDISPATCHER_CONTEXT@@PEBU_s_FuncInfo@@EH1@Z 000000018001f1cc f   LIBCMT:frame.obj
 0001:0001e680       ?FindHandlerForForeignException@@YAXPEAUEHExceptionRecord@@PEA_KPEAU_CONTEXT@@PEAU_xDISPATCHER_CONTEXT@@PEBU_s_FuncInfo@@HH1@Z 000000018001f680 f   LIBCMT:frame.obj
 0001:0001e8e8       ?IsInExceptionSpec@@YAEPEAUEHExceptionRecord@@PEBU_s_ESTypeList@@@Z 000000018001f8e8 f   LIBCMT:frame.obj
 0001:0001f560       $$000000                   0000000180020560     LIBCMT:strcmp.obj
 0001:0001fa98       _cftoe2_l                  0000000180020a98 f   LIBCMT:cvt.obj
 0001:0001fd8c       _cftof2_l                  0000000180020d8c f   LIBCMT:cvt.obj
 0001:00021bc4       write_char                 0000000180022bc4 f   LIBCMT:woutput.obj
 0001:00021bfc       write_multi_char           0000000180022bfc f   LIBCMT:woutput.obj
 0001:00021c50       write_string               0000000180022c50 f   LIBCMT:woutput.obj
 0001:00021f30       $$000000                   0000000180022f30     LIBCMT:fpsr.obj
 0001:00023090       $$000000                   0000000180024090     LIBCMT:chkstk.obj
 0001:00023664       ?__crtLCMapStringA_stat@@YAHPEAUlocaleinfo_struct@@PEB_WKPEBDHPEADHHH@Z 0000000180024664 f   LIBCMT:a_map.obj
 0001:000239e8       ?__crtGetStringTypeA_stat@@YAHPEAUlocaleinfo_struct@@KPEBDHPEAGHH@Z 00000001800249e8 f   LIBCMT:a_str.obj
 0001:00023cc0       $$000000                   0000000180024cc0     LIBCMT:memcmp.obj
 0001:00023d98       ?x_ismbbtype_l@@YAHPEAUlocaleinfo_struct@@IHH@Z 0000000180024d98 f   LIBCMT:ismbbyte.obj
 0001:00023e40       $$000000                   0000000180024e40     LIBCMT:handlers.obj
 0001:00024804       __createFile               0000000180025804 f   LIBCMT:wopen.obj
 0001:000250b0       $$000000                   00000001800260b0     LIBCMT:strncmp.obj
 0001:00027bd0       $$000000                   0000000180028bd0     LIBCMT:setjmp.obj
 0001:000286a0       $$000000                   00000001800296a0     LIBCMT:tan.obj
 0001:00028c00       _tan_piby4                 0000000180029c00 f   LIBCMT:tan.obj
 0001:00028f00       $$000000                   0000000180029f00     LIBCMT:remainder_piby2_forFMA3.obj
 0001:00029170       $$000000                   000000018002a170     LIBCMT:remainder_piby2_forAsm.obj
 0001:000294c0       ?dtor$0@?0??New@?$Factory@VFunctionTemplate@v8@@@imp@Nan@@SA?AV?$Local@VFunctionTemplate@v8@@@v8@@P6AXAEBV?$FunctionCallbackInfo@VValue@v8@@@3@@ZV?$Local@VValue@v8@@@5@V?$Local@VSignature@v8@@@5@@Z@4HA 000000018002a4c0 f   Canvas.obj
 0001:000294c0       ?dtor$0@?0??streamPNG@@YA?AW4_cairo_status@@PEAXPEBEI@Z@4HA 000000018002a4c0 f   Canvas.obj
 0001:000294d0       ?dtor$0@?0???0Callback@Nan@@QEAA@AEBV?$Local@VFunction@v8@@@v8@@@Z@4HA 000000018002a4d0 f   Canvas.obj
 0001:000294dc       ?dtor$1@?0???0Callback@Nan@@QEAA@AEBV?$Local@VFunction@v8@@@v8@@@Z@4HA 000000018002a4dc f   Canvas.obj
 0001:000294e8       ?dtor$3@?0???0Callback@Nan@@QEAA@AEBV?$Local@VFunction@v8@@@v8@@@Z@4HA 000000018002a4e8 f   Canvas.obj
 0001:00029500       ?dtor$1@?0??New@Context2d@@SAXAEBV?$FunctionCallbackInfo@VValue@v8@@@Nan@@@Z@4HA 000000018002a500 f   CanvasRenderingContext2d.obj
 0001:00029500       ?dtor$0@?0??AddPage@Context2d@@SAXAEBV?$FunctionCallbackInfo@VValue@v8@@@Nan@@@Z@4HA 000000018002a500 f   CanvasRenderingContext2d.obj
 0001:00029500       ?dtor$0@?0??Call_@Callback@Nan@@AEBA?AV?$Local@VValue@v8@@@v8@@PEAVIsolate@4@V?$Local@VObject@v8@@@4@HQEAV34@@Z@4HA 000000018002a500 f   Canvas.obj
 0001:00029500       ?dtor$0@?0??SetFillPattern@Context2d@@SAXAEBV?$FunctionCallbackInfo@VValue@v8@@@Nan@@@Z@4HA 000000018002a500 f   CanvasRenderingContext2d.obj
 0001:00029500       ?dtor$0@?0??SetStrokePattern@Context2d@@SAXAEBV?$FunctionCallbackInfo@VValue@v8@@@Nan@@@Z@4HA 000000018002a500 f   CanvasRenderingContext2d.obj
 0001:00029510       ?dtor$0@?0??SetAccessor@Nan@@YAXV?$Local@VObjectTemplate@v8@@@v8@@V?$Local@VString@v8@@@3@P6AX1AEBV?$PropertyCallbackInfo@VValue@v8@@@1@@ZP6AX1V?$Local@VValue@v8@@@3@AEBV?$PropertyCallbackInfo@X@1@@Z4W4AccessControl@3@W4PropertyAttribute@3@V?$Local@VAccessorSignature@v8@@@3@@Z@4HA 000000018002a510 f   Canvas.obj
 0001:00029510       ?dtor$0@?0??Initialize@ImageData@@SAXV?$Local@VObject@v8@@@v8@@@Z@4HA 000000018002a510 f   ImageData.obj
 0001:00029510       ?dtor$0@?0??Initialize@Image@@SAXV?$Local@VObject@v8@@@v8@@@Z@4HA 000000018002a510 f   Image.obj
 0001:00029520       ?dtor$0@?0???1ObjectWrap@Nan@@UEAA@XZ@4HA 000000018002a520 f   Canvas.obj
 0001:00029530       ?dtor$0@?0??Initialize@Canvas@@SAXV?$Local@VObject@v8@@@v8@@@Z@4HA 000000018002a530 f   Canvas.obj
 0001:0002953c       ?dtor$2@?0??Initialize@Canvas@@SAXV?$Local@VObject@v8@@@v8@@@Z@4HA 000000018002a53c f   Canvas.obj
 0001:00029548       ?dtor$5@?0??Initialize@Canvas@@SAXV?$Local@VObject@v8@@@v8@@@Z@4HA 000000018002a548 f   Canvas.obj
 0001:00029560       ?dtor$0@?0??New@Canvas@@SAXAEBV?$FunctionCallbackInfo@VValue@v8@@@Nan@@@Z@4HA 000000018002a560 f   Canvas.obj
 0001:0002956e       ?dtor$2@?0??New@Canvas@@SAXAEBV?$FunctionCallbackInfo@VValue@v8@@@Nan@@@Z@4HA 000000018002a56e f   Canvas.obj
 0001:00029580       ?dtor$0@?0??ToBufferAsyncAfter@Canvas@@SAXPEAUuv_work_s@@@Z@4HA 000000018002a580 f   Canvas.obj
 0001:0002958c       ?dtor$4@?0??ToBufferAsyncAfter@Canvas@@SAXPEAUuv_work_s@@@Z@4HA 000000018002a58c f   Canvas.obj
 0001:000295a0       ?dtor$2@?0??ToBuffer@Canvas@@SAXAEBV?$FunctionCallbackInfo@VValue@v8@@@Nan@@@Z@4HA 000000018002a5a0 f   Canvas.obj
 0001:000295ac       ?dtor$5@?0??ToBuffer@Canvas@@SAXAEBV?$FunctionCallbackInfo@VValue@v8@@@Nan@@@Z@4HA 000000018002a5ac f   Canvas.obj
 0001:000295b8       ?dtor$8@?0??ToBuffer@Canvas@@SAXAEBV?$FunctionCallbackInfo@VValue@v8@@@Nan@@@Z@4HA 000000018002a5b8 f   Canvas.obj
 0001:000295c4       ?dtor$0@?0??ToBuffer@Canvas@@SAXAEBV?$FunctionCallbackInfo@VValue@v8@@@Nan@@@Z@4HA 000000018002a5c4 f   Canvas.obj
 0001:000295d0       ?dtor$1@?0??ToBuffer@Canvas@@SAXAEBV?$FunctionCallbackInfo@VValue@v8@@@Nan@@@Z@4HA 000000018002a5d0 f   Canvas.obj
 0001:000295e0       ?dtor$1@?0??StreamPNGSync@Canvas@@SAXAEBV?$FunctionCallbackInfo@VValue@v8@@@Nan@@@Z@4HA 000000018002a5e0 f   Canvas.obj
 0001:000295ec       ?dtor$4@?0??StreamPNGSync@Canvas@@SAXAEBV?$FunctionCallbackInfo@VValue@v8@@@Nan@@@Z@4HA 000000018002a5ec f   Canvas.obj
 0001:000295f8       ?dtor$7@?0??StreamPNGSync@Canvas@@SAXAEBV?$FunctionCallbackInfo@VValue@v8@@@Nan@@@Z@4HA 000000018002a5f8 f   Canvas.obj
 0001:00029604       ?dtor$10@?0??StreamPNGSync@Canvas@@SAXAEBV?$FunctionCallbackInfo@VValue@v8@@@Nan@@@Z@4HA 000000018002a604 f   Canvas.obj
 0001:00029610       ?dtor$0@?0??StreamPNGSync@Canvas@@SAXAEBV?$FunctionCallbackInfo@VValue@v8@@@Nan@@@Z@4HA 000000018002a610 f   Canvas.obj
 0001:00029620       ?dtor$0@?0???0Canvas@@QEAA@HHW4canvas_type_t@@@Z@4HA 000000018002a620 f   Canvas.obj
 0001:00029630       ?dtor$0@?0???1Canvas@@EEAA@XZ@4HA 000000018002a630 f   Canvas.obj
 0001:00029640       ?dtor$0@?0??resurface@Canvas@@QEAAXV?$Local@VObject@v8@@@v8@@@Z@4HA 000000018002a640 f   Canvas.obj
 0001:00029650       ?dtor$0@?0??Initialize@Gradient@@SAXV?$Local@VObject@v8@@@v8@@@Z@4HA 000000018002a650 f   CanvasGradient.obj
 0001:0002965c       ?dtor$2@?0??Initialize@Gradient@@SAXV?$Local@VObject@v8@@@v8@@@Z@4HA 000000018002a65c f   CanvasGradient.obj
 0001:00029670       ?dtor$0@?0??New@Gradient@@SAXAEBV?$FunctionCallbackInfo@VValue@v8@@@Nan@@@Z@4HA 000000018002a670 f   CanvasGradient.obj
 0001:0002967c       ?dtor$1@?0??New@Gradient@@SAXAEBV?$FunctionCallbackInfo@VValue@v8@@@Nan@@@Z@4HA 000000018002a67c f   CanvasGradient.obj
 0001:00029688       ?dtor$2@?0??New@Gradient@@SAXAEBV?$FunctionCallbackInfo@VValue@v8@@@Nan@@@Z@4HA 000000018002a688 f   CanvasGradient.obj
 0001:000296a0       ?dtor$1@?0??AddColorStop@Gradient@@SAXAEBV?$FunctionCallbackInfo@VValue@v8@@@Nan@@@Z@4HA 000000018002a6a0 f   CanvasGradient.obj
 0001:000296ac       ?dtor$4@?0??AddColorStop@Gradient@@SAXAEBV?$FunctionCallbackInfo@VValue@v8@@@Nan@@@Z@4HA 000000018002a6ac f   CanvasGradient.obj
 0001:000296b8       ?dtor$0@?0??AddColorStop@Gradient@@SAXAEBV?$FunctionCallbackInfo@VValue@v8@@@Nan@@@Z@4HA 000000018002a6b8 f   CanvasGradient.obj
 0001:000296c6       ?dtor$7@?0??AddColorStop@Gradient@@SAXAEBV?$FunctionCallbackInfo@VValue@v8@@@Nan@@@Z@4HA 000000018002a6c6 f   CanvasGradient.obj
 0001:000296e0       ?dtor$0@?0??Initialize@Pattern@@SAXV?$Local@VObject@v8@@@v8@@@Z@4HA 000000018002a6e0 f   CanvasPattern.obj
 0001:000296f0       ?dtor$0@?0??MoveTo@Context2d@@SAXAEBV?$FunctionCallbackInfo@VValue@v8@@@Nan@@@Z@4HA 000000018002a6f0 f   CanvasRenderingContext2d.obj
 0001:000296f0       ?dtor$1@?0??New@Pattern@@SAXAEBV?$FunctionCallbackInfo@VValue@v8@@@Nan@@@Z@4HA 000000018002a6f0 f   CanvasPattern.obj
 0001:000296f0       ?dtor$0@?0??LineTo@Context2d@@SAXAEBV?$FunctionCallbackInfo@VValue@v8@@@Nan@@@Z@4HA 000000018002a6f0 f   CanvasRenderingContext2d.obj
 0001:000296fc       ?dtor$4@?0??New@Pattern@@SAXAEBV?$FunctionCallbackInfo@VValue@v8@@@Nan@@@Z@4HA 000000018002a6fc f   CanvasPattern.obj
 0001:000296fc       ?dtor$3@?0??LineTo@Context2d@@SAXAEBV?$FunctionCallbackInfo@VValue@v8@@@Nan@@@Z@4HA 000000018002a6fc f   CanvasRenderingContext2d.obj
 0001:000296fc       ?dtor$3@?0??MoveTo@Context2d@@SAXAEBV?$FunctionCallbackInfo@VValue@v8@@@Nan@@@Z@4HA 000000018002a6fc f   CanvasRenderingContext2d.obj
 0001:00029710       ?dtor$0@?0??Initialize@Context2d@@SAXV?$Local@VObject@v8@@@v8@@@Z@4HA 000000018002a710 f   CanvasRenderingContext2d.obj
 0001:0002971c       ?dtor$2@?0??Initialize@Context2d@@SAXV?$Local@VObject@v8@@@v8@@@Z@4HA 000000018002a71c f   CanvasRenderingContext2d.obj
 0001:00029728       ?dtor$5@?0??Initialize@Context2d@@SAXV?$Local@VObject@v8@@@v8@@@Z@4HA 000000018002a728 f   CanvasRenderingContext2d.obj
 0001:00029734       ?dtor$8@?0??Initialize@Context2d@@SAXV?$Local@VObject@v8@@@v8@@@Z@4HA 000000018002a734 f   CanvasRenderingContext2d.obj
 0001:00029740       ?dtor$11@?0??Initialize@Context2d@@SAXV?$Local@VObject@v8@@@v8@@@Z@4HA 000000018002a740 f   CanvasRenderingContext2d.obj
 0001:0002974c       ?dtor$14@?0??Initialize@Context2d@@SAXV?$Local@VObject@v8@@@v8@@@Z@4HA 000000018002a74c f   CanvasRenderingContext2d.obj
 0001:00029758       ?dtor$17@?0??Initialize@Context2d@@SAXV?$Local@VObject@v8@@@v8@@@Z@4HA 000000018002a758 f   CanvasRenderingContext2d.obj
 0001:00029764       ?dtor$20@?0??Initialize@Context2d@@SAXV?$Local@VObject@v8@@@v8@@@Z@4HA 000000018002a764 f   CanvasRenderingContext2d.obj
 0001:00029770       ?dtor$23@?0??Initialize@Context2d@@SAXV?$Local@VObject@v8@@@v8@@@Z@4HA 000000018002a770 f   CanvasRenderingContext2d.obj
 0001:0002977c       ?dtor$26@?0??Initialize@Context2d@@SAXV?$Local@VObject@v8@@@v8@@@Z@4HA 000000018002a77c f   CanvasRenderingContext2d.obj
 0001:00029788       ?dtor$29@?0??Initialize@Context2d@@SAXV?$Local@VObject@v8@@@v8@@@Z@4HA 000000018002a788 f   CanvasRenderingContext2d.obj
 0001:00029794       ?dtor$32@?0??Initialize@Context2d@@SAXV?$Local@VObject@v8@@@v8@@@Z@4HA 000000018002a794 f   CanvasRenderingContext2d.obj
 0001:000297a0       ?dtor$35@?0??Initialize@Context2d@@SAXV?$Local@VObject@v8@@@v8@@@Z@4HA 000000018002a7a0 f   CanvasRenderingContext2d.obj
 0001:000297ac       ?dtor$38@?0??Initialize@Context2d@@SAXV?$Local@VObject@v8@@@v8@@@Z@4HA 000000018002a7ac f   CanvasRenderingContext2d.obj
 0001:000297b8       ?dtor$41@?0??Initialize@Context2d@@SAXV?$Local@VObject@v8@@@v8@@@Z@4HA 000000018002a7b8 f   CanvasRenderingContext2d.obj
 0001:000297c4       ?dtor$44@?0??Initialize@Context2d@@SAXV?$Local@VObject@v8@@@v8@@@Z@4HA 000000018002a7c4 f   CanvasRenderingContext2d.obj
 0001:000297d0       ?dtor$47@?0??Initialize@Context2d@@SAXV?$Local@VObject@v8@@@v8@@@Z@4HA 000000018002a7d0 f   CanvasRenderingContext2d.obj
 0001:000297dc       ?dtor$50@?0??Initialize@Context2d@@SAXV?$Local@VObject@v8@@@v8@@@Z@4HA 000000018002a7dc f   CanvasRenderingContext2d.obj
 0001:000297e8       ?dtor$53@?0??Initialize@Context2d@@SAXV?$Local@VObject@v8@@@v8@@@Z@4HA 000000018002a7e8 f   CanvasRenderingContext2d.obj
 0001:000297f4       ?dtor$56@?0??Initialize@Context2d@@SAXV?$Local@VObject@v8@@@v8@@@Z@4HA 000000018002a7f4 f   CanvasRenderingContext2d.obj
 0001:00029800       ?dtor$59@?0??Initialize@Context2d@@SAXV?$Local@VObject@v8@@@v8@@@Z@4HA 000000018002a800 f   CanvasRenderingContext2d.obj
 0001:0002980c       ?dtor$62@?0??Initialize@Context2d@@SAXV?$Local@VObject@v8@@@v8@@@Z@4HA 000000018002a80c f   CanvasRenderingContext2d.obj
 0001:00029818       ?dtor$65@?0??Initialize@Context2d@@SAXV?$Local@VObject@v8@@@v8@@@Z@4HA 000000018002a818 f   CanvasRenderingContext2d.obj
 0001:00029824       ?dtor$68@?0??Initialize@Context2d@@SAXV?$Local@VObject@v8@@@v8@@@Z@4HA 000000018002a824 f   CanvasRenderingContext2d.obj
 0001:00029830       ?dtor$71@?0??Initialize@Context2d@@SAXV?$Local@VObject@v8@@@v8@@@Z@4HA 000000018002a830 f   CanvasRenderingContext2d.obj
 0001:0002983c       ?dtor$74@?0??Initialize@Context2d@@SAXV?$Local@VObject@v8@@@v8@@@Z@4HA 000000018002a83c f   CanvasRenderingContext2d.obj
 0001:00029848       ?dtor$77@?0??Initialize@Context2d@@SAXV?$Local@VObject@v8@@@v8@@@Z@4HA 000000018002a848 f   CanvasRenderingContext2d.obj
 0001:00029854       ?dtor$80@?0??Initialize@Context2d@@SAXV?$Local@VObject@v8@@@v8@@@Z@4HA 000000018002a854 f   CanvasRenderingContext2d.obj
 0001:00029860       ?dtor$83@?0??Initialize@Context2d@@SAXV?$Local@VObject@v8@@@v8@@@Z@4HA 000000018002a860 f   CanvasRenderingContext2d.obj
 0001:0002986c       ?dtor$86@?0??Initialize@Context2d@@SAXV?$Local@VObject@v8@@@v8@@@Z@4HA 000000018002a86c f   CanvasRenderingContext2d.obj
 0001:00029878       ?dtor$89@?0??Initialize@Context2d@@SAXV?$Local@VObject@v8@@@v8@@@Z@4HA 000000018002a878 f   CanvasRenderingContext2d.obj
 0001:00029884       ?dtor$92@?0??Initialize@Context2d@@SAXV?$Local@VObject@v8@@@v8@@@Z@4HA 000000018002a884 f   CanvasRenderingContext2d.obj
 0001:00029890       ?dtor$95@?0??Initialize@Context2d@@SAXV?$Local@VObject@v8@@@v8@@@Z@4HA 000000018002a890 f   CanvasRenderingContext2d.obj
 0001:0002989c       ?dtor$98@?0??Initialize@Context2d@@SAXV?$Local@VObject@v8@@@v8@@@Z@4HA 000000018002a89c f   CanvasRenderingContext2d.obj
 0001:000298a8       ?dtor$101@?0??Initialize@Context2d@@SAXV?$Local@VObject@v8@@@v8@@@Z@4HA 000000018002a8a8 f   CanvasRenderingContext2d.obj
 0001:000298b4       ?dtor$104@?0??Initialize@Context2d@@SAXV?$Local@VObject@v8@@@v8@@@Z@4HA 000000018002a8b4 f   CanvasRenderingContext2d.obj
 0001:000298c0       ?dtor$107@?0??Initialize@Context2d@@SAXV?$Local@VObject@v8@@@v8@@@Z@4HA 000000018002a8c0 f   CanvasRenderingContext2d.obj
 0001:000298cc       ?dtor$110@?0??Initialize@Context2d@@SAXV?$Local@VObject@v8@@@v8@@@Z@4HA 000000018002a8cc f   CanvasRenderingContext2d.obj
 0001:000298d8       ?dtor$113@?0??Initialize@Context2d@@SAXV?$Local@VObject@v8@@@v8@@@Z@4HA 000000018002a8d8 f   CanvasRenderingContext2d.obj
 0001:000298e4       ?dtor$116@?0??Initialize@Context2d@@SAXV?$Local@VObject@v8@@@v8@@@Z@4HA 000000018002a8e4 f   CanvasRenderingContext2d.obj
 0001:000298f0       ?dtor$0@?0??PutImageData@Context2d@@SAXAEBV?$FunctionCallbackInfo@VValue@v8@@@Nan@@@Z@4HA 000000018002a8f0 f   CanvasRenderingContext2d.obj
 0001:000298fc       ?dtor$3@?0??PutImageData@Context2d@@SAXAEBV?$FunctionCallbackInfo@VValue@v8@@@Nan@@@Z@4HA 000000018002a8fc f   CanvasRenderingContext2d.obj
 0001:00029910       ?dtor$0@?0??GetImageData@Context2d@@SAXAEBV?$FunctionCallbackInfo@VValue@v8@@@Nan@@@Z@4HA 000000018002a910 f   CanvasRenderingContext2d.obj
 0001:0002991c       ?dtor$3@?0??GetImageData@Context2d@@SAXAEBV?$FunctionCallbackInfo@VValue@v8@@@Nan@@@Z@4HA 000000018002a91c f   CanvasRenderingContext2d.obj
 0001:00029930       ?dtor$0@?0??DrawImage@Context2d@@SAXAEBV?$FunctionCallbackInfo@VValue@v8@@@Nan@@@Z@4HA 000000018002a930 f   CanvasRenderingContext2d.obj
 0001:0002993c       ?dtor$3@?0??DrawImage@Context2d@@SAXAEBV?$FunctionCallbackInfo@VValue@v8@@@Nan@@@Z@4HA 000000018002a93c f   CanvasRenderingContext2d.obj
 0001:00029948       ?dtor$6@?0??DrawImage@Context2d@@SAXAEBV?$FunctionCallbackInfo@VValue@v8@@@Nan@@@Z@4HA 000000018002a948 f   CanvasRenderingContext2d.obj
 0001:00029954       ?dtor$9@?0??DrawImage@Context2d@@SAXAEBV?$FunctionCallbackInfo@VValue@v8@@@Nan@@@Z@4HA 000000018002a954 f   CanvasRenderingContext2d.obj
 0001:00029960       ?dtor$0@?0??SetAntiAlias@Context2d@@SAXV?$Local@VString@v8@@@v8@@V?$Local@VValue@v8@@@3@AEBV?$PropertyCallbackInfo@X@Nan@@@Z@4HA 000000018002a960 f   CanvasRenderingContext2d.obj
 0001:00029960       ?dtor$0@?0??SetFilter@Context2d@@SAXV?$Local@VString@v8@@@v8@@V?$Local@VValue@v8@@@3@AEBV?$PropertyCallbackInfo@X@Nan@@@Z@4HA 000000018002a960 f   CanvasRenderingContext2d.obj
 0001:00029960       ?dtor$0@?0??SetTextDrawingMode@Context2d@@SAXV?$Local@VString@v8@@@v8@@V?$Local@VValue@v8@@@3@AEBV?$PropertyCallbackInfo@X@Nan@@@Z@4HA 000000018002a960 f   CanvasRenderingContext2d.obj
 0001:00029960       ?dtor$0@?0??SetShadowColor@Context2d@@SAXV?$Local@VString@v8@@@v8@@V?$Local@VValue@v8@@@3@AEBV?$PropertyCallbackInfo@X@Nan@@@Z@4HA 000000018002a960 f   CanvasRenderingContext2d.obj
 0001:00029970       ?dtor$0@?0??FillText@Context2d@@SAXAEBV?$FunctionCallbackInfo@VValue@v8@@@Nan@@@Z@4HA 000000018002a970 f   CanvasRenderingContext2d.obj
 0001:00029970       ?dtor$0@?0??StrokeText@Context2d@@SAXAEBV?$FunctionCallbackInfo@VValue@v8@@@Nan@@@Z@4HA 000000018002a970 f   CanvasRenderingContext2d.obj
 0001:00029970       ?dtor$0@?0??SetStrokeColor@Context2d@@SAXAEBV?$FunctionCallbackInfo@VValue@v8@@@Nan@@@Z@4HA 000000018002a970 f   CanvasRenderingContext2d.obj
 0001:00029970       ?dtor$0@?0??SetFillColor@Context2d@@SAXAEBV?$FunctionCallbackInfo@VValue@v8@@@Nan@@@Z@4HA 000000018002a970 f   CanvasRenderingContext2d.obj
 0001:00029980       ?dtor$0@?0??SetFont@Context2d@@SAXAEBV?$FunctionCallbackInfo@VValue@v8@@@Nan@@@Z@4HA 000000018002a980 f   CanvasRenderingContext2d.obj
 0001:0002998e       ?dtor$1@?0??SetFont@Context2d@@SAXAEBV?$FunctionCallbackInfo@VValue@v8@@@Nan@@@Z@4HA 000000018002a98e f   CanvasRenderingContext2d.obj
 0001:0002999c       ?dtor$2@?0??SetFont@Context2d@@SAXAEBV?$FunctionCallbackInfo@VValue@v8@@@Nan@@@Z@4HA 000000018002a99c f   CanvasRenderingContext2d.obj
 0001:000299aa       ?dtor$3@?0??SetFont@Context2d@@SAXAEBV?$FunctionCallbackInfo@VValue@v8@@@Nan@@@Z@4HA 000000018002a9aa f   CanvasRenderingContext2d.obj
 0001:000299c0       ?dtor$0@?0??MeasureText@Context2d@@SAXAEBV?$FunctionCallbackInfo@VValue@v8@@@Nan@@@Z@4HA 000000018002a9c0 f   CanvasRenderingContext2d.obj
 0001:000299d0       ?dtor$0@?0??GetLineDash@Context2d@@SAXAEBV?$FunctionCallbackInfo@VValue@v8@@@Nan@@@Z@4HA 000000018002a9d0 f   CanvasRenderingContext2d.obj
 0001:000299d0       ?dtor$0@?0??SetLineDash@Context2d@@SAXAEBV?$FunctionCallbackInfo@VValue@v8@@@Nan@@@Z@4HA 000000018002a9d0 f   CanvasRenderingContext2d.obj
 0001:000299e0       ?dtor$0@?0??GetFunction@Callback@Nan@@QEBA?AV?$Local@VFunction@v8@@@v8@@XZ@4HA 000000018002a9e0 f   Image.obj
 0001:000299f0       ?dtor$0@?0??SetOnerror@Image@@SAXV?$Local@VString@v8@@@v8@@V?$Local@VValue@v8@@@3@AEBV?$PropertyCallbackInfo@X@Nan@@@Z@4HA 000000018002a9f0 f   Image.obj
 0001:000299f0       ?dtor$0@?0??SetOnload@Image@@SAXV?$Local@VString@v8@@@v8@@V?$Local@VValue@v8@@@3@AEBV?$PropertyCallbackInfo@X@Nan@@@Z@4HA 000000018002a9f0 f   Image.obj
 0001:00029a00       ?dtor$0@?0???1Image@@EEAA@XZ@4HA 000000018002aa00 f   Image.obj
 0001:00029a0c       ?dtor$1@?0???1Image@@EEAA@XZ@4HA 000000018002aa0c f   Image.obj
 0001:00029a18       ?dtor$3@?0???1Image@@EEAA@XZ@4HA 000000018002aa18 f   Image.obj
 0001:00029a24       ?dtor$5@?0???1Image@@EEAA@XZ@4HA 000000018002aa24 f   Image.obj
 0001:00029a40       ?dtor$0@?0??loaded@Image@@QEAAXXZ@4HA 000000018002aa40 f   Image.obj
 0001:00029a4c       ?dtor$3@?0??loaded@Image@@QEAAXXZ@4HA 000000018002aa4c f   Image.obj
 0001:00029a60       ?dtor$0@?0??error@Image@@QEAAXV?$Local@VValue@v8@@@v8@@@Z@4HA 000000018002aa60 f   Image.obj
 0001:00029a6c       ?dtor$3@?0??error@Image@@QEAAXV?$Local@VValue@v8@@@v8@@@Z@4HA 000000018002aa6c f   Image.obj
 0001:00029a80       ?dtor$1@?0??New@ImageData@@SAXAEBV?$FunctionCallbackInfo@VValue@v8@@@Nan@@@Z@4HA 000000018002aa80 f   ImageData.obj
 0001:00029a8c       ?dtor$4@?0??New@ImageData@@SAXAEBV?$FunctionCallbackInfo@VValue@v8@@@Nan@@@Z@4HA 000000018002aa8c f   ImageData.obj
 0001:00029a98       ?dtor$7@?0??New@ImageData@@SAXAEBV?$FunctionCallbackInfo@VValue@v8@@@Nan@@@Z@4HA 000000018002aa98 f   ImageData.obj
 0001:00029aa4       ?dtor$10@?0??New@ImageData@@SAXAEBV?$FunctionCallbackInfo@VValue@v8@@@Nan@@@Z@4HA 000000018002aaa4 f   ImageData.obj
 0001:00029ab0       ?dtor$13@?0??New@ImageData@@SAXAEBV?$FunctionCallbackInfo@VValue@v8@@@Nan@@@Z@4HA 000000018002aab0 f   ImageData.obj
 0001:00029abc       ?dtor$16@?0??New@ImageData@@SAXAEBV?$FunctionCallbackInfo@VValue@v8@@@Nan@@@Z@4HA 000000018002aabc f   ImageData.obj
 0001:00029ac8       ?dtor$19@?0??New@ImageData@@SAXAEBV?$FunctionCallbackInfo@VValue@v8@@@Nan@@@Z@4HA 000000018002aac8 f   ImageData.obj
 0001:00029ad4       ?dtor$22@?0??New@ImageData@@SAXAEBV?$FunctionCallbackInfo@VValue@v8@@@Nan@@@Z@4HA 000000018002aad4 f   ImageData.obj
 0001:00029ae0       ?fin$0@?0???_M@YAXPEAX_KHP6AX0@Z@Z@4HA 000000018002aae0 f   LIBCMT:ehvecdtr.obj
 0001:00029b0c       ?filt$0@?0??__ArrayUnwind@@YAXPEAX_KHP6AX0@Z@Z@4HA 000000018002ab0c f   LIBCMT:ehvecdtr.obj
 0001:00029b4d       _onexit$fin$0              000000018002ab4d f   LIBCMT:onexit.obj
 0001:00029b61       fwprintf$fin$0             000000018002ab61 f   LIBCMT:fopen.obj
 0001:00029b61       _fsopen$fin$0              000000018002ab61 f   LIBCMT:fopen.obj
 0001:00029b7b       fread_s$fin$0              000000018002ab7b f   LIBCMT:fread.obj
 0001:00029b93       _CRT_INIT$fin$0            000000018002ab93 f   LIBCMT:dllcrt0.obj
 0001:00029bb9       __DllMainCRTStartup$filt$0 000000018002abb9 f   LIBCMT:dllcrt0.obj
 0001:00029c02       _CallSETranslator$filt$0   000000018002ac02 f   LIBCMT:trnsctrl.obj
 0001:00029c48       doexit$fin$0               000000018002ac48 f   LIBCMT:crt0dat.obj
 0001:00029c6c       fflush$fin$0               000000018002ac6c f   LIBCMT:fflush.obj
 0001:00029c6c       fclose$fin$0               000000018002ac6c f   LIBCMT:fflush.obj
 0001:00029c6c       fseek$fin$0                000000018002ac6c f   LIBCMT:fflush.obj
 0001:00029c84       flsall$fin$0               000000018002ac84 f   LIBCMT:fflush.obj
 0001:00029cac       flsall$fin$1               000000018002acac f   LIBCMT:fflush.obj
 0001:00029cc5       setvbuf$fin$0              000000018002acc5 f   LIBCMT:setvbuf.obj
 0001:00029cdd       raise$fin$0                000000018002acdd f   LIBCMT:winsig.obj
 0001:00029cfb       _ctrlfp$filt$0             000000018002acfb f   LIBCMT:fpctrl.obj
 0001:00029d27       _lseek$fin$0               000000018002ad27 f   LIBCMT:lseek.obj
 0001:00029d27       _write$fin$0               000000018002ad27 f   LIBCMT:lseek.obj
 0001:00029d27       _lseeki64$fin$0            000000018002ad27 f   LIBCMT:lseek.obj
 0001:00029d27       _read$fin$0                000000018002ad27 f   LIBCMT:lseek.obj
 0001:00029d3e       __updatetmbcinfo$fin$0     000000018002ad3e f   LIBCMT:mbctype.obj
 0001:00029d3e       _setmbcp$fin$0             000000018002ad3e f   LIBCMT:mbctype.obj
 0001:00029d57       _initptd$fin$1             000000018002ad57 f   LIBCMT:tidtable.obj
 0001:00029d57       _freefls$fin$1             000000018002ad57 f   LIBCMT:tidtable.obj
 0001:00029d70       _initptd$fin$0             000000018002ad70 f   LIBCMT:tidtable.obj
 0001:00029d70       _freefls$fin$0             000000018002ad70 f   LIBCMT:tidtable.obj
 0001:00029d89       _locterm$fin$0             000000018002ad89 f   LIBCMT:wsetloca.obj
 0001:00029d89       __updatetlocinfo$fin$0     000000018002ad89 f   LIBCMT:wsetloca.obj
 0001:00029da2       _ioinit$fin$0              000000018002ada2 f   LIBCMT:ioinit.obj
 0001:00029dbd       __CxxCallCatchBlock$filt$0 000000018002adbd f   LIBCMT:frame.obj
 0001:00029eb1       __CxxCallCatchBlock$fin$1  000000018002aeb1 f   LIBCMT:frame.obj
 0001:00029f2f       __DestructExceptionObject$filt$0 000000018002af2f f   LIBCMT:frame.obj
 0001:00029f47       __FrameUnwindToState$filt$0 000000018002af47 f   LIBCMT:frame.obj
 0001:00029f5d       __FrameUnwindToState$fin$1 000000018002af5d f   LIBCMT:frame.obj
 0001:00029f86       ?fin$0@?0??_Type_info_dtor@type_info@@CAXPEAV1@@Z@4HA 000000018002af86 f   LIBCMT:typname.obj
 0001:00029f9f       _mtinitlocknum$fin$0       000000018002af9f f   LIBCMT:mlock.obj
 0001:00029fc0       _IsNonwritableInCurrentImage$filt$0 000000018002afc0 f   LIBCMT:pesect.obj
 0001:00029fe0       _fcloseall$fin$0           000000018002afe0 f   LIBCMT:closeall.obj
 0001:00029fe0       _getstream$fin$0           000000018002afe0 f   LIBCMT:closeall.obj
 0001:00029ff9       _commit$fin$0              000000018002aff9 f   LIBCMT:commit.obj
 0001:00029ff9       _close$fin$0               000000018002aff9 f   LIBCMT:commit.obj
 0001:0002a010       _sopen_helper$fin$0        000000018002b010 f   LIBCMT:open.obj
 0001:0002a063       __lock_fhandle$fin$0       000000018002b063 f   LIBCMT:osfinfo.obj
 0001:0002a07c       _alloc_osfhnd$fin$0        000000018002b07c f   LIBCMT:osfinfo.obj
 0001:0002a097       _alloc_osfhnd$fin$1        000000018002b097 f   LIBCMT:osfinfo.obj
 0001:0002a0b0       ??__F?constructor@Canvas@@2V?$Persistent@VFunctionTemplate@v8@@V?$NonCopyablePersistentTraits@VFunctionTemplate@v8@@@2@@Nan@@A@@YAXXZ 000000018002b0b0 f   Canvas.obj
 0001:0002a0c0       ??__F?constructor@Gradient@@2V?$Persistent@VFunctionTemplate@v8@@V?$NonCopyablePersistentTraits@VFunctionTemplate@v8@@@2@@Nan@@A@@YAXXZ 000000018002b0c0 f   CanvasGradient.obj
 0001:0002a0d0       ??__F?constructor@Pattern@@2V?$Persistent@VFunctionTemplate@v8@@V?$NonCopyablePersistentTraits@VFunctionTemplate@v8@@@2@@Nan@@A@@YAXXZ 000000018002b0d0 f   CanvasPattern.obj
 0001:0002a0e0       ??__F?constructor@Context2d@@2V?$Persistent@VFunctionTemplate@v8@@V?$NonCopyablePersistentTraits@VFunctionTemplate@v8@@@2@@Nan@@A@@YAXXZ 000000018002b0e0 f   CanvasRenderingContext2d.obj
 0001:0002a0f0       ??__F?constructor@Image@@2V?$Persistent@VFunctionTemplate@v8@@V?$NonCopyablePersistentTraits@VFunctionTemplate@v8@@@2@@Nan@@A@@YAXXZ 000000018002b0f0 f   Image.obj
 0001:0002a100       ??__F?constructor@ImageData@@2V?$Persistent@VFunctionTemplate@v8@@V?$NonCopyablePersistentTraits@VFunctionTemplate@v8@@@2@@Nan@@A@@YAXXZ 000000018002b100 f   ImageData.obj
 0002:000005d0       piecewise_construct$initializer$ 000000018002c5d0     Canvas.obj
 0002:000005d8       allocator_arg$initializer$ 000000018002c5d8     Canvas.obj
 0002:000005e0       ?constructor$initializer$@Canvas@@2P6AXXZEA 000000018002c5e0     Canvas.obj
 0002:000005e8       ?constructor$initializer$@Gradient@@2P6AXXZEA 000000018002c5e8     CanvasGradient.obj
 0002:000005f0       piecewise_construct$initializer$ 000000018002c5f0     CanvasGradient.obj
 0002:000005f8       allocator_arg$initializer$ 000000018002c5f8     CanvasGradient.obj
 0002:00000600       ?constructor$initializer$@Pattern@@2P6AXXZEA 000000018002c600     CanvasPattern.obj
 0002:00000608       piecewise_construct$initializer$ 000000018002c608     CanvasPattern.obj
 0002:00000610       allocator_arg$initializer$ 000000018002c610     CanvasPattern.obj
 0002:00000618       ?constructor$initializer$@Context2d@@2P6AXXZEA 000000018002c618     CanvasRenderingContext2d.obj
 0002:00000620       piecewise_construct$initializer$ 000000018002c620     CanvasRenderingContext2d.obj
 0002:00000628       allocator_arg$initializer$ 000000018002c628     CanvasRenderingContext2d.obj
 0002:00000630       piecewise_construct$initializer$ 000000018002c630     Image.obj
 0002:00000638       allocator_arg$initializer$ 000000018002c638     Image.obj
 0002:00000640       ?constructor$initializer$@Image@@2P6AXXZEA 000000018002c640     Image.obj
 0002:00000648       ?constructor$initializer$@ImageData@@2P6AXXZEA 000000018002c648     ImageData.obj
 0002:00000650       piecewise_construct$initializer$ 000000018002c650     ImageData.obj
 0002:00000658       allocator_arg$initializer$ 000000018002c658     ImageData.obj
 0002:00000660       piecewise_construct$initializer$ 000000018002c660     init.obj
 0002:00000668       allocator_arg$initializer$ 000000018002c668     init.obj
 0002:00000688       pinit                      000000018002c688     LIBCMT:onexit.obj
 0002:00000690       pinit                      000000018002c690     LIBCMT:cpu_disp.obj
 0002:00000698       pinit                      000000018002c698     LIBCMT:_file.obj
 0002:000006a0       pinit                      000000018002c6a0     LIBCMT:mbctype.obj
 0002:000006a8       init_fma3                  000000018002c6a8     LIBCMT:fma3_available.obj
 0002:000006c0       pterm                      000000018002c6c0     LIBCMT:wsetloca.obj
 0002:000006c8       pterm                      000000018002c6c8     LIBCMT:initcon.obj
 0002:000006d0       pterm                      000000018002c6d0     LIBCMT:_file.obj
 0002:00000740       _Win_errtab                000000018002c740     libcpmt:syserror.obj
 0002:00000bf0       _Sys_errtab                000000018002cbf0     libcpmt:syserror.obj
 0002:00001d20       ?ExceptionTemplate@?1??_CxxThrowException@@9@4UEHExceptionRecord@@B 000000018002dd20     LIBCMT:throw.obj
 0002:00001d60       ?ExceptionTemplate@?1??_UnwindNestedFrames@@9@4U_EXCEPTION_RECORD@@B 000000018002dd60     LIBCMT:trnsctrl.obj
 0002:00001e40       GS_ExceptionPointers       000000018002de40     LIBCMT:gs_report.obj
 0002:00001e80       rterrs                     000000018002de80     LIBCMT:crt0msg.obj
 0002:00002a60       ?ccsField@?P@??_openfile@@9@9 000000018002ea60     LIBCMT:_open.obj
 0002:00002a64       ?utf8encoding@?P@??_openfile@@9@9 000000018002ea64     LIBCMT:_open.obj
 0002:00002a70       ?utf16encoding@?P@??_openfile@@9@9 000000018002ea70     LIBCMT:_open.obj
 0002:00002a80       ?unicodeencoding@?P@??_openfile@@9@9 000000018002ea80     LIBCMT:_open.obj
 0002:00002a88       _mb_locale_names           000000018002ea88     LIBCMT:mbctype.obj
 0002:00002ea0       _first_127char             000000018002eea0     LIBCMT:wsetloca.obj
 0002:00006660       __real@433fffffffffffff    0000000180032660     LIBCMT:fpsr.obj
 0002:00006668       __real@c33fffffffffffff    0000000180032668     LIBCMT:fpsr.obj
 0002:00006fa0       tokenTable                 0000000180032fa0     LIBCMT:undname.obj
 0002:00007010       nameTable                  0000000180033010     LIBCMT:undname.obj
 0002:00007290       rttiTable                  0000000180033290     LIBCMT:undname.obj
 0002:00009150       named_colors               0000000180035150     color.obj
 0002:00009d08       $cppxdata$?resurface@Canvas@@QEAAXV?$Local@VObject@v8@@@v8@@@Z 0000000180035d08     Canvas.obj
 0002:00009d30       $cppxdata$??1Canvas@@EEAA@XZ 0000000180035d30     Canvas.obj
 0002:00009d58       $cppxdata$??0Canvas@@QEAA@HHW4canvas_type_t@@@Z 0000000180035d58     Canvas.obj
 0002:00009d80       $cppxdata$?StreamPNGSync@Canvas@@SAXAEBV?$FunctionCallbackInfo@VValue@v8@@@Nan@@@Z 0000000180035d80     Canvas.obj
 0002:00009da8       $cppxdata$?streamPNG@@YA?AW4_cairo_status@@PEAXPEBEI@Z 0000000180035da8     Canvas.obj
 0002:00009dd0       $cppxdata$?ToBuffer@Canvas@@SAXAEBV?$FunctionCallbackInfo@VValue@v8@@@Nan@@@Z 0000000180035dd0     Canvas.obj
 0002:00009df8       $cppxdata$?ToBufferAsyncAfter@Canvas@@SAXPEAUuv_work_s@@@Z 0000000180035df8     Canvas.obj
 0002:00009e20       $cppxdata$?New@Canvas@@SAXAEBV?$FunctionCallbackInfo@VValue@v8@@@Nan@@@Z 0000000180035e20     Canvas.obj
 0002:00009e48       $cppxdata$?Initialize@Canvas@@SAXV?$Local@VObject@v8@@@v8@@@Z 0000000180035e48     Canvas.obj
 0002:00009e70       $cppxdata$??1ObjectWrap@Nan@@UEAA@XZ 0000000180035e70     Canvas.obj
 0002:00009e98       $cppxdata$?SetAccessor@Nan@@YAXV?$Local@VObjectTemplate@v8@@@v8@@V?$Local@VString@v8@@@3@P6AX1AEBV?$PropertyCallbackInfo@VValue@v8@@@1@@ZP6AX1V?$Local@VValue@v8@@@3@AEBV?$PropertyCallbackInfo@X@1@@Z4W4AccessControl@3@W4PropertyAttribute@3@V?$Local@VAccessorSignature@v8@@@3@@Z 0000000180035e98     Canvas.obj
 0002:00009ec0       $cppxdata$?Call_@Callback@Nan@@AEBA?AV?$Local@VValue@v8@@@v8@@PEAVIsolate@4@V?$Local@VObject@v8@@@4@HQEAV34@@Z 0000000180035ec0     Canvas.obj
 0002:00009ee8       $cppxdata$??0Callback@Nan@@QEAA@AEBV?$Local@VFunction@v8@@@v8@@@Z 0000000180035ee8     Canvas.obj
 0002:00009f10       $cppxdata$?New@?$Factory@VFunctionTemplate@v8@@@imp@Nan@@SA?AV?$Local@VFunctionTemplate@v8@@@v8@@P6AXAEBV?$FunctionCallbackInfo@VValue@v8@@@3@@ZV?$Local@VValue@v8@@@5@V?$Local@VSignature@v8@@@5@@Z 0000000180035f10     Canvas.obj
 0002:0000a000       $cppxdata$?AddColorStop@Gradient@@SAXAEBV?$FunctionCallbackInfo@VValue@v8@@@Nan@@@Z 0000000180036000     CanvasGradient.obj
 0002:0000a028       $cppxdata$?New@Gradient@@SAXAEBV?$FunctionCallbackInfo@VValue@v8@@@Nan@@@Z 0000000180036028     CanvasGradient.obj
 0002:0000a050       $cppxdata$?Initialize@Gradient@@SAXV?$Local@VObject@v8@@@v8@@@Z 0000000180036050     CanvasGradient.obj
 0002:0000a078       $cppxdata$?New@Pattern@@SAXAEBV?$FunctionCallbackInfo@VValue@v8@@@Nan@@@Z 0000000180036078     CanvasPattern.obj
 0002:0000a0a0       $cppxdata$?Initialize@Pattern@@SAXV?$Local@VObject@v8@@@v8@@@Z 00000001800360a0     CanvasPattern.obj
 0002:0000a0c8       $cppxdata$?GetLineDash@Context2d@@SAXAEBV?$FunctionCallbackInfo@VValue@v8@@@Nan@@@Z 00000001800360c8     CanvasRenderingContext2d.obj
 0002:0000a0f0       $cppxdata$?SetLineDash@Context2d@@SAXAEBV?$FunctionCallbackInfo@VValue@v8@@@Nan@@@Z 00000001800360f0     CanvasRenderingContext2d.obj
 0002:0000a118       $cppxdata$?MeasureText@Context2d@@SAXAEBV?$FunctionCallbackInfo@VValue@v8@@@Nan@@@Z 0000000180036118     CanvasRenderingContext2d.obj
 0002:0000a140       $cppxdata$?SetFont@Context2d@@SAXAEBV?$FunctionCallbackInfo@VValue@v8@@@Nan@@@Z 0000000180036140     CanvasRenderingContext2d.obj
 0002:0000a168       $cppxdata$?MoveTo@Context2d@@SAXAEBV?$FunctionCallbackInfo@VValue@v8@@@Nan@@@Z 0000000180036168     CanvasRenderingContext2d.obj
 0002:0000a190       $cppxdata$?LineTo@Context2d@@SAXAEBV?$FunctionCallbackInfo@VValue@v8@@@Nan@@@Z 0000000180036190     CanvasRenderingContext2d.obj
 0002:0000a1b8       $cppxdata$?StrokeText@Context2d@@SAXAEBV?$FunctionCallbackInfo@VValue@v8@@@Nan@@@Z 00000001800361b8     CanvasRenderingContext2d.obj
 0002:0000a1e0       $cppxdata$?FillText@Context2d@@SAXAEBV?$FunctionCallbackInfo@VValue@v8@@@Nan@@@Z 00000001800361e0     CanvasRenderingContext2d.obj
 0002:0000a208       $cppxdata$?SetStrokeColor@Context2d@@SAXAEBV?$FunctionCallbackInfo@VValue@v8@@@Nan@@@Z 0000000180036208     CanvasRenderingContext2d.obj
 0002:0000a230       $cppxdata$?SetFillColor@Context2d@@SAXAEBV?$FunctionCallbackInfo@VValue@v8@@@Nan@@@Z 0000000180036230     CanvasRenderingContext2d.obj
 0002:0000a258       $cppxdata$?SetShadowColor@Context2d@@SAXV?$Local@VString@v8@@@v8@@V?$Local@VValue@v8@@@3@AEBV?$PropertyCallbackInfo@X@Nan@@@Z 0000000180036258     CanvasRenderingContext2d.obj
 0002:0000a280       $cppxdata$?SetStrokePattern@Context2d@@SAXAEBV?$FunctionCallbackInfo@VValue@v8@@@Nan@@@Z 0000000180036280     CanvasRenderingContext2d.obj
 0002:0000a2a8       $cppxdata$?SetFillPattern@Context2d@@SAXAEBV?$FunctionCallbackInfo@VValue@v8@@@Nan@@@Z 00000001800362a8     CanvasRenderingContext2d.obj
 0002:0000a2d0       $cppxdata$?SetFilter@Context2d@@SAXV?$Local@VString@v8@@@v8@@V?$Local@VValue@v8@@@3@AEBV?$PropertyCallbackInfo@X@Nan@@@Z 00000001800362d0     CanvasRenderingContext2d.obj
 0002:0000a2f8       $cppxdata$?SetTextDrawingMode@Context2d@@SAXV?$Local@VString@v8@@@v8@@V?$Local@VValue@v8@@@3@AEBV?$PropertyCallbackInfo@X@Nan@@@Z 00000001800362f8     CanvasRenderingContext2d.obj
 0002:0000a320       $cppxdata$?SetAntiAlias@Context2d@@SAXV?$Local@VString@v8@@@v8@@V?$Local@VValue@v8@@@3@AEBV?$PropertyCallbackInfo@X@Nan@@@Z 0000000180036320     CanvasRenderingContext2d.obj
 0002:0000a348       $cppxdata$?DrawImage@Context2d@@SAXAEBV?$FunctionCallbackInfo@VValue@v8@@@Nan@@@Z 0000000180036348     CanvasRenderingContext2d.obj
 0002:0000a370       $cppxdata$?GetImageData@Context2d@@SAXAEBV?$FunctionCallbackInfo@VValue@v8@@@Nan@@@Z 0000000180036370     CanvasRenderingContext2d.obj
 0002:0000a398       $cppxdata$?PutImageData@Context2d@@SAXAEBV?$FunctionCallbackInfo@VValue@v8@@@Nan@@@Z 0000000180036398     CanvasRenderingContext2d.obj
 0002:0000a3c0       $cppxdata$?AddPage@Context2d@@SAXAEBV?$FunctionCallbackInfo@VValue@v8@@@Nan@@@Z 00000001800363c0     CanvasRenderingContext2d.obj
 0002:0000a3e8       $cppxdata$?New@Context2d@@SAXAEBV?$FunctionCallbackInfo@VValue@v8@@@Nan@@@Z 00000001800363e8     CanvasRenderingContext2d.obj
 0002:0000a410       $cppxdata$?Initialize@Context2d@@SAXV?$Local@VObject@v8@@@v8@@@Z 0000000180036410     CanvasRenderingContext2d.obj
 0002:0000a438       $cppxdata$?error@Image@@QEAAXV?$Local@VValue@v8@@@v8@@@Z 0000000180036438     Image.obj
 0002:0000a460       $cppxdata$?loaded@Image@@QEAAXXZ 0000000180036460     Image.obj
 0002:0000a488       $cppxdata$??1Image@@EEAA@XZ 0000000180036488     Image.obj
 0002:0000a4b0       $cppxdata$?SetOnerror@Image@@SAXV?$Local@VString@v8@@@v8@@V?$Local@VValue@v8@@@3@AEBV?$PropertyCallbackInfo@X@Nan@@@Z 00000001800364b0     Image.obj
 0002:0000a4d8       $cppxdata$?SetOnload@Image@@SAXV?$Local@VString@v8@@@v8@@V?$Local@VValue@v8@@@3@AEBV?$PropertyCallbackInfo@X@Nan@@@Z 00000001800364d8     Image.obj
 0002:0000a500       $cppxdata$?Initialize@Image@@SAXV?$Local@VObject@v8@@@v8@@@Z 0000000180036500     Image.obj
 0002:0000a528       $cppxdata$?GetFunction@Callback@Nan@@QEBA?AV?$Local@VFunction@v8@@@v8@@XZ 0000000180036528     Image.obj
 0002:0000a550       $cppxdata$?New@ImageData@@SAXAEBV?$FunctionCallbackInfo@VValue@v8@@@Nan@@@Z 0000000180036550     ImageData.obj
 0002:0000a578       $cppxdata$?Initialize@ImageData@@SAXV?$Local@VObject@v8@@@v8@@@Z 0000000180036578     ImageData.obj
 0002:0000a5a0       ?pi@?1??acos@@9@9          00000001800365a0     LIBCMT:acos.obj
 0002:0000a5a8       ?piby2@?1??acos@@9@9       00000001800365a8     LIBCMT:acos.obj
 0002:0000a5b0       ?piby2_head@?1??acos@@9@9  00000001800365b0     LIBCMT:acos.obj
 0002:0000a5b8       ?piby2_tail@?1??acos@@9@9  00000001800365b8     LIBCMT:acos.obj
 0002:0000a628       ?piby2@?1??acosf@@9@9      0000000180036628     LIBCMT:acosf.obj
 0002:0000a630       ?pi@?1??acosf@@9@9         0000000180036630     LIBCMT:acosf.obj
 0002:0000a638       ?piby2_head@?1??acosf@@9@9 0000000180036638     LIBCMT:acosf.obj
 0002:0000a640       ?piby2_tail@?1??acosf@@9@9 0000000180036640     LIBCMT:acosf.obj
 0002:0000a690       L_signbit                  0000000180036690     LIBCMT:tan.obj
 0002:0000a6a0       L_sign_mask                00000001800366a0     LIBCMT:tan.obj
 0002:0000a6b0       L_int_one                  00000001800366b0     LIBCMT:tan.obj
 0002:0000a6c0       L_twobypi                  00000001800366c0     LIBCMT:tan.obj
 0002:0000a6d0       L_point_333                00000001800366d0     LIBCMT:tan.obj
 0002:0000a6e0       L_tan_p0                   00000001800366e0     LIBCMT:tan.obj
 0002:0000a6f0       L_tan_p2                   00000001800366f0     LIBCMT:tan.obj
 0002:0000a700       L_tan_p4                   0000000180036700     LIBCMT:tan.obj
 0002:0000a710       L_tan_q0                   0000000180036710     LIBCMT:tan.obj
 0002:0000a720       L_tan_q2                   0000000180036720     LIBCMT:tan.obj
 0002:0000a730       L_tan_q4                   0000000180036730     LIBCMT:tan.obj
 0002:0000a740       L_tan_q6                   0000000180036740     LIBCMT:tan.obj
 0002:0000a750       L_half_mask                0000000180036750     LIBCMT:tan.obj
 0002:0000a760       L_piby4_lead               0000000180036760     LIBCMT:tan.obj
 0002:0000a770       L_piby4_tail               0000000180036770     LIBCMT:tan.obj
 0002:0000a780       L_piby2_1                  0000000180036780     LIBCMT:tan.obj
 0002:0000a788       L_piby2_1tail              0000000180036788     LIBCMT:tan.obj
 0002:0000a790       L_piby2_2                  0000000180036790     LIBCMT:tan.obj
 0002:0000a798       L_piby2_2tail              0000000180036798     LIBCMT:tan.obj
 0002:0000a7a0       L_piby2_3                  00000001800367a0     LIBCMT:tan.obj
 0002:0000a7a8       L_piby2_3tail              00000001800367a8     LIBCMT:tan.obj
 0002:0000a7b0       L_two_to_neg_27            00000001800367b0     LIBCMT:tan.obj
 0002:0000a7b8       L_two_to_neg_13            00000001800367b8     LIBCMT:tan.obj
 0002:0000a7c0       L_inf_mask_64              00000001800367c0     LIBCMT:tan.obj
 0002:0000a7c8       L_point_five               00000001800367c8     LIBCMT:tan.obj
 0002:0000a7d0       L_point_68                 00000001800367d0     LIBCMT:tan.obj
 0002:0000a7d8       L_n_point_68               00000001800367d8     LIBCMT:tan.obj
 0002:0000a7e0       L_zero                     00000001800367e0     LIBCMT:tan.obj
 0002:0000a7e8       L_one                      00000001800367e8     LIBCMT:tan.obj
 0002:0000a7f0       L_n_one                    00000001800367f0     LIBCMT:tan.obj
 0002:0000a7f8       L_two                      00000001800367f8     LIBCMT:tan.obj
 0002:0000a800       L_moderate_arg_cw          0000000180036800     LIBCMT:tan.obj
 0002:0000a808       L_moderate_arg_bdl         0000000180036808     LIBCMT:tan.obj
 0002:0000a810       L_piby2_lead               0000000180036810     LIBCMT:remainder_piby2_forFMA3.obj
 0002:0000a820       L_fff800                   0000000180036820     LIBCMT:remainder_piby2_forFMA3.obj
 0002:0000a830       L_piby2_part1              0000000180036830     LIBCMT:remainder_piby2_forFMA3.obj
 0002:0000a840       L_piby2_part2              0000000180036840     LIBCMT:remainder_piby2_forFMA3.obj
 0002:0000a850       L_piby2_part3              0000000180036850     LIBCMT:remainder_piby2_forFMA3.obj
 0002:0000a860       L_piby2_1                  0000000180036860     LIBCMT:remainder_piby2_forFMA3.obj
 0002:0000a870       L_piby2_2                  0000000180036870     LIBCMT:remainder_piby2_forFMA3.obj
 0002:0000a880       L_piby2_3                  0000000180036880     LIBCMT:remainder_piby2_forFMA3.obj
 0002:0000a890       L_piby2_1tail              0000000180036890     LIBCMT:remainder_piby2_forFMA3.obj
 0002:0000a8a0       L_piby2_2tail              00000001800368a0     LIBCMT:remainder_piby2_forFMA3.obj
 0002:0000a8b0       L_piby2_3tail              00000001800368b0     LIBCMT:remainder_piby2_forFMA3.obj
 0002:0000a8c0       L_sign_mask                00000001800368c0     LIBCMT:remainder_piby2_forFMA3.obj
 0002:0000a8d0       L_twobypi                  00000001800368d0     LIBCMT:remainder_piby2_forFMA3.obj
 0002:0000a8e0       L_point_five               00000001800368e0     LIBCMT:remainder_piby2_forFMA3.obj
 0002:0000a8f0       L_int_three                00000001800368f0     LIBCMT:remainder_piby2_forFMA3.obj
 0002:0000a900       L_inf_mask_64              0000000180036900     LIBCMT:remainder_piby2_forFMA3.obj
 0002:0000a910       L_signbit                  0000000180036910     LIBCMT:remainder_piby2_forFMA3.obj
 0002:0000a920       L_r                        0000000180036920     LIBCMT:remainder_piby2_forFMA3.obj
 0002:0000a930       L_xc1                      0000000180036930     LIBCMT:remainder_piby2_forFMA3.obj
 0002:0000a940       L_xc2                      0000000180036940     LIBCMT:remainder_piby2_forFMA3.obj
 0002:0000a950       L_xc3                      0000000180036950     LIBCMT:remainder_piby2_forFMA3.obj
 0002:0000a960       L_sigma                    0000000180036960     LIBCMT:remainder_piby2_forFMA3.obj
 0002:0000a970       L__piby2_part3_piby2_lead  0000000180036970     LIBCMT:remainder_piby2_forAsm.obj
 0002:0000a980       L__piby2_part1             0000000180036980     LIBCMT:remainder_piby2_forAsm.obj
 0002:0000a990       L__piby2_part2             0000000180036990     LIBCMT:remainder_piby2_forAsm.obj
 0002:0000a9a0       L_piby2_1                  00000001800369a0     LIBCMT:remainder_piby2_forAsm.obj
 0002:0000a9b0       L_piby2_2                  00000001800369b0     LIBCMT:remainder_piby2_forAsm.obj
 0002:0000a9c0       L_piby2_3                  00000001800369c0     LIBCMT:remainder_piby2_forAsm.obj
 0002:0000a9d0       L_piby2_1tail              00000001800369d0     LIBCMT:remainder_piby2_forAsm.obj
 0002:0000a9e0       L_piby2_2tail              00000001800369e0     LIBCMT:remainder_piby2_forAsm.obj
 0002:0000a9f0       L_piby2_3tail              00000001800369f0     LIBCMT:remainder_piby2_forAsm.obj
 0002:0000aa00       L_twobypi                  0000000180036a00     LIBCMT:remainder_piby2_forAsm.obj
 0002:0000aa10       L_point_five               0000000180036a10     LIBCMT:remainder_piby2_forAsm.obj
 0002:0000aa20       L_int_three                0000000180036a20     LIBCMT:remainder_piby2_forAsm.obj
 0002:0000aa30       L_inf_mask_64              0000000180036a30     LIBCMT:remainder_piby2_forAsm.obj
 0002:0000aa40       L_signbit                  0000000180036a40     LIBCMT:remainder_piby2_forAsm.obj
 0002:0000aa50       L_int_1                    0000000180036a50     LIBCMT:remainder_piby2_forAsm.obj
 0002:0000aa60       L_int_15                   0000000180036a60     LIBCMT:remainder_piby2_forAsm.obj
 0002:0000aa68       L_int_48                   0000000180036a68     LIBCMT:remainder_piby2_forAsm.obj
 0002:0000aa70       L_3pio4                    0000000180036a70     LIBCMT:remainder_piby2_forAsm.obj
 0002:0000aa78       L_5pio4                    0000000180036a78     LIBCMT:remainder_piby2_forAsm.obj
 0002:0000aa80       L_7pio4                    0000000180036a80     LIBCMT:remainder_piby2_forAsm.obj
 0002:0000aa88       L_9pio4                    0000000180036a88     LIBCMT:remainder_piby2_forAsm.obj
 0002:0000aa90       L__2_by_pi_bits            0000000180036a90     LIBCMT:remainder_piby2_forAsm.obj
 0002:0000b000       $unwind$?IsDead@V8@v8@@SA_NXZ 0000000180037000     Canvas.obj
 0002:0000b000       $unwind$_invoke_watson     0000000180037000     LIBCMT:invarg.obj
 0002:0000b000       $unwind$_msize             0000000180037000     LIBCMT:msize.obj
 0002:0000b000       $unwind$?ResetTransform@Context2d@@SAXAEBV?$FunctionCallbackInfo@VValue@v8@@@Nan@@@Z 0000000180037000     CanvasRenderingContext2d.obj
 0002:0000b000       $unwind$?ClosePath@Context2d@@SAXAEBV?$FunctionCallbackInfo@VValue@v8@@@Nan@@@Z 0000000180037000     CanvasRenderingContext2d.obj
 0002:0000b000       $unwind$_FF_MSGBANNER      0000000180037000     LIBCMT:crt0msg.obj
 0002:0000b000       $unwind$??8type_info@@QEBA_NAEBV0@@Z 0000000180037000     LIBCMT:typinfo.obj
 0002:0000b000       $unwind$_heap_init         0000000180037000     LIBCMT:heapinit.obj
 0002:0000b000       $unwind$?IsExecutionTerminating@V8@v8@@SA_NPEAVIsolate@2@@Z 0000000180037000     Canvas.obj
 0002:0000b000       $unwind$?BeginPath@Context2d@@SAXAEBV?$FunctionCallbackInfo@VValue@v8@@@Nan@@@Z 0000000180037000     CanvasRenderingContext2d.obj
 0002:0000b000       $unwind$_initp_eh_hooks    0000000180037000     LIBCMT:hooks.obj
 0002:0000b000       $unwind$_get_osfhandle     0000000180037000     LIBCMT:osfinfo.obj
 0002:0000b000       $unwind$_get_fmode         0000000180037000     LIBCMT:setmode.obj
 0002:0000b000       $unwind$__termconout       0000000180037000     LIBCMT:initcon.obj
 0002:0000b000       $unwind$abort              0000000180037000     LIBCMT:abort.obj
 0002:0000b000       $unwind$_set_error_mode    0000000180037000     LIBCMT:errmode.obj
 0002:0000b000       $unwind$__doserrno         0000000180037000     LIBCMT:dosmap.obj
 0002:0000b000       $unwind$_strnicmp          0000000180037000     LIBCMT:strnicmp.obj
 0002:0000b000       $unwind$?GetId@Script@v8@@QEAAHXZ 0000000180037000     Canvas.obj
 0002:0000b000       $unwind$atexit             0000000180037000     LIBCMT:onexit.obj
 0002:0000b000       $unwind$_statfp            0000000180037000     LIBCMT:fpctrl.obj
 0002:0000b000       $unwind$_purecall          0000000180037000     LIBCMT:purevirt.obj
 0002:0000b000       $unwind$__GSHandlerCheck   0000000180037000     LIBCMT:gshandler.obj
 0002:0000b000       $unwind$?Stroke@Context2d@@SAXAEBV?$FunctionCallbackInfo@VValue@v8@@@Nan@@@Z 0000000180037000     CanvasRenderingContext2d.obj
 0002:0000b000       $unwind$?Fill@Context2d@@SAXAEBV?$FunctionCallbackInfo@VValue@v8@@@Nan@@@Z 0000000180037000     CanvasRenderingContext2d.obj
 0002:0000b000       $unwind$_set_errno_from_matherr 0000000180037000     LIBCMT:fpexcept.obj
 0002:0000b000       $unwind$?Clip@Context2d@@SAXAEBV?$FunctionCallbackInfo@VValue@v8@@@Nan@@@Z 0000000180037000     CanvasRenderingContext2d.obj
 0002:0000b000       $unwind$__endstdio         0000000180037000     LIBCMT:_file.obj
 0002:0000b000       $unwind$__initmbctable     0000000180037000     LIBCMT:mbctype.obj
 0002:0000b000       $unwind$?__GetCurrentState@@YAHPEA_KPEAU_xDISPATCHER_CONTEXT@@PEBU_s_FuncInfo@@@Z 0000000180037000     LIBCMT:ehstate.obj
 0002:0000b000       $unwind$__crtDownlevelLocaleNameToLCID 0000000180037000     LIBCMT:winapinls.obj
 0002:0000b000       $unwind$__FrameUnwindFilter 0000000180037000     LIBCMT:frame.obj
 0002:0000b000       $unwind$_errno             0000000180037000     LIBCMT:dosmap.obj
 0002:0000b000       $unwind$_fileno            0000000180037000     LIBCMT:fileno.obj
 0002:0000b000       $unwind$_mtterm            0000000180037000     LIBCMT:tidtable.obj
 0002:0000b000       $unwind$_GetImageBase      0000000180037000     LIBCMT:trnsctrl.obj
 0002:0000b000       $unwind$__crtInitializeCriticalSectionEx 0000000180037000     LIBCMT:winapisupp.obj
 0002:0000b000       $unwind$_stricmp           0000000180037000     LIBCMT:stricmp.obj
 0002:0000b000       $unwind$_GetThrowImageBase 0000000180037000     LIBCMT:trnsctrl.obj
 0002:0000b000       $unwind$_isatty            0000000180037000     LIBCMT:isatty.obj
 0002:0000b008       $unwind$??_EExternalOneByteStringResourceImpl@v8@@UEAAPEAXI@Z 0000000180037008     Canvas.obj
 0002:0000b008       $unwind$?rgba_from_rgb_string@@YAHPEBDPEAF@Z 0000000180037008     color.obj
 0002:0000b008       $unwind$??_EExternalSourceStream@ScriptCompiler@v8@@UEAAPEAXI@Z 0000000180037008     Canvas.obj
 0002:0000b008       $unwind$??_EExternalResourceVisitor@v8@@UEAAPEAXI@Z 0000000180037008     Canvas.obj
 0002:0000b008       $unwind$??_EAllocator@ArrayBuffer@v8@@UEAAPEAXI@Z 0000000180037008     Canvas.obj
 0002:0000b008       $unwind$??_EExternalStringResourceBase@String@v8@@UEAAPEAXI@Z 0000000180037008     Canvas.obj
 0002:0000b008       $unwind$??_EPersistentHandleVisitor@v8@@UEAAPEAXI@Z 0000000180037008     Canvas.obj
 0002:0000b008       $unwind$??_EExternalOneByteStringResource@String@v8@@UEAAPEAXI@Z 0000000180037008     Canvas.obj
 0002:0000b008       $unwind$?rgba_from_rgba_string@@YAHPEBDPEAF@Z 0000000180037008     color.obj
 0002:0000b008       $unwind$??_EExternalStringResource@String@v8@@UEAAPEAXI@Z 0000000180037008     Canvas.obj
 0002:0000b008       $unwind$??_EExtension@v8@@UEAAPEAXI@Z 0000000180037008     Canvas.obj
 0002:0000b014       $chain$0$??_EExternalSourceStream@ScriptCompiler@v8@@UEAAPEAXI@Z 0000000180037014     Canvas.obj
 0002:0000b028       $chain$1$??_EExternalSourceStream@ScriptCompiler@v8@@UEAAPEAXI@Z 0000000180037028     Canvas.obj
 0002:0000b038       $chain$0$??_EExternalOneByteStringResource@String@v8@@UEAAPEAXI@Z 0000000180037038     Canvas.obj
 0002:0000b038       $chain$0$??_EExternalStringResourceBase@String@v8@@UEAAPEAXI@Z 0000000180037038     Canvas.obj
 0002:0000b038       $chain$0$??_EExternalStringResource@String@v8@@UEAAPEAXI@Z 0000000180037038     Canvas.obj
 0002:0000b04c       $chain$1$??_EExternalStringResourceBase@String@v8@@UEAAPEAXI@Z 000000018003704c     Canvas.obj
 0002:0000b04c       $chain$1$??_EExternalOneByteStringResource@String@v8@@UEAAPEAXI@Z 000000018003704c     Canvas.obj
 0002:0000b04c       $chain$1$??_EExternalStringResource@String@v8@@UEAAPEAXI@Z 000000018003704c     Canvas.obj
 0002:0000b05c       $unwind$_fassign_l         000000018003705c     LIBCMT:cvt.obj
 0002:0000b05c       $unwind$?NewInstance@Function@v8@@QEBA?AV?$MaybeLocal@VObject@v8@@@2@V?$Local@VContext@v8@@@2@@Z 000000018003705c     Canvas.obj
 0002:0000b064       $chain$0$??_EAllocator@ArrayBuffer@v8@@UEAAPEAXI@Z 0000000180037064     Canvas.obj
 0002:0000b078       $chain$1$??_EAllocator@ArrayBuffer@v8@@UEAAPEAXI@Z 0000000180037078     Canvas.obj
 0002:0000b088       $unwind$?SetIndexedPropertyHandler@ObjectTemplate@v8@@QEAAXP6AXIAEBV?$PropertyCallbackInfo@VValue@v8@@@2@@ZP6AXIV?$Local@VValue@v8@@@2@0@ZP6AXIAEBV?$PropertyCallbackInfo@VInteger@v8@@@2@@ZP6AXIAEBV?$PropertyCallbackInfo@VBoolean@v8@@@2@@ZP6AXAEBV?$PropertyCallbackInfo@VArray@v8@@@2@@Z2@Z 0000000180037088     Canvas.obj
 0002:0000b090       $chain$0$??_EExternalOneByteStringResourceImpl@v8@@UEAAPEAXI@Z 0000000180037090     Canvas.obj
 0002:0000b0a4       $chain$1$??_EExternalOneByteStringResourceImpl@v8@@UEAAPEAXI@Z 00000001800370a4     Canvas.obj
 0002:0000b0b4       $chain$0$??_EExtension@v8@@UEAAPEAXI@Z 00000001800370b4     Canvas.obj
 0002:0000b0c8       $chain$1$??_EExtension@v8@@UEAAPEAXI@Z 00000001800370c8     Canvas.obj
 0002:0000b0d8       $chain$0$??_EExternalResourceVisitor@v8@@UEAAPEAXI@Z 00000001800370d8     Canvas.obj
 0002:0000b0d8       $chain$0$??_EPersistentHandleVisitor@v8@@UEAAPEAXI@Z 00000001800370d8     Canvas.obj
 0002:0000b0ec       $chain$1$??_EPersistentHandleVisitor@v8@@UEAAPEAXI@Z 00000001800370ec     Canvas.obj
 0002:0000b0ec       $chain$1$??_EExternalResourceVisitor@v8@@UEAAPEAXI@Z 00000001800370ec     Canvas.obj
 0002:0000b0fc       $unwind$_clrfp             00000001800370fc     LIBCMT:fpctrl.obj
 0002:0000b0fc       $unwind$__raise_securityfailure 00000001800370fc     LIBCMT:gs_report.obj
 0002:0000b0fc       $unwind$??0exception@std@@QEAA@AEBQEBD@Z 00000001800370fc     LIBCMT:stdexcpt.obj
 0002:0000b0fc       $unwind$?VisitHandlesWithClassIds@V8@v8@@SAXPEAVPersistentHandleVisitor@2@@Z 00000001800370fc     Canvas.obj
 0002:0000b0fc       $unwind$?VisitExternalResources@V8@v8@@SAXPEAVExternalResourceVisitor@2@@Z 00000001800370fc     Canvas.obj
 0002:0000b0fc       $unwind$?closure_destroy@@YAXPEAUclosure_t@@@Z 00000001800370fc     Canvas.obj
 0002:0000b0fc       $unwind$??0bad_exception@std@@QEAA@AEBV01@@Z 00000001800370fc     LIBCMT:frame.obj
 0002:0000b0fc       $unwind$?rgba_from_hex_string@@YAHPEBDPEAF@Z 00000001800370fc     color.obj
 0002:0000b0fc       $unwind$?RemoveMemoryAllocationCallback@V8@v8@@SAXP6AXW4ObjectSpace@2@W4AllocationAction@2@H@Z@Z 00000001800370fc     Canvas.obj
 0002:0000b0fc       $unwind$load_exe_hook      00000001800370fc     win_delay_load_hook.obj
 0002:0000b0fc       $unwind$_amsg_exit         00000001800370fc     LIBCMT:crt0dat.obj
 0002:0000b0fc       $unwind$?RemoveGCEpilogueCallback@V8@v8@@SAXP6AXW4GCType@2@W4GCCallbackFlags@2@@Z@Z 00000001800370fc     Canvas.obj
 0002:0000b0fc       $unwind$_init_pointers     00000001800370fc     LIBCMT:crt0dat.obj
 0002:0000b0fc       $unwind$strcpy_s           00000001800370fc     LIBCMT:strcpy_s.obj
 0002:0000b0fc       $unwind$_fflush_nolock     00000001800370fc     LIBCMT:fflush.obj
 0002:0000b0fc       $unwind$wcscat_s           00000001800370fc     LIBCMT:wcscat_s.obj
 0002:0000b0fc       $unwind$?GetOnerror@Image@@SAXV?$Local@VString@v8@@@v8@@AEBV?$PropertyCallbackInfo@VValue@v8@@@Nan@@@Z 00000001800370fc     Image.obj
 0002:0000b0fc       $unwind$wcscpy_s           00000001800370fc     LIBCMT:wcscpy_s.obj
 0002:0000b0fc       $unwind$?SetFatalErrorHandler@V8@v8@@SAXP6AXPEBD0@Z@Z 00000001800370fc     Canvas.obj
 0002:0000b0fc       $unwind$?Ref@ObjectWrap@Nan@@MEAAXXZ 00000001800370fc     Canvas.obj
 0002:0000b0fc       $unwind$wcsncat_s          00000001800370fc     LIBCMT:wcsncat_s.obj
 0002:0000b0fc       $unwind$wcsncpy_s          00000001800370fc     LIBCMT:wcsncpy_s.obj
 0002:0000b0fc       $unwind$?SetFailedAccessCheckCallbackFunction@V8@v8@@SAXP6AXV?$Local@VObject@v8@@@2@W4AccessType@2@V?$Local@VValue@v8@@@2@@Z@Z 00000001800370fc     Canvas.obj
 0002:0000b0fc       $unwind$?GetOnload@Image@@SAXV?$Local@VString@v8@@@v8@@AEBV?$PropertyCallbackInfo@VValue@v8@@@Nan@@@Z 00000001800370fc     Image.obj
 0002:0000b0fc       $unwind$??0bad_alloc@std@@QEAA@AEBV01@@Z 00000001800370fc     libcpmt:xthrow.obj
 0002:0000b0fc       $unwind$__onexitinit       00000001800370fc     LIBCMT:onexit.obj
 0002:0000b0fc       $unwind$_getbuf            00000001800370fc     LIBCMT:_getbuf.obj
 0002:0000b0fc       $unwind$??0_LocaleUpdate@@QEAA@PEAUlocaleinfo_struct@@@Z 00000001800370fc     LIBCMT:stricmp.obj
 0002:0000b0fc       $unwind$?RemoveMessageListeners@V8@v8@@SAXP6AXV?$Local@VMessage@v8@@@2@V?$Local@VValue@v8@@@2@@Z@Z 00000001800370fc     Canvas.obj
 0002:0000b0fc       $unwind$??0logic_error@std@@QEAA@AEBV01@@Z 00000001800370fc     libcpmt:xthrow.obj
 0002:0000b0fc       $unwind$write_char         00000001800370fc     LIBCMT:output.obj
 0002:0000b0fc       $unwind$write_char         00000001800370fc     LIBCMT:woutput.obj
 0002:0000b0fc       $unwind$?RemoveGCPrologueCallback@V8@v8@@SAXP6AXW4GCType@2@W4GCCallbackFlags@2@@Z@Z 00000001800370fc     Canvas.obj
 0002:0000b0fc       $unwind$_getptd            00000001800370fc     LIBCMT:tidtable.obj
 0002:0000b0fc       $unwind$?SetAllowCodeGenerationFromStringsCallback@V8@v8@@SAXP6A_NV?$Local@VContext@v8@@@2@@Z@Z 00000001800370fc     Canvas.obj
 0002:0000b0fc       $unwind$_freebuf           00000001800370fc     LIBCMT:_freebuf.obj
 0002:0000b0fc       $unwind$_CreateFrameInfo   00000001800370fc     LIBCMT:trnsctrl.obj
 0002:0000b0fc       $unwind$?GetEmbedderData@Context@v8@@QEAA?AV?$Local@VValue@v8@@@2@H@Z 00000001800370fc     Canvas.obj
 0002:0000b0fc       $unwind$_IsExceptionObjectToBeDestroyed 00000001800370fc     LIBCMT:trnsctrl.obj
 0002:0000b0fc       $unwind$_set_statfp        00000001800370fc     LIBCMT:fpctrl.obj
 0002:0000b0fc       $unwind$?Unref@ObjectWrap@Nan@@MEAAXXZ 00000001800370fc     Canvas.obj
 0002:0000b0fc       $unwind$__crtExitProcess   00000001800370fc     LIBCMT:crt0dat.obj
 0002:0000b0fc       $unwind$??0length_error@std@@QEAA@AEBV01@@Z 00000001800370fc     libcpmt:xthrow.obj
 0002:0000b0fc       $unwind$?SetTextAlignment@Context2d@@SAXAEBV?$FunctionCallbackInfo@VValue@v8@@@Nan@@@Z 00000001800370fc     CanvasRenderingContext2d.obj
 0002:0000b0fc       $unwind$??0Scope@Isolate@v8@@QEAA@PEAV12@@Z 00000001800370fc     Canvas.obj
 0002:0000b0fc       $unwind$?_Tidy@exception@std@@AEAAXXZ 00000001800370fc     LIBCMT:stdexcpt.obj
 0002:0000b0fc       $unwind$__crtIsPackagedApp 00000001800370fc     LIBCMT:winapisupp.obj
 0002:0000b0fc       $unwind$_callnewh          00000001800370fc     LIBCMT:handler.obj
 0002:0000b0fc       $unwind$??0Locker@v8@@QEAA@PEAVIsolate@1@@Z 00000001800370fc     Canvas.obj
 0002:0000b0fc       $unwind$??0exception@std@@QEAA@AEBV01@@Z 00000001800370fc     LIBCMT:stdexcpt.obj
 0002:0000b0fc       $unwind$__GSHandlerCheckCommon 00000001800370fc     LIBCMT:gshandler.obj
 0002:0000b0fc       $unwind$__crtUnhandledException 00000001800370fc     LIBCMT:winapisupp.obj
 0002:0000b0fc       $unwind$__crtTerminateProcess 00000001800370fc     LIBCMT:winapisupp.obj
 0002:0000b0fc       $unwind$?SetTextBaseline@Context2d@@SAXAEBV?$FunctionCallbackInfo@VValue@v8@@@Nan@@@Z 00000001800370fc     CanvasRenderingContext2d.obj
 0002:0000b0fc       $unwind$_SetImageBase      00000001800370fc     LIBCMT:trnsctrl.obj
 0002:0000b0fc       $unwind$?New@Image@@SAXAEBV?$FunctionCallbackInfo@VValue@v8@@@Nan@@@Z 00000001800370fc     Image.obj
 0002:0000b0fc       $unwind$_lock_file2        00000001800370fc     LIBCMT:_file.obj
 0002:0000b0fc       $unwind$_freeptd           00000001800370fc     LIBCMT:tidtable.obj
 0002:0000b0fc       $unwind$_SetThrowImageBase 00000001800370fc     LIBCMT:trnsctrl.obj
 0002:0000b0fc       $unwind$_lock_file         00000001800370fc     LIBCMT:_file.obj
 0002:0000b0fc       $unwind$__crtCorExitProcess 00000001800370fc     LIBCMT:crt0dat.obj
 0002:0000b0fc       $unwind$__crtLoadWinApiPointers 00000001800370fc     LIBCMT:winapisupp.obj
 0002:0000b0fc       $unwind$?GetInternalField@Object@v8@@QEAA?AV?$Local@VValue@v8@@@2@H@Z 00000001800370fc     Canvas.obj
 0002:0000b0fc       $unwind$?savePath@Context2d@@QEAAXXZ 00000001800370fc     CanvasRenderingContext2d.obj
 0002:0000b0fc       $unwind$?WeakCallback@ObjectWrap@Nan@@CAXAEBV?$WeakCallbackInfo@VObjectWrap@Nan@@@v8@@@Z 00000001800370fc     Canvas.obj
 0002:0000b0fc       $unwind$?__GetUnwindTryBlock@@YAHPEA_KPEAU_xDISPATCHER_CONTEXT@@PEBU_s_FuncInfo@@@Z 00000001800370fc     LIBCMT:ehstate.obj
 0002:0000b0fc       $unwind$?Save@Context2d@@SAXAEBV?$FunctionCallbackInfo@VValue@v8@@@Nan@@@Z 00000001800370fc     CanvasRenderingContext2d.obj
 0002:0000b0fc       $unwind$?restorePath@Context2d@@QEAAXXZ 00000001800370fc     CanvasRenderingContext2d.obj
 0002:0000b0fc       $unwind$_cinit             00000001800370fc     LIBCMT:crt0dat.obj
 0002:0000b0fc       $unwind$??1?$vector@NV?$allocator@N@std@@@std@@QEAA@XZ 00000001800370fc     CanvasRenderingContext2d.obj
 0002:0000b0fc       $unwind$_mtinit            00000001800370fc     LIBCMT:tidtable.obj
 0002:0000b0fc       $unwind$??0Unlocker@v8@@QEAA@PEAVIsolate@1@@Z 00000001800370fc     Canvas.obj
 0002:0000b104       $unwind$?SetLineCap@Context2d@@SAXV?$Local@VString@v8@@@v8@@V?$Local@VValue@v8@@@3@AEBV?$PropertyCallbackInfo@X@Nan@@@Z 0000000180037104     CanvasRenderingContext2d.obj
 0002:0000b104       $unwind$?SetLineJoin@Context2d@@SAXV?$Local@VString@v8@@@v8@@V?$Local@VValue@v8@@@3@AEBV?$PropertyCallbackInfo@X@Nan@@@Z 0000000180037104     CanvasRenderingContext2d.obj
 0002:0000b104       $unwind$?SetPatternQuality@Context2d@@SAXV?$Local@VString@v8@@@v8@@V?$Local@VValue@v8@@@3@AEBV?$PropertyCallbackInfo@X@Nan@@@Z 0000000180037104     CanvasRenderingContext2d.obj
 0002:0000b104       $unwind$?Set@Template@v8@@QEAAXPEAVIsolate@2@PEBDV?$Local@VData@v8@@@2@@Z 0000000180037104     Canvas.obj
 0002:0000b110       $unwind$?ToDetailString@Value@v8@@QEBA?AV?$Local@VString@v8@@@2@XZ 0000000180037110     Canvas.obj
 0002:0000b110       $unwind$?ToObject@Value@v8@@QEBA?AV?$Local@VObject@v8@@@2@XZ 0000000180037110     Canvas.obj
 0002:0000b110       $unwind$?ToInteger@Value@v8@@QEBA?AV?$Local@VInteger@v8@@@2@XZ 0000000180037110     Canvas.obj
 0002:0000b110       $unwind$?__SetUnwindTryBlock@@YAXPEA_KPEAU_xDISPATCHER_CONTEXT@@PEBU_s_FuncInfo@@H@Z 0000000180037110     LIBCMT:ehstate.obj
 0002:0000b110       $unwind$?saveState@Context2d@@QEAAXXZ 0000000180037110     CanvasRenderingContext2d.obj
 0002:0000b110       $unwind$??_GContext2d@@EEAAPEAXI@Z 0000000180037110     CanvasRenderingContext2d.obj
 0002:0000b110       $unwind$?GetComplete@Image@@SAXV?$Local@VString@v8@@@v8@@AEBV?$PropertyCallbackInfo@VValue@v8@@@Nan@@@Z 0000000180037110     Image.obj
 0002:0000b110       $unwind$_dosmaperr         0000000180037110     LIBCMT:dosmap.obj
 0002:0000b110       $unwind$??0Context2d@@QEAA@PEAVCanvas@@@Z 0000000180037110     CanvasRenderingContext2d.obj
 0002:0000b110       $unwind$??_GGradient@@EEAAPEAXI@Z 0000000180037110     CanvasGradient.obj
 0002:0000b110       $unwind$??4exception@std@@QEAAAEAV01@AEBV01@@Z 0000000180037110     LIBCMT:stdexcpt.obj
 0002:0000b110       $unwind$_calloc_impl       0000000180037110     LIBCMT:calloc_impl.obj
 0002:0000b110       $unwind$??_Glength_error@std@@UEAAPEAXI@Z 0000000180037110     libcpmt:xthrow.obj
 0002:0000b110       $unwind$?Restore@Context2d@@SAXAEBV?$FunctionCallbackInfo@VValue@v8@@@Nan@@@Z 0000000180037110     CanvasRenderingContext2d.obj
 0002:0000b110       $unwind$_lock              0000000180037110     LIBCMT:mlock.obj
 0002:0000b110       $unwind$?ToBoolean@Value@v8@@QEBA?AV?$Local@VBoolean@v8@@@2@XZ 0000000180037110     Canvas.obj
 0002:0000b110       $unwind$??_GPattern@@EEAAPEAXI@Z 0000000180037110     CanvasPattern.obj
 0002:0000b110       $unwind$?ToInt32@Value@v8@@QEBA?AV?$Local@VInt32@v8@@@2@XZ 0000000180037110     Canvas.obj
 0002:0000b110       $unwind$??_Glogic_error@std@@UEAAPEAXI@Z 0000000180037110     libcpmt:xthrow.obj
 0002:0000b110       $unwind$?AdjustAmountOfExternalAllocatedMemory@Isolate@v8@@QEAA_J_J@Z 0000000180037110     Canvas.obj
 0002:0000b110       $unwind$??_GImageData@@UEAAPEAXI@Z 0000000180037110     ImageData.obj
 0002:0000b110       $unwind$_getptd_noexit     0000000180037110     LIBCMT:tidtable.obj
 0002:0000b110       $unwind$_close_nolock      0000000180037110     LIBCMT:close.obj
 0002:0000b110       $unwind$_initterm_e        0000000180037110     LIBCMT:crt0dat.obj
 0002:0000b110       $unwind$?Rotate@Context2d@@SAXAEBV?$FunctionCallbackInfo@VValue@v8@@@Nan@@@Z 0000000180037110     CanvasRenderingContext2d.obj
 0002:0000b110       $unwind$_FindAndUnlinkFrame 0000000180037110     LIBCMT:trnsctrl.obj
 0002:0000b110       $unwind$??_Gexception@std@@UEAAPEAXI@Z 0000000180037110     LIBCMT:stdexcpt.obj
 0002:0000b110       $unwind$?SetShadowBlur@Context2d@@SAXV?$Local@VString@v8@@@v8@@V?$Local@VValue@v8@@@3@AEBV?$PropertyCallbackInfo@X@Nan@@@Z 0000000180037110     CanvasRenderingContext2d.obj
 0002:0000b110       $unwind$??_Gbad_alloc@std@@UEAAPEAXI@Z 0000000180037110     libcpmt:xthrow.obj
 0002:0000b110       $unwind$?readPNG@Image@@SA?AW4_cairo_status@@PEAXPEAEI@Z 0000000180037110     Image.obj
 0002:0000b110       $unwind$?ToString@Value@v8@@QEBA?AV?$Local@VString@v8@@@2@XZ 0000000180037110     Canvas.obj
 0002:0000b110       $unwind$?ToNumber@Value@v8@@QEBA?AV?$Local@VNumber@v8@@@2@XZ 0000000180037110     Canvas.obj
 0002:0000b110       $unwind$??_GImage@@EEAAPEAXI@Z 0000000180037110     Image.obj
 0002:0000b110       $unwind$??_Gtype_info@@UEAAPEAXI@Z 0000000180037110     LIBCMT:typinfo.obj
 0002:0000b110       $unwind$?ToUint32@Value@v8@@QEBA?AV?$Local@VUint32@v8@@@2@XZ 0000000180037110     Canvas.obj
 0002:0000b110       $unwind$??_GCanvas@@EEAAPEAXI@Z 0000000180037110     Canvas.obj
 0002:0000b110       $unwind$??_Gbad_exception@std@@UEAAPEAXI@Z 0000000180037110     LIBCMT:frame.obj
 0002:0000b110       $unwind$_fclose_nolock     0000000180037110     LIBCMT:fclose.obj
 0002:0000b110       $unwind$_updatetlocinfoEx_nolock 0000000180037110     LIBCMT:localref.obj
 0002:0000b110       $unwind$??_GObjectWrap@Nan@@UEAAPEAXI@Z 0000000180037110     Canvas.obj
 0002:0000b110       $unwind$__initstdio        0000000180037110     LIBCMT:_file.obj
 0002:0000b110       $unwind$_initp_misc_cfltcvt_tab 0000000180037110     LIBCMT:cmiscdat.obj
 0002:0000b110       $unwind$?rgba_from_string@@YAHPEBDPEAF@Z 0000000180037110     color.obj
 0002:0000b110       $unwind$_RTC_Initialize    0000000180037110     LIBCMT:initsect.obj
 0002:0000b110       $unwind$_RTC_Terminate     0000000180037110     LIBCMT:initsect.obj
 0002:0000b110       $unwind$_fptostr           0000000180037110     LIBCMT:_fptostr.obj
 0002:0000b110       $unwind$__freeCrtMemory    0000000180037110     LIBCMT:crt0dat.obj
 0002:0000b11c       $unwind$?SetShadowOffsetX@Context2d@@SAXV?$Local@VString@v8@@@v8@@V?$Local@VValue@v8@@@3@AEBV?$PropertyCallbackInfo@X@Nan@@@Z 000000018003711c     CanvasRenderingContext2d.obj
 0002:0000b11c       $unwind$?SetShadowOffsetY@Context2d@@SAXV?$Local@VString@v8@@@v8@@V?$Local@VValue@v8@@@3@AEBV?$PropertyCallbackInfo@X@Nan@@@Z 000000018003711c     CanvasRenderingContext2d.obj
 0002:0000b11c       $unwind$?SetDataMode@Image@@SAXV?$Local@VString@v8@@@v8@@V?$Local@VValue@v8@@@3@AEBV?$PropertyCallbackInfo@X@Nan@@@Z 000000018003711c     Image.obj
 0002:0000b11c       $unwind$free               000000018003711c     LIBCMT:free.obj
 0002:0000b11c       $unwind$?AddMessageListener@V8@v8@@SA_NP6AXV?$Local@VMessage@v8@@@2@V?$Local@VValue@v8@@@2@@Z1@Z 000000018003711c     Canvas.obj
 0002:0000b11c       $unwind$__free_lconv_num   000000018003711c     LIBCMT:initnum.obj
 0002:0000b124       $unwind$?closure_init@@YA?AW4_cairo_status@@PEAUclosure_t@@PEAVCanvas@@II@Z 0000000180037124     Canvas.obj
 0002:0000b124       $unwind$_filbuf            0000000180037124     LIBCMT:_filbuf.obj
 0002:0000b124       $unwind$realloc            0000000180037124     LIBCMT:realloc.obj
 0002:0000b124       $unwind$_mtinitlocks       0000000180037124     LIBCMT:mlock.obj
 0002:0000b124       $unwind$?canvas_stream_write_func@@YAXPEAUpng_struct_def@@PEAE_K@Z 0000000180037124     Canvas.obj
 0002:0000b124       $unwind$?SetCaptureStackTraceForUncaughtExceptions@V8@v8@@SAX_NHW4StackTraceOptions@StackTrace@2@@Z 0000000180037124     Canvas.obj
 0002:0000b124       $unwind$memcpy_s           0000000180037124     LIBCMT:memcpy_s.obj
 0002:0000b124       $unwind$_exception_enabled 0000000180037124     LIBCMT:libm_error.obj
 0002:0000b124       $unwind$_ioterm            0000000180037124     LIBCMT:ioinit.obj
 0002:0000b124       $unwind$_lseeki64_nolock   0000000180037124     LIBCMT:lseeki64.obj
 0002:0000b124       $unwind$_DllMainCRTStartup 0000000180037124     LIBCMT:dllcrt0.obj
 0002:0000b124       $unwind$malloc             0000000180037124     LIBCMT:malloc.obj
 0002:0000b124       $unwind$_flush             0000000180037124     LIBCMT:fflush.obj
 0002:0000b124       $unwind$?AddMemoryAllocationCallback@V8@v8@@SAXP6AXW4ObjectSpace@2@W4AllocationAction@2@H@Z01@Z 0000000180037124     Canvas.obj
 0002:0000b134       $unwind$?FunctionCallbackWrapper@imp@Nan@@YAXAEBV?$FunctionCallbackInfo@VValue@v8@@@v8@@@Z 0000000180037134     Canvas.obj
 0002:0000b134       $unwind$_setargv           0000000180037134     LIBCMT:stdargv.obj
 0002:0000b144       $unwind$?GetterCallbackWrapper@imp@Nan@@YAXV?$Local@VName@v8@@@v8@@AEBV?$PropertyCallbackInfo@VValue@v8@@@4@@Z 0000000180037144     Canvas.obj
 0002:0000b150       $unwind$?SetterCallbackWrapper@imp@Nan@@YAXV?$Local@VName@v8@@@v8@@V?$Local@VValue@v8@@@4@AEBV?$PropertyCallbackInfo@X@4@@Z 0000000180037150     Canvas.obj
 0002:0000b15c       $unwind$?New@?$Factory@VFunctionTemplate@v8@@@imp@Nan@@SA?AV?$Local@VFunctionTemplate@v8@@@v8@@P6AXAEBV?$FunctionCallbackInfo@VValue@v8@@@3@@ZV?$Local@VValue@v8@@@5@V?$Local@VSignature@v8@@@5@@Z 000000018003715c     Canvas.obj
 0002:0000b174       $stateUnwindMap$?streamPNG@@YA?AW4_cairo_status@@PEAXPEBEI@Z 0000000180037174     Canvas.obj
 0002:0000b174       $stateUnwindMap$?New@?$Factory@VFunctionTemplate@v8@@@imp@Nan@@SA?AV?$Local@VFunctionTemplate@v8@@@v8@@P6AXAEBV?$FunctionCallbackInfo@VValue@v8@@@3@@ZV?$Local@VValue@v8@@@5@V?$Local@VSignature@v8@@@5@@Z 0000000180037174     Canvas.obj
 0002:0000b180       $ip2state$?New@?$Factory@VFunctionTemplate@v8@@@imp@Nan@@SA?AV?$Local@VFunctionTemplate@v8@@@v8@@P6AXAEBV?$FunctionCallbackInfo@VValue@v8@@@3@@ZV?$Local@VValue@v8@@@5@V?$Local@VSignature@v8@@@5@@Z 0000000180037180     Canvas.obj
 0002:0000b198       $unwind$??0Callback@Nan@@QEAA@AEBV?$Local@VFunction@v8@@@v8@@@Z 0000000180037198     Canvas.obj
 0002:0000b1b0       $stateUnwindMap$??0Callback@Nan@@QEAA@AEBV?$Local@VFunction@v8@@@v8@@@Z 00000001800371b0     Canvas.obj
 0002:0000b1c8       $ip2state$??0Callback@Nan@@QEAA@AEBV?$Local@VFunction@v8@@@v8@@@Z 00000001800371c8     Canvas.obj
 0002:0000b200       $unwind$?Call_@Callback@Nan@@AEBA?AV?$Local@VValue@v8@@@v8@@PEAVIsolate@4@V?$Local@VObject@v8@@@4@HQEAV34@@Z 0000000180037200     Canvas.obj
 0002:0000b218       $stateUnwindMap$?New@Context2d@@SAXAEBV?$FunctionCallbackInfo@VValue@v8@@@Nan@@@Z 0000000180037218     CanvasRenderingContext2d.obj
 0002:0000b218       $stateUnwindMap$?SetStrokePattern@Context2d@@SAXAEBV?$FunctionCallbackInfo@VValue@v8@@@Nan@@@Z 0000000180037218     CanvasRenderingContext2d.obj
 0002:0000b218       $stateUnwindMap$?Call_@Callback@Nan@@AEBA?AV?$Local@VValue@v8@@@v8@@PEAVIsolate@4@V?$Local@VObject@v8@@@4@HQEAV34@@Z 0000000180037218     Canvas.obj
 0002:0000b218       $stateUnwindMap$?SetFillPattern@Context2d@@SAXAEBV?$FunctionCallbackInfo@VValue@v8@@@Nan@@@Z 0000000180037218     CanvasRenderingContext2d.obj
 0002:0000b218       $stateUnwindMap$?AddPage@Context2d@@SAXAEBV?$FunctionCallbackInfo@VValue@v8@@@Nan@@@Z 0000000180037218     CanvasRenderingContext2d.obj
 0002:0000b220       $ip2state$?Call_@Callback@Nan@@AEBA?AV?$Local@VValue@v8@@@v8@@PEAVIsolate@4@V?$Local@VObject@v8@@@4@HQEAV34@@Z 0000000180037220     Canvas.obj
 0002:0000b238       $unwind$?SetAccessor@Nan@@YAXV?$Local@VObjectTemplate@v8@@@v8@@V?$Local@VString@v8@@@3@P6AX1AEBV?$PropertyCallbackInfo@VValue@v8@@@1@@ZP6AX1V?$Local@VValue@v8@@@3@AEBV?$PropertyCallbackInfo@X@1@@Z4W4AccessControl@3@W4PropertyAttribute@3@V?$Local@VAccessorSignature@v8@@@3@@Z 0000000180037238     Canvas.obj
 0002:0000b250       $stateUnwindMap$?SetAccessor@Nan@@YAXV?$Local@VObjectTemplate@v8@@@v8@@V?$Local@VString@v8@@@3@P6AX1AEBV?$PropertyCallbackInfo@VValue@v8@@@1@@ZP6AX1V?$Local@VValue@v8@@@3@AEBV?$PropertyCallbackInfo@X@1@@Z4W4AccessControl@3@W4PropertyAttribute@3@V?$Local@VAccessorSignature@v8@@@3@@Z 0000000180037250     Canvas.obj
 0002:0000b250       $stateUnwindMap$?Initialize@Image@@SAXV?$Local@VObject@v8@@@v8@@@Z 0000000180037250     Image.obj
 0002:0000b250       $stateUnwindMap$?Initialize@ImageData@@SAXV?$Local@VObject@v8@@@v8@@@Z 0000000180037250     ImageData.obj
 0002:0000b258       $ip2state$?SetAccessor@Nan@@YAXV?$Local@VObjectTemplate@v8@@@v8@@V?$Local@VString@v8@@@3@P6AX1AEBV?$PropertyCallbackInfo@VValue@v8@@@1@@ZP6AX1V?$Local@VValue@v8@@@3@AEBV?$PropertyCallbackInfo@X@1@@Z4W4AccessControl@3@W4PropertyAttribute@3@V?$Local@VAccessorSignature@v8@@@3@@Z 0000000180037258     Canvas.obj
 0002:0000b270       $unwind$??1ObjectWrap@Nan@@UEAA@XZ 0000000180037270     Canvas.obj
 0002:0000b280       $stateUnwindMap$??1ObjectWrap@Nan@@UEAA@XZ 0000000180037280     Canvas.obj
 0002:0000b288       $ip2state$??1ObjectWrap@Nan@@UEAA@XZ 0000000180037288     Canvas.obj
 0002:0000b2a0       $unwind$?Wrap@ObjectWrap@Nan@@IEAAXV?$Local@VObject@v8@@@v8@@@Z 00000001800372a0     Canvas.obj
 0002:0000b2ac       $chain$1$?closure_destroy@@YAXPEAUclosure_t@@@Z 00000001800372ac     Canvas.obj
 0002:0000b2c4       $chain$2$?closure_destroy@@YAXPEAUclosure_t@@@Z 00000001800372c4     Canvas.obj
 0002:0000b2d4       $unwind$?canvas_unpremultiply_data@@YAXPEAUpng_struct_def@@PEAUpng_row_info_struct@@PEAE@Z 00000001800372d4     Canvas.obj
 0002:0000b2e0       $chain$0$?canvas_unpremultiply_data@@YAXPEAUpng_struct_def@@PEAUpng_row_info_struct@@PEAE@Z 00000001800372e0     Canvas.obj
 0002:0000b2f4       $chain$1$?canvas_unpremultiply_data@@YAXPEAUpng_struct_def@@PEAUpng_row_info_struct@@PEAE@Z 00000001800372f4     Canvas.obj
 0002:0000b304       $unwind$?canvas_write_png@@YA?AW4_cairo_status@@PEAU_cairo_surface@@P6AXPEAUpng_struct_def@@PEAE_K@ZPEAX@Z 0000000180037304     Canvas.obj
 0002:0000b324       $unwind$?Initialize@Canvas@@SAXV?$Local@VObject@v8@@@v8@@@Z 0000000180037324     Canvas.obj
 0002:0000b340       $stateUnwindMap$?Initialize@Canvas@@SAXV?$Local@VObject@v8@@@v8@@@Z 0000000180037340     Canvas.obj
 0002:0000b358       $ip2state$?Initialize@Canvas@@SAXV?$Local@VObject@v8@@@v8@@@Z 0000000180037358     Canvas.obj
 0002:0000b390       $unwind$?New@Canvas@@SAXAEBV?$FunctionCallbackInfo@VValue@v8@@@Nan@@@Z 0000000180037390     Canvas.obj
 0002:0000b3b0       $stateUnwindMap$?New@Canvas@@SAXAEBV?$FunctionCallbackInfo@VValue@v8@@@Nan@@@Z 00000001800373b0     Canvas.obj
 0002:0000b3c0       $ip2state$?New@Canvas@@SAXAEBV?$FunctionCallbackInfo@VValue@v8@@@Nan@@@Z 00000001800373c0     Canvas.obj
 0002:0000b3e8       $unwind$?loadFromBuffer@Image@@QEAA?AW4_cairo_status@@PEAEI@Z 00000001800373e8     Image.obj
 0002:0000b3e8       $unwind$?GetPatternQuality@Context2d@@SAXV?$Local@VString@v8@@@v8@@AEBV?$PropertyCallbackInfo@VValue@v8@@@Nan@@@Z 00000001800373e8     CanvasRenderingContext2d.obj
 0002:0000b3e8       $unwind$?GetSource@Image@@SAXV?$Local@VString@v8@@@v8@@AEBV?$PropertyCallbackInfo@VValue@v8@@@Nan@@@Z 00000001800373e8     Image.obj
 0002:0000b3e8       $unwind$?fill@Context2d@@QEAAX_N@Z 00000001800373e8     CanvasRenderingContext2d.obj
 0002:0000b3e8       $unwind$?stroke@Context2d@@QEAAX_N@Z 00000001800373e8     CanvasRenderingContext2d.obj
 0002:0000b3e8       $unwind$?GetLineJoin@Context2d@@SAXV?$Local@VString@v8@@@v8@@AEBV?$PropertyCallbackInfo@VValue@v8@@@Nan@@@Z 00000001800373e8     CanvasRenderingContext2d.obj
 0002:0000b3e8       $unwind$?GetFilter@Context2d@@SAXV?$Local@VString@v8@@@v8@@AEBV?$PropertyCallbackInfo@VValue@v8@@@Nan@@@Z 00000001800373e8     CanvasRenderingContext2d.obj
 0002:0000b3e8       $unwind$?ToBufferAsync@Canvas@@SAXPEAUuv_work_s@@@Z 00000001800373e8     Canvas.obj
 0002:0000b3e8       $unwind$?GetAntiAlias@Context2d@@SAXV?$Local@VString@v8@@@v8@@AEBV?$PropertyCallbackInfo@VValue@v8@@@Nan@@@Z 00000001800373e8     CanvasRenderingContext2d.obj
 0002:0000b3e8       $unwind$?GetType@Canvas@@SAXV?$Local@VString@v8@@@v8@@AEBV?$PropertyCallbackInfo@VValue@v8@@@Nan@@@Z 00000001800373e8     Canvas.obj
 0002:0000b3e8       $unwind$?GetTextDrawingMode@Context2d@@SAXV?$Local@VString@v8@@@v8@@AEBV?$PropertyCallbackInfo@VValue@v8@@@Nan@@@Z 00000001800373e8     CanvasRenderingContext2d.obj
 0002:0000b3e8       $unwind$?GetLineCap@Context2d@@SAXV?$Local@VString@v8@@@v8@@AEBV?$PropertyCallbackInfo@VValue@v8@@@Nan@@@Z 00000001800373e8     CanvasRenderingContext2d.obj
 0002:0000b3e8       $unwind$?GetGlobalCompositeOperation@Context2d@@SAXV?$Local@VString@v8@@@v8@@AEBV?$PropertyCallbackInfo@VValue@v8@@@Nan@@@Z 00000001800373e8     CanvasRenderingContext2d.obj
 0002:0000b3f4       $unwind$?SetLineWidth@Context2d@@SAXV?$Local@VString@v8@@@v8@@V?$Local@VValue@v8@@@3@AEBV?$PropertyCallbackInfo@X@Nan@@@Z 00000001800373f4     CanvasRenderingContext2d.obj
 0002:0000b3f4       $unwind$?GetLineWidth@Context2d@@SAXV?$Local@VString@v8@@@v8@@AEBV?$PropertyCallbackInfo@VValue@v8@@@Nan@@@Z 00000001800373f4     CanvasRenderingContext2d.obj
 0002:0000b3f4       $unwind$?SetMiterLimit@Context2d@@SAXV?$Local@VString@v8@@@v8@@V?$Local@VValue@v8@@@3@AEBV?$PropertyCallbackInfo@X@Nan@@@Z 00000001800373f4     CanvasRenderingContext2d.obj
 0002:0000b3f4       $unwind$?GetMiterLimit@Context2d@@SAXV?$Local@VString@v8@@@v8@@AEBV?$PropertyCallbackInfo@VValue@v8@@@Nan@@@Z 00000001800373f4     CanvasRenderingContext2d.obj
 0002:0000b3f4       $unwind$?GetWidth@Canvas@@SAXV?$Local@VString@v8@@@v8@@AEBV?$PropertyCallbackInfo@VValue@v8@@@Nan@@@Z 00000001800373f4     Canvas.obj
 0002:0000b3f4       $unwind$?GetShadowBlur@Context2d@@SAXV?$Local@VString@v8@@@v8@@AEBV?$PropertyCallbackInfo@VValue@v8@@@Nan@@@Z 00000001800373f4     CanvasRenderingContext2d.obj
 0002:0000b3f4       $unwind$?GetShadowOffsetY@Context2d@@SAXV?$Local@VString@v8@@@v8@@AEBV?$PropertyCallbackInfo@VValue@v8@@@Nan@@@Z 00000001800373f4     CanvasRenderingContext2d.obj
 0002:0000b3f4       $unwind$?GetHeight@Image@@SAXV?$Local@VString@v8@@@v8@@AEBV?$PropertyCallbackInfo@VValue@v8@@@Nan@@@Z 00000001800373f4     Image.obj
 0002:0000b3f4       $unwind$?GetWidth@Image@@SAXV?$Local@VString@v8@@@v8@@AEBV?$PropertyCallbackInfo@VValue@v8@@@Nan@@@Z 00000001800373f4     Image.obj
 0002:0000b3f4       $unwind$?GetShadowOffsetX@Context2d@@SAXV?$Local@VString@v8@@@v8@@AEBV?$PropertyCallbackInfo@VValue@v8@@@Nan@@@Z 00000001800373f4     CanvasRenderingContext2d.obj
 0002:0000b3f4       $unwind$?GetDataMode@Image@@SAXV?$Local@VString@v8@@@v8@@AEBV?$PropertyCallbackInfo@VValue@v8@@@Nan@@@Z 00000001800373f4     Image.obj
 0002:0000b3f4       $unwind$?GetHeight@ImageData@@SAXV?$Local@VString@v8@@@v8@@AEBV?$PropertyCallbackInfo@VValue@v8@@@Nan@@@Z 00000001800373f4     ImageData.obj
 0002:0000b3f4       $unwind$?GetWidth@ImageData@@SAXV?$Local@VString@v8@@@v8@@AEBV?$PropertyCallbackInfo@VValue@v8@@@Nan@@@Z 00000001800373f4     ImageData.obj
 0002:0000b3f4       $unwind$?GetGlobalAlpha@Context2d@@SAXV?$Local@VString@v8@@@v8@@AEBV?$PropertyCallbackInfo@VValue@v8@@@Nan@@@Z 00000001800373f4     CanvasRenderingContext2d.obj
 0002:0000b3f4       $unwind$?SetGlobalAlpha@Context2d@@SAXV?$Local@VString@v8@@@v8@@V?$Local@VValue@v8@@@3@AEBV?$PropertyCallbackInfo@X@Nan@@@Z 00000001800373f4     CanvasRenderingContext2d.obj
 0002:0000b3f4       $unwind$?GetLineDashOffset@Context2d@@SAXV?$Local@VString@v8@@@v8@@AEBV?$PropertyCallbackInfo@VValue@v8@@@Nan@@@Z 00000001800373f4     CanvasRenderingContext2d.obj
 0002:0000b3f4       $unwind$?GetHeight@Canvas@@SAXV?$Local@VString@v8@@@v8@@AEBV?$PropertyCallbackInfo@VValue@v8@@@Nan@@@Z 00000001800373f4     Canvas.obj
 0002:0000b400       $unwind$?SetHeight@Canvas@@SAXV?$Local@VString@v8@@@v8@@V?$Local@VValue@v8@@@3@AEBV?$PropertyCallbackInfo@X@Nan@@@Z 0000000180037400     Canvas.obj
 0002:0000b400       $unwind$?SetWidth@Canvas@@SAXV?$Local@VString@v8@@@v8@@V?$Local@VValue@v8@@@3@AEBV?$PropertyCallbackInfo@X@Nan@@@Z 0000000180037400     Canvas.obj
 0002:0000b408       $chain$0$?SetWidth@Canvas@@SAXV?$Local@VString@v8@@@v8@@V?$Local@VValue@v8@@@3@AEBV?$PropertyCallbackInfo@X@Nan@@@Z 0000000180037408     Canvas.obj
 0002:0000b41c       $chain$1$?SetWidth@Canvas@@SAXV?$Local@VString@v8@@@v8@@V?$Local@VValue@v8@@@3@AEBV?$PropertyCallbackInfo@X@Nan@@@Z 000000018003741c     Canvas.obj
 0002:0000b42c       $chain$0$?SetHeight@Canvas@@SAXV?$Local@VString@v8@@@v8@@V?$Local@VValue@v8@@@3@AEBV?$PropertyCallbackInfo@X@Nan@@@Z 000000018003742c     Canvas.obj
 0002:0000b440       $chain$1$?SetHeight@Canvas@@SAXV?$Local@VString@v8@@@v8@@V?$Local@VValue@v8@@@3@AEBV?$PropertyCallbackInfo@X@Nan@@@Z 0000000180037440     Canvas.obj
 0002:0000b450       $unwind$_XcptFilter        0000000180037450     LIBCMT:winxfltr.obj
 0002:0000b450       $unwind$?setSBCS@@YAXPEAUthreadmbcinfostruct@@@Z 0000000180037450     LIBCMT:mbctype.obj
 0002:0000b450       $unwind$_fseek_nolock      0000000180037450     LIBCMT:fseek.obj
 0002:0000b450       $unwind$_mtdeletelocks     0000000180037450     LIBCMT:mlock.obj
 0002:0000b450       $unwind$xtow_s             0000000180037450     LIBCMT:xtows.obj
 0002:0000b450       $unwind$__freetlocinfo     0000000180037450     LIBCMT:localref.obj
 0002:0000b450       $unwind$?__StateFromIp@@YAHPEBU_s_FuncInfo@@PEAU_xDISPATCHER_CONTEXT@@_J@Z 0000000180037450     LIBCMT:ehstate.obj
 0002:0000b450       $unwind$_initterm          0000000180037450     LIBCMT:crt0dat.obj
 0002:0000b450       $unwind$?toBuffer@@YA?AW4_cairo_status@@PEAXPEBEI@Z 0000000180037450     Canvas.obj
 0002:0000b464       $unwind$?ToBufferAsyncAfter@Canvas@@SAXPEAUuv_work_s@@@Z 0000000180037464     Canvas.obj
 0002:0000b478       $stateUnwindMap$?ToBufferAsyncAfter@Canvas@@SAXPEAUuv_work_s@@@Z 0000000180037478     Canvas.obj
 0002:0000b488       $ip2state$?ToBufferAsyncAfter@Canvas@@SAXPEAUuv_work_s@@@Z 0000000180037488     Canvas.obj
 0002:0000b4b0       $unwind$?ToBuffer@Canvas@@SAXAEBV?$FunctionCallbackInfo@VValue@v8@@@Nan@@@Z 00000001800374b0     Canvas.obj
 0002:0000b4d0       $stateUnwindMap$?ToBuffer@Canvas@@SAXAEBV?$FunctionCallbackInfo@VValue@v8@@@Nan@@@Z 00000001800374d0     Canvas.obj
 0002:0000b500       $ip2state$?ToBuffer@Canvas@@SAXAEBV?$FunctionCallbackInfo@VValue@v8@@@Nan@@@Z 0000000180037500     Canvas.obj
 0002:0000b568       $unwind$?streamPNG@@YA?AW4_cairo_status@@PEAXPEBEI@Z 0000000180037568     Canvas.obj
 0002:0000b590       $ip2state$?streamPNG@@YA?AW4_cairo_status@@PEAXPEBEI@Z 0000000180037590     Canvas.obj
 0002:0000b5a8       $unwind$?StreamPNGSync@Canvas@@SAXAEBV?$FunctionCallbackInfo@VValue@v8@@@Nan@@@Z 00000001800375a8     Canvas.obj
 0002:0000b5d0       $stateUnwindMap$?StreamPNGSync@Canvas@@SAXAEBV?$FunctionCallbackInfo@VValue@v8@@@Nan@@@Z 00000001800375d0     Canvas.obj
 0002:0000b600       $ip2state$?StreamPNGSync@Canvas@@SAXAEBV?$FunctionCallbackInfo@VValue@v8@@@Nan@@@Z 0000000180037600     Canvas.obj
 0002:0000b658       $unwind$??0Canvas@@QEAA@HHW4canvas_type_t@@@Z 0000000180037658     Canvas.obj
 0002:0000b674       $stateUnwindMap$??0Canvas@@QEAA@HHW4canvas_type_t@@@Z 0000000180037674     Canvas.obj
 0002:0000b680       $ip2state$??0Canvas@@QEAA@HHW4canvas_type_t@@@Z 0000000180037680     Canvas.obj
 0002:0000b698       $unwind$??1Canvas@@EEAA@XZ 0000000180037698     Canvas.obj
 0002:0000b6b4       $stateUnwindMap$??1Canvas@@EEAA@XZ 00000001800376b4     Canvas.obj
 0002:0000b6c0       $ip2state$??1Canvas@@EEAA@XZ 00000001800376c0     Canvas.obj
 0002:0000b6d8       $unwind$?resurface@Canvas@@QEAAXV?$Local@VObject@v8@@@v8@@@Z 00000001800376d8     Canvas.obj
 0002:0000b6f0       $stateUnwindMap$?resurface@Canvas@@QEAAXV?$Local@VObject@v8@@@v8@@@Z 00000001800376f0     Canvas.obj
 0002:0000b6f8       $ip2state$?resurface@Canvas@@QEAAXV?$Local@VObject@v8@@@v8@@@Z 00000001800376f8     Canvas.obj
 0002:0000b710       $unwind$??$Unwrap@VImageData@@@ObjectWrap@Nan@@SAPEAVImageData@@V?$Local@VObject@v8@@@v8@@@Z 0000000180037710     CanvasRenderingContext2d.obj
 0002:0000b710       $unwind$??$Unwrap@VPattern@@@ObjectWrap@Nan@@SAPEAVPattern@@V?$Local@VObject@v8@@@v8@@@Z 0000000180037710     CanvasRenderingContext2d.obj
 0002:0000b710       $unwind$??$Unwrap@VCanvas@@@ObjectWrap@Nan@@SAPEAVCanvas@@V?$Local@VObject@v8@@@v8@@@Z 0000000180037710     Canvas.obj
 0002:0000b710       $unwind$??$Unwrap@VContext2d@@@ObjectWrap@Nan@@SAPEAVContext2d@@V?$Local@VObject@v8@@@v8@@@Z 0000000180037710     Canvas.obj
 0002:0000b710       $unwind$??$Unwrap@VImage@@@ObjectWrap@Nan@@SAPEAVImage@@V?$Local@VObject@v8@@@v8@@@Z 0000000180037710     CanvasPattern.obj
 0002:0000b710       $unwind$??$Unwrap@VGradient@@@ObjectWrap@Nan@@SAPEAVGradient@@V?$Local@VObject@v8@@@v8@@@Z 0000000180037710     CanvasGradient.obj
 0002:0000b718       $unwind$?Initialize@Gradient@@SAXV?$Local@VObject@v8@@@v8@@@Z 0000000180037718     CanvasGradient.obj
 0002:0000b730       $stateUnwindMap$?Initialize@Gradient@@SAXV?$Local@VObject@v8@@@v8@@@Z 0000000180037730     CanvasGradient.obj
 0002:0000b740       $ip2state$?Initialize@Gradient@@SAXV?$Local@VObject@v8@@@v8@@@Z 0000000180037740     CanvasGradient.obj
 0002:0000b768       $unwind$?New@Gradient@@SAXAEBV?$FunctionCallbackInfo@VValue@v8@@@Nan@@@Z 0000000180037768     CanvasGradient.obj
 0002:0000b79c       $stateUnwindMap$?New@Gradient@@SAXAEBV?$FunctionCallbackInfo@VValue@v8@@@Nan@@@Z 000000018003779c     CanvasGradient.obj
 0002:0000b7b8       $ip2state$?New@Gradient@@SAXAEBV?$FunctionCallbackInfo@VValue@v8@@@Nan@@@Z 00000001800377b8     CanvasGradient.obj
 0002:0000b7f0       $unwind$?AddColorStop@Gradient@@SAXAEBV?$FunctionCallbackInfo@VValue@v8@@@Nan@@@Z 00000001800377f0     CanvasGradient.obj
 0002:0000b818       $stateUnwindMap$?AddColorStop@Gradient@@SAXAEBV?$FunctionCallbackInfo@VValue@v8@@@Nan@@@Z 0000000180037818     CanvasGradient.obj
 0002:0000b840       $ip2state$?AddColorStop@Gradient@@SAXAEBV?$FunctionCallbackInfo@VValue@v8@@@Nan@@@Z 0000000180037840     CanvasGradient.obj
 0002:0000b898       $unwind$?Initialize@Pattern@@SAXV?$Local@VObject@v8@@@v8@@@Z 0000000180037898     CanvasPattern.obj
 0002:0000b8b0       $stateUnwindMap$?Initialize@Pattern@@SAXV?$Local@VObject@v8@@@v8@@@Z 00000001800378b0     CanvasPattern.obj
 0002:0000b8b8       $ip2state$?Initialize@Pattern@@SAXV?$Local@VObject@v8@@@v8@@@Z 00000001800378b8     CanvasPattern.obj
 0002:0000b8d0       $unwind$?New@Pattern@@SAXAEBV?$FunctionCallbackInfo@VValue@v8@@@Nan@@@Z 00000001800378d0     CanvasPattern.obj
 0002:0000b8e8       $stateUnwindMap$?New@Pattern@@SAXAEBV?$FunctionCallbackInfo@VValue@v8@@@Nan@@@Z 00000001800378e8     CanvasPattern.obj
 0002:0000b8e8       $stateUnwindMap$?LineTo@Context2d@@SAXAEBV?$FunctionCallbackInfo@VValue@v8@@@Nan@@@Z 00000001800378e8     CanvasRenderingContext2d.obj
 0002:0000b8e8       $stateUnwindMap$?MoveTo@Context2d@@SAXAEBV?$FunctionCallbackInfo@VValue@v8@@@Nan@@@Z 00000001800378e8     CanvasRenderingContext2d.obj
 0002:0000b8f8       $ip2state$?New@Pattern@@SAXAEBV?$FunctionCallbackInfo@VValue@v8@@@Nan@@@Z 00000001800378f8     CanvasPattern.obj
 0002:0000b920       $unwind$?Initialize@Context2d@@SAXV?$Local@VObject@v8@@@v8@@@Z 0000000180037920     CanvasRenderingContext2d.obj
 0002:0000b93c       $stateUnwindMap$?Initialize@Context2d@@SAXV?$Local@VObject@v8@@@v8@@@Z 000000018003793c     CanvasRenderingContext2d.obj
 0002:0000ba80       $ip2state$?Initialize@Context2d@@SAXV?$Local@VObject@v8@@@v8@@@Z 0000000180037a80     CanvasRenderingContext2d.obj
 0002:0000bd08       $unwind$?shadow@Context2d@@QEAAXP6AXPEAU_cairo@@@Z@Z 0000000180037d08     CanvasRenderingContext2d.obj
 0002:0000bd20       $chain$3$?shadow@Context2d@@QEAAXP6AXPEAU_cairo@@@Z@Z 0000000180037d20     CanvasRenderingContext2d.obj
 0002:0000bd40       $chain$4$?shadow@Context2d@@QEAAXP6AXPEAU_cairo@@@Z@Z 0000000180037d40     CanvasRenderingContext2d.obj
 0002:0000bd50       $unwind$?blur@Context2d@@QEAAXPEAU_cairo_surface@@H@Z 0000000180037d50     CanvasRenderingContext2d.obj
 0002:0000bd68       $unwind$?New@Context2d@@SAXAEBV?$FunctionCallbackInfo@VValue@v8@@@Nan@@@Z 0000000180037d68     CanvasRenderingContext2d.obj
 0002:0000bd80       $ip2state$?New@Context2d@@SAXAEBV?$FunctionCallbackInfo@VValue@v8@@@Nan@@@Z 0000000180037d80     CanvasRenderingContext2d.obj
 0002:0000bd98       $unwind$?AddPage@Context2d@@SAXAEBV?$FunctionCallbackInfo@VValue@v8@@@Nan@@@Z 0000000180037d98     CanvasRenderingContext2d.obj
 0002:0000bda8       $ip2state$?AddPage@Context2d@@SAXAEBV?$FunctionCallbackInfo@VValue@v8@@@Nan@@@Z 0000000180037da8     CanvasRenderingContext2d.obj
 0002:0000bdc0       $unwind$?PutImageData@Context2d@@SAXAEBV?$FunctionCallbackInfo@VValue@v8@@@Nan@@@Z 0000000180037dc0     CanvasRenderingContext2d.obj
 0002:0000bde0       $stateUnwindMap$?PutImageData@Context2d@@SAXAEBV?$FunctionCallbackInfo@VValue@v8@@@Nan@@@Z 0000000180037de0     CanvasRenderingContext2d.obj
 0002:0000bdf0       $ip2state$?PutImageData@Context2d@@SAXAEBV?$FunctionCallbackInfo@VValue@v8@@@Nan@@@Z 0000000180037df0     CanvasRenderingContext2d.obj
 0002:0000be18       $unwind$?GetImageData@Context2d@@SAXAEBV?$FunctionCallbackInfo@VValue@v8@@@Nan@@@Z 0000000180037e18     CanvasRenderingContext2d.obj
 0002:0000be44       $stateUnwindMap$?GetImageData@Context2d@@SAXAEBV?$FunctionCallbackInfo@VValue@v8@@@Nan@@@Z 0000000180037e44     CanvasRenderingContext2d.obj
 0002:0000be58       $ip2state$?GetImageData@Context2d@@SAXAEBV?$FunctionCallbackInfo@VValue@v8@@@Nan@@@Z 0000000180037e58     CanvasRenderingContext2d.obj
 0002:0000be80       $unwind$?DrawImage@Context2d@@SAXAEBV?$FunctionCallbackInfo@VValue@v8@@@Nan@@@Z 0000000180037e80     CanvasRenderingContext2d.obj
 0002:0000bec4       $stateUnwindMap$?DrawImage@Context2d@@SAXAEBV?$FunctionCallbackInfo@VValue@v8@@@Nan@@@Z 0000000180037ec4     CanvasRenderingContext2d.obj
 0002:0000bef0       $ip2state$?DrawImage@Context2d@@SAXAEBV?$FunctionCallbackInfo@VValue@v8@@@Nan@@@Z 0000000180037ef0     CanvasRenderingContext2d.obj
 0002:0000bf38       $unwind$?SetGlobalCompositeOperation@Context2d@@SAXV?$Local@VString@v8@@@v8@@V?$Local@VValue@v8@@@3@AEBV?$PropertyCallbackInfo@X@Nan@@@Z 0000000180037f38     CanvasRenderingContext2d.obj
 0002:0000bf44       $unwind$?SetAntiAlias@Context2d@@SAXV?$Local@VString@v8@@@v8@@V?$Local@VValue@v8@@@3@AEBV?$PropertyCallbackInfo@X@Nan@@@Z 0000000180037f44     CanvasRenderingContext2d.obj
 0002:0000bf58       $stateUnwindMap$?SetAntiAlias@Context2d@@SAXV?$Local@VString@v8@@@v8@@V?$Local@VValue@v8@@@3@AEBV?$PropertyCallbackInfo@X@Nan@@@Z 0000000180037f58     CanvasRenderingContext2d.obj
 0002:0000bf58       $stateUnwindMap$?SetShadowColor@Context2d@@SAXV?$Local@VString@v8@@@v8@@V?$Local@VValue@v8@@@3@AEBV?$PropertyCallbackInfo@X@Nan@@@Z 0000000180037f58     CanvasRenderingContext2d.obj
 0002:0000bf58       $stateUnwindMap$?SetTextDrawingMode@Context2d@@SAXV?$Local@VString@v8@@@v8@@V?$Local@VValue@v8@@@3@AEBV?$PropertyCallbackInfo@X@Nan@@@Z 0000000180037f58     CanvasRenderingContext2d.obj
 0002:0000bf58       $stateUnwindMap$?SetFilter@Context2d@@SAXV?$Local@VString@v8@@@v8@@V?$Local@VValue@v8@@@3@AEBV?$PropertyCallbackInfo@X@Nan@@@Z 0000000180037f58     CanvasRenderingContext2d.obj
 0002:0000bf60       $ip2state$?SetAntiAlias@Context2d@@SAXV?$Local@VString@v8@@@v8@@V?$Local@VValue@v8@@@3@AEBV?$PropertyCallbackInfo@X@Nan@@@Z 0000000180037f60     CanvasRenderingContext2d.obj
 0002:0000bf78       $unwind$?SetTextDrawingMode@Context2d@@SAXV?$Local@VString@v8@@@v8@@V?$Local@VValue@v8@@@3@AEBV?$PropertyCallbackInfo@X@Nan@@@Z 0000000180037f78     CanvasRenderingContext2d.obj
 0002:0000bf90       $ip2state$?SetTextDrawingMode@Context2d@@SAXV?$Local@VString@v8@@@v8@@V?$Local@VValue@v8@@@3@AEBV?$PropertyCallbackInfo@X@Nan@@@Z 0000000180037f90     CanvasRenderingContext2d.obj
 0002:0000bfa8       $unwind$?SetFilter@Context2d@@SAXV?$Local@VString@v8@@@v8@@V?$Local@VValue@v8@@@3@AEBV?$PropertyCallbackInfo@X@Nan@@@Z 0000000180037fa8     CanvasRenderingContext2d.obj
 0002:0000bfc0       $ip2state$?SetFilter@Context2d@@SAXV?$Local@VString@v8@@@v8@@V?$Local@VValue@v8@@@3@AEBV?$PropertyCallbackInfo@X@Nan@@@Z 0000000180037fc0     CanvasRenderingContext2d.obj
 0002:0000bfd8       $unwind$isleadbyte         0000000180037fd8     LIBCMT:_wctype.obj
 0002:0000bfd8       $unwind$_isleadbyte_l      0000000180037fd8     LIBCMT:_wctype.obj
 0002:0000bfd8       $unwind$isdigit            0000000180037fd8     LIBCMT:_ctype.obj
 0002:0000bfd8       $unwind$?getSystemCP@@YAHH@Z 0000000180037fd8     LIBCMT:mbctype.obj
 0002:0000bfd8       $unwind$_cropzeros_l       0000000180037fd8     LIBCMT:cvt.obj
 0002:0000bfd8       $unwind$?IsPointInPath@Context2d@@SAXAEBV?$FunctionCallbackInfo@VValue@v8@@@Nan@@@Z 0000000180037fd8     CanvasRenderingContext2d.obj
 0002:0000bfd8       $unwind$??2@YAPEAX_K@Z     0000000180037fd8     LIBCMT:new.obj
 0002:0000bfd8       $unwind$_forcdecpt_l       0000000180037fd8     LIBCMT:cvt.obj
 0002:0000bfe0       $chain$2$?IsPointInPath@Context2d@@SAXAEBV?$FunctionCallbackInfo@VValue@v8@@@Nan@@@Z 0000000180037fe0     CanvasRenderingContext2d.obj
 0002:0000bffc       $chain$3$?IsPointInPath@Context2d@@SAXAEBV?$FunctionCallbackInfo@VValue@v8@@@Nan@@@Z 0000000180037ffc     CanvasRenderingContext2d.obj
 0002:0000c00c       $unwind$?SetFillPattern@Context2d@@SAXAEBV?$FunctionCallbackInfo@VValue@v8@@@Nan@@@Z 000000018003800c     CanvasRenderingContext2d.obj
 0002:0000c020       $ip2state$?SetFillPattern@Context2d@@SAXAEBV?$FunctionCallbackInfo@VValue@v8@@@Nan@@@Z 0000000180038020     CanvasRenderingContext2d.obj
 0002:0000c038       $unwind$?SetStrokePattern@Context2d@@SAXAEBV?$FunctionCallbackInfo@VValue@v8@@@Nan@@@Z 0000000180038038     CanvasRenderingContext2d.obj
 0002:0000c050       $ip2state$?SetStrokePattern@Context2d@@SAXAEBV?$FunctionCallbackInfo@VValue@v8@@@Nan@@@Z 0000000180038050     CanvasRenderingContext2d.obj
 0002:0000c068       $unwind$?SetShadowColor@Context2d@@SAXV?$Local@VString@v8@@@v8@@V?$Local@VValue@v8@@@3@AEBV?$PropertyCallbackInfo@X@Nan@@@Z 0000000180038068     CanvasRenderingContext2d.obj
 0002:0000c080       $ip2state$?SetShadowColor@Context2d@@SAXV?$Local@VString@v8@@@v8@@V?$Local@VValue@v8@@@3@AEBV?$PropertyCallbackInfo@X@Nan@@@Z 0000000180038080     CanvasRenderingContext2d.obj
 0002:0000c098       $unwind$?GetFillColor@Context2d@@SAXV?$Local@VString@v8@@@v8@@AEBV?$PropertyCallbackInfo@VValue@v8@@@Nan@@@Z 0000000180038098     CanvasRenderingContext2d.obj
 0002:0000c098       $unwind$?GetStrokeColor@Context2d@@SAXV?$Local@VString@v8@@@v8@@AEBV?$PropertyCallbackInfo@VValue@v8@@@Nan@@@Z 0000000180038098     CanvasRenderingContext2d.obj
 0002:0000c098       $unwind$?GetShadowColor@Context2d@@SAXV?$Local@VString@v8@@@v8@@AEBV?$PropertyCallbackInfo@VValue@v8@@@Nan@@@Z 0000000180038098     CanvasRenderingContext2d.obj
 0002:0000c0ac       $unwind$?SetFillColor@Context2d@@SAXAEBV?$FunctionCallbackInfo@VValue@v8@@@Nan@@@Z 00000001800380ac     CanvasRenderingContext2d.obj
 0002:0000c0c0       $stateUnwindMap$?StrokeText@Context2d@@SAXAEBV?$FunctionCallbackInfo@VValue@v8@@@Nan@@@Z 00000001800380c0     CanvasRenderingContext2d.obj
 0002:0000c0c0       $stateUnwindMap$?SetFillColor@Context2d@@SAXAEBV?$FunctionCallbackInfo@VValue@v8@@@Nan@@@Z 00000001800380c0     CanvasRenderingContext2d.obj
 0002:0000c0c0       $stateUnwindMap$?FillText@Context2d@@SAXAEBV?$FunctionCallbackInfo@VValue@v8@@@Nan@@@Z 00000001800380c0     CanvasRenderingContext2d.obj
 0002:0000c0c0       $stateUnwindMap$?SetStrokeColor@Context2d@@SAXAEBV?$FunctionCallbackInfo@VValue@v8@@@Nan@@@Z 00000001800380c0     CanvasRenderingContext2d.obj
 0002:0000c0c8       $ip2state$?SetFillColor@Context2d@@SAXAEBV?$FunctionCallbackInfo@VValue@v8@@@Nan@@@Z 00000001800380c8     CanvasRenderingContext2d.obj
 0002:0000c0e0       $unwind$?SetStrokeColor@Context2d@@SAXAEBV?$FunctionCallbackInfo@VValue@v8@@@Nan@@@Z 00000001800380e0     CanvasRenderingContext2d.obj
 0002:0000c0f8       $ip2state$?SetStrokeColor@Context2d@@SAXAEBV?$FunctionCallbackInfo@VValue@v8@@@Nan@@@Z 00000001800380f8     CanvasRenderingContext2d.obj
 0002:0000c110       $unwind$?BezierCurveTo@Context2d@@SAXAEBV?$FunctionCallbackInfo@VValue@v8@@@Nan@@@Z 0000000180038110     CanvasRenderingContext2d.obj
 0002:0000c11c       $chain$9$?BezierCurveTo@Context2d@@SAXAEBV?$FunctionCallbackInfo@VValue@v8@@@Nan@@@Z 000000018003811c     CanvasRenderingContext2d.obj
 0002:0000c154       $chain$10$?BezierCurveTo@Context2d@@SAXAEBV?$FunctionCallbackInfo@VValue@v8@@@Nan@@@Z 0000000180038154     CanvasRenderingContext2d.obj
 0002:0000c164       $unwind$?QuadraticCurveTo@Context2d@@SAXAEBV?$FunctionCallbackInfo@VValue@v8@@@Nan@@@Z 0000000180038164     CanvasRenderingContext2d.obj
 0002:0000c16c       $chain$4$?QuadraticCurveTo@Context2d@@SAXAEBV?$FunctionCallbackInfo@VValue@v8@@@Nan@@@Z 000000018003816c     CanvasRenderingContext2d.obj
 0002:0000c190       $chain$5$?QuadraticCurveTo@Context2d@@SAXAEBV?$FunctionCallbackInfo@VValue@v8@@@Nan@@@Z 0000000180038190     CanvasRenderingContext2d.obj
 0002:0000c1a0       $unwind$?Transform@Context2d@@SAXAEBV?$FunctionCallbackInfo@VValue@v8@@@Nan@@@Z 00000001800381a0     CanvasRenderingContext2d.obj
 0002:0000c1cc       $unwind$?Translate@Context2d@@SAXAEBV?$FunctionCallbackInfo@VValue@v8@@@Nan@@@Z 00000001800381cc     CanvasRenderingContext2d.obj
 0002:0000c1cc       $unwind$?Scale@Context2d@@SAXAEBV?$FunctionCallbackInfo@VValue@v8@@@Nan@@@Z 00000001800381cc     CanvasRenderingContext2d.obj
 0002:0000c1e0       $unwind$?FillText@Context2d@@SAXAEBV?$FunctionCallbackInfo@VValue@v8@@@Nan@@@Z 00000001800381e0     CanvasRenderingContext2d.obj
 0002:0000c200       $ip2state$?FillText@Context2d@@SAXAEBV?$FunctionCallbackInfo@VValue@v8@@@Nan@@@Z 0000000180038200     CanvasRenderingContext2d.obj
 0002:0000c218       $unwind$?StrokeText@Context2d@@SAXAEBV?$FunctionCallbackInfo@VValue@v8@@@Nan@@@Z 0000000180038218     CanvasRenderingContext2d.obj
 0002:0000c238       $ip2state$?StrokeText@Context2d@@SAXAEBV?$FunctionCallbackInfo@VValue@v8@@@Nan@@@Z 0000000180038238     CanvasRenderingContext2d.obj
 0002:0000c250       $unwind$?setTextPath@Context2d@@QEAAXPEBDNN@Z 0000000180038250     CanvasRenderingContext2d.obj
 0002:0000c26c       $unwind$?LineTo@Context2d@@SAXAEBV?$FunctionCallbackInfo@VValue@v8@@@Nan@@@Z 000000018003826c     CanvasRenderingContext2d.obj
 0002:0000c288       $ip2state$?LineTo@Context2d@@SAXAEBV?$FunctionCallbackInfo@VValue@v8@@@Nan@@@Z 0000000180038288     CanvasRenderingContext2d.obj
 0002:0000c2b0       $unwind$?MoveTo@Context2d@@SAXAEBV?$FunctionCallbackInfo@VValue@v8@@@Nan@@@Z 00000001800382b0     CanvasRenderingContext2d.obj
 0002:0000c2c8       $ip2state$?MoveTo@Context2d@@SAXAEBV?$FunctionCallbackInfo@VValue@v8@@@Nan@@@Z 00000001800382c8     CanvasRenderingContext2d.obj
 0002:0000c2f0       $unwind$?SetFont@Context2d@@SAXAEBV?$FunctionCallbackInfo@VValue@v8@@@Nan@@@Z 00000001800382f0     CanvasRenderingContext2d.obj
 0002:0000c30c       $stateUnwindMap$?SetFont@Context2d@@SAXAEBV?$FunctionCallbackInfo@VValue@v8@@@Nan@@@Z 000000018003830c     CanvasRenderingContext2d.obj
 0002:0000c330       $ip2state$?SetFont@Context2d@@SAXAEBV?$FunctionCallbackInfo@VValue@v8@@@Nan@@@Z 0000000180038330     CanvasRenderingContext2d.obj
 0002:0000c378       $unwind$?MeasureText@Context2d@@SAXAEBV?$FunctionCallbackInfo@VValue@v8@@@Nan@@@Z 0000000180038378     CanvasRenderingContext2d.obj
 0002:0000c3ac       $stateUnwindMap$?MeasureText@Context2d@@SAXAEBV?$FunctionCallbackInfo@VValue@v8@@@Nan@@@Z 00000001800383ac     CanvasRenderingContext2d.obj
 0002:0000c3b8       $ip2state$?MeasureText@Context2d@@SAXAEBV?$FunctionCallbackInfo@VValue@v8@@@Nan@@@Z 00000001800383b8     CanvasRenderingContext2d.obj
 0002:0000c3d0       $chain$0$?SetTextBaseline@Context2d@@SAXAEBV?$FunctionCallbackInfo@VValue@v8@@@Nan@@@Z 00000001800383d0     CanvasRenderingContext2d.obj
 0002:0000c3e4       $chain$1$?SetTextBaseline@Context2d@@SAXAEBV?$FunctionCallbackInfo@VValue@v8@@@Nan@@@Z 00000001800383e4     CanvasRenderingContext2d.obj
 0002:0000c3f4       $chain$0$?SetTextAlignment@Context2d@@SAXAEBV?$FunctionCallbackInfo@VValue@v8@@@Nan@@@Z 00000001800383f4     CanvasRenderingContext2d.obj
 0002:0000c408       $chain$1$?SetTextAlignment@Context2d@@SAXAEBV?$FunctionCallbackInfo@VValue@v8@@@Nan@@@Z 0000000180038408     CanvasRenderingContext2d.obj
 0002:0000c418       $unwind$?SetLineDash@Context2d@@SAXAEBV?$FunctionCallbackInfo@VValue@v8@@@Nan@@@Z 0000000180038418     CanvasRenderingContext2d.obj
 0002:0000c43c       $stateUnwindMap$?GetLineDash@Context2d@@SAXAEBV?$FunctionCallbackInfo@VValue@v8@@@Nan@@@Z 000000018003843c     CanvasRenderingContext2d.obj
 0002:0000c43c       $stateUnwindMap$?SetLineDash@Context2d@@SAXAEBV?$FunctionCallbackInfo@VValue@v8@@@Nan@@@Z 000000018003843c     CanvasRenderingContext2d.obj
 0002:0000c448       $ip2state$?SetLineDash@Context2d@@SAXAEBV?$FunctionCallbackInfo@VValue@v8@@@Nan@@@Z 0000000180038448     CanvasRenderingContext2d.obj
 0002:0000c460       $unwind$?GetLineDash@Context2d@@SAXAEBV?$FunctionCallbackInfo@VValue@v8@@@Nan@@@Z 0000000180038460     CanvasRenderingContext2d.obj
 0002:0000c480       $ip2state$?GetLineDash@Context2d@@SAXAEBV?$FunctionCallbackInfo@VValue@v8@@@Nan@@@Z 0000000180038480     CanvasRenderingContext2d.obj
 0002:0000c498       $unwind$?SetLineDashOffset@Context2d@@SAXV?$Local@VString@v8@@@v8@@V?$Local@VValue@v8@@@3@AEBV?$PropertyCallbackInfo@X@Nan@@@Z 0000000180038498     CanvasRenderingContext2d.obj
 0002:0000c4a4       $chain$3$?SetLineDashOffset@Context2d@@SAXV?$Local@VString@v8@@@v8@@V?$Local@VValue@v8@@@3@AEBV?$PropertyCallbackInfo@X@Nan@@@Z 00000001800384a4     CanvasRenderingContext2d.obj
 0002:0000c4c4       $chain$4$?SetLineDashOffset@Context2d@@SAXV?$Local@VString@v8@@@v8@@V?$Local@VValue@v8@@@3@AEBV?$PropertyCallbackInfo@X@Nan@@@Z 00000001800384c4     CanvasRenderingContext2d.obj
 0002:0000c4d4       $chain$5$?SetLineDashOffset@Context2d@@SAXV?$Local@VString@v8@@@v8@@V?$Local@VValue@v8@@@3@AEBV?$PropertyCallbackInfo@X@Nan@@@Z 00000001800384d4     CanvasRenderingContext2d.obj
 0002:0000c4f4       $unwind$?FillRect@Context2d@@SAXAEBV?$FunctionCallbackInfo@VValue@v8@@@Nan@@@Z 00000001800384f4     CanvasRenderingContext2d.obj
 0002:0000c4f4       $unwind$?ClearRect@Context2d@@SAXAEBV?$FunctionCallbackInfo@VValue@v8@@@Nan@@@Z 00000001800384f4     CanvasRenderingContext2d.obj
 0002:0000c4f4       $unwind$?Rect@Context2d@@SAXAEBV?$FunctionCallbackInfo@VValue@v8@@@Nan@@@Z 00000001800384f4     CanvasRenderingContext2d.obj
 0002:0000c4f4       $unwind$?StrokeRect@Context2d@@SAXAEBV?$FunctionCallbackInfo@VValue@v8@@@Nan@@@Z 00000001800384f4     CanvasRenderingContext2d.obj
 0002:0000c4fc       $chain$3$?FillRect@Context2d@@SAXAEBV?$FunctionCallbackInfo@VValue@v8@@@Nan@@@Z 00000001800384fc     CanvasRenderingContext2d.obj
 0002:0000c51c       $chain$4$?FillRect@Context2d@@SAXAEBV?$FunctionCallbackInfo@VValue@v8@@@Nan@@@Z 000000018003851c     CanvasRenderingContext2d.obj
 0002:0000c530       $chain$5$?FillRect@Context2d@@SAXAEBV?$FunctionCallbackInfo@VValue@v8@@@Nan@@@Z 0000000180038530     CanvasRenderingContext2d.obj
 0002:0000c540       $chain$6$?FillRect@Context2d@@SAXAEBV?$FunctionCallbackInfo@VValue@v8@@@Nan@@@Z 0000000180038540     CanvasRenderingContext2d.obj
 0002:0000c550       $chain$3$?StrokeRect@Context2d@@SAXAEBV?$FunctionCallbackInfo@VValue@v8@@@Nan@@@Z 0000000180038550     CanvasRenderingContext2d.obj
 0002:0000c570       $chain$4$?StrokeRect@Context2d@@SAXAEBV?$FunctionCallbackInfo@VValue@v8@@@Nan@@@Z 0000000180038570     CanvasRenderingContext2d.obj
 0002:0000c584       $chain$5$?StrokeRect@Context2d@@SAXAEBV?$FunctionCallbackInfo@VValue@v8@@@Nan@@@Z 0000000180038584     CanvasRenderingContext2d.obj
 0002:0000c594       $chain$6$?StrokeRect@Context2d@@SAXAEBV?$FunctionCallbackInfo@VValue@v8@@@Nan@@@Z 0000000180038594     CanvasRenderingContext2d.obj
 0002:0000c5a4       $chain$3$?ClearRect@Context2d@@SAXAEBV?$FunctionCallbackInfo@VValue@v8@@@Nan@@@Z 00000001800385a4     CanvasRenderingContext2d.obj
 0002:0000c5c4       $chain$4$?ClearRect@Context2d@@SAXAEBV?$FunctionCallbackInfo@VValue@v8@@@Nan@@@Z 00000001800385c4     CanvasRenderingContext2d.obj
 0002:0000c5d8       $chain$5$?ClearRect@Context2d@@SAXAEBV?$FunctionCallbackInfo@VValue@v8@@@Nan@@@Z 00000001800385d8     CanvasRenderingContext2d.obj
 0002:0000c5e8       $chain$6$?ClearRect@Context2d@@SAXAEBV?$FunctionCallbackInfo@VValue@v8@@@Nan@@@Z 00000001800385e8     CanvasRenderingContext2d.obj
 0002:0000c5f8       $chain$3$?Rect@Context2d@@SAXAEBV?$FunctionCallbackInfo@VValue@v8@@@Nan@@@Z 00000001800385f8     CanvasRenderingContext2d.obj
 0002:0000c618       $chain$4$?Rect@Context2d@@SAXAEBV?$FunctionCallbackInfo@VValue@v8@@@Nan@@@Z 0000000180038618     CanvasRenderingContext2d.obj
 0002:0000c628       $unwind$?Arc@Context2d@@SAXAEBV?$FunctionCallbackInfo@VValue@v8@@@Nan@@@Z 0000000180038628     CanvasRenderingContext2d.obj
 0002:0000c630       $chain$7$?Arc@Context2d@@SAXAEBV?$FunctionCallbackInfo@VValue@v8@@@Nan@@@Z 0000000180038630     CanvasRenderingContext2d.obj
 0002:0000c660       $chain$8$?Arc@Context2d@@SAXAEBV?$FunctionCallbackInfo@VValue@v8@@@Nan@@@Z 0000000180038660     CanvasRenderingContext2d.obj
 0002:0000c670       $unwind$?ArcTo@Context2d@@SAXAEBV?$FunctionCallbackInfo@VValue@v8@@@Nan@@@Z 0000000180038670     CanvasRenderingContext2d.obj
 0002:0000c67c       $chain$8$?ArcTo@Context2d@@SAXAEBV?$FunctionCallbackInfo@VValue@v8@@@Nan@@@Z 000000018003867c     CanvasRenderingContext2d.obj
 0002:0000c6b0       $chain$11$?ArcTo@Context2d@@SAXAEBV?$FunctionCallbackInfo@VValue@v8@@@Nan@@@Z 00000001800386b0     CanvasRenderingContext2d.obj
 0002:0000c6cc       $chain$12$?ArcTo@Context2d@@SAXAEBV?$FunctionCallbackInfo@VValue@v8@@@Nan@@@Z 00000001800386cc     CanvasRenderingContext2d.obj
 0002:0000c6dc       $chain$13$?ArcTo@Context2d@@SAXAEBV?$FunctionCallbackInfo@VValue@v8@@@Nan@@@Z 00000001800386dc     CanvasRenderingContext2d.obj
 0002:0000c6ec       $unwind$?rgba_from_hsla@@YAHMMMM@Z 00000001800386ec     color.obj
 0002:0000c71c       $chain$0$?rgba_from_rgb_string@@YAHPEBDPEAF@Z 000000018003871c     color.obj
 0002:0000c730       $chain$2$?rgba_from_rgb_string@@YAHPEBDPEAF@Z 0000000180038730     color.obj
 0002:0000c744       $chain$3$?rgba_from_rgb_string@@YAHPEBDPEAF@Z 0000000180038744     color.obj
 0002:0000c754       $chain$0$?rgba_from_rgba_string@@YAHPEBDPEAF@Z 0000000180038754     color.obj
 0002:0000c768       $chain$2$?rgba_from_rgba_string@@YAHPEBDPEAF@Z 0000000180038768     color.obj
 0002:0000c77c       $chain$3$?rgba_from_rgba_string@@YAHPEBDPEAF@Z 000000018003877c     color.obj
 0002:0000c78c       $unwind$?rgba_from_hsla_string@@YAHPEBDPEAF@Z 000000018003878c     color.obj
 0002:0000c798       $chain$2$?rgba_from_hsla_string@@YAHPEBDPEAF@Z 0000000180038798     color.obj
 0002:0000c7b4       $chain$4$?rgba_from_hsla_string@@YAHPEBDPEAF@Z 00000001800387b4     color.obj
 0002:0000c7d0       $chain$5$?rgba_from_hsla_string@@YAHPEBDPEAF@Z 00000001800387d0     color.obj
 0002:0000c7e4       $chain$6$?rgba_from_hsla_string@@YAHPEBDPEAF@Z 00000001800387e4     color.obj
 0002:0000c7f4       $unwind$?rgba_from_hsl_string@@YAHPEBDPEAF@Z 00000001800387f4     color.obj
 0002:0000c800       $chain$1$?rgba_from_hsl_string@@YAHPEBDPEAF@Z 0000000180038800     color.obj
 0002:0000c818       $chain$3$?rgba_from_hsl_string@@YAHPEBDPEAF@Z 0000000180038818     color.obj
 0002:0000c830       $chain$4$?rgba_from_hsl_string@@YAHPEBDPEAF@Z 0000000180038830     color.obj
 0002:0000c840       $unwind$__fma3_lib_init    0000000180038840     LIBCMT:fma3_available.obj
 0002:0000c840       $unwind$?rgba_from_name_string@@YAHPEBDPEAF@Z 0000000180038840     color.obj
 0002:0000c848       $unwind$??$parse_css_number@M@@YA_NPEAPEBDPEAM@Z 0000000180038848     color.obj
 0002:0000c854       $chain$1$??$parse_css_number@M@@YA_NPEAPEBDPEAM@Z 0000000180038854     color.obj
 0002:0000c86c       $chain$3$??$parse_css_number@M@@YA_NPEAPEBDPEAM@Z 000000018003886c     color.obj
 0002:0000c884       $unwind$?GetFunction@Callback@Nan@@QEBA?AV?$Local@VFunction@v8@@@v8@@XZ 0000000180038884     Image.obj
 0002:0000c898       $stateUnwindMap$?GetFunction@Callback@Nan@@QEBA?AV?$Local@VFunction@v8@@@v8@@XZ 0000000180038898     Image.obj
 0002:0000c8a0       $ip2state$?GetFunction@Callback@Nan@@QEBA?AV?$Local@VFunction@v8@@@v8@@XZ 00000001800388a0     Image.obj
 0002:0000c8b8       $unwind$?Initialize@Image@@SAXV?$Local@VObject@v8@@@v8@@@Z 00000001800388b8     Image.obj
 0002:0000c8d0       $ip2state$?Initialize@Image@@SAXV?$Local@VObject@v8@@@v8@@@Z 00000001800388d0     Image.obj
 0002:0000c8e8       $unwind$?clearData@Image@@QEAAXXZ 00000001800388e8     Image.obj
 0002:0000c8f4       $chain$2$?clearData@Image@@QEAAXXZ 00000001800388f4     Image.obj
 0002:0000c910       $chain$3$?clearData@Image@@QEAAXXZ 0000000180038910     Image.obj
 0002:0000c928       $chain$4$?clearData@Image@@QEAAXXZ 0000000180038928     Image.obj
 0002:0000c938       $unwind$?SetSource@Image@@SAXV?$Local@VString@v8@@@v8@@V?$Local@VValue@v8@@@3@AEBV?$PropertyCallbackInfo@X@Nan@@@Z 0000000180038938     Image.obj
 0002:0000c944       $chain$0$?SetSource@Image@@SAXV?$Local@VString@v8@@@v8@@V?$Local@VValue@v8@@@3@AEBV?$PropertyCallbackInfo@X@Nan@@@Z 0000000180038944     Image.obj
 0002:0000c958       $chain$1$?SetSource@Image@@SAXV?$Local@VString@v8@@@v8@@V?$Local@VValue@v8@@@3@AEBV?$PropertyCallbackInfo@X@Nan@@@Z 0000000180038958     Image.obj
 0002:0000c968       $unwind$?SetOnload@Image@@SAXV?$Local@VString@v8@@@v8@@V?$Local@VValue@v8@@@3@AEBV?$PropertyCallbackInfo@X@Nan@@@Z 0000000180038968     Image.obj
 0002:0000c978       $stateUnwindMap$?SetOnload@Image@@SAXV?$Local@VString@v8@@@v8@@V?$Local@VValue@v8@@@3@AEBV?$PropertyCallbackInfo@X@Nan@@@Z 0000000180038978     Image.obj
 0002:0000c978       $stateUnwindMap$?SetOnerror@Image@@SAXV?$Local@VString@v8@@@v8@@V?$Local@VValue@v8@@@3@AEBV?$PropertyCallbackInfo@X@Nan@@@Z 0000000180038978     Image.obj
 0002:0000c980       $ip2state$?SetOnload@Image@@SAXV?$Local@VString@v8@@@v8@@V?$Local@VValue@v8@@@3@AEBV?$PropertyCallbackInfo@X@Nan@@@Z 0000000180038980     Image.obj
 0002:0000c998       $unwind$?SetOnerror@Image@@SAXV?$Local@VString@v8@@@v8@@V?$Local@VValue@v8@@@3@AEBV?$PropertyCallbackInfo@X@Nan@@@Z 0000000180038998     Image.obj
 0002:0000c9a8       $ip2state$?SetOnerror@Image@@SAXV?$Local@VString@v8@@@v8@@V?$Local@VValue@v8@@@3@AEBV?$PropertyCallbackInfo@X@Nan@@@Z 00000001800389a8     Image.obj
 0002:0000c9c0       $unwind$??1Image@@EEAA@XZ  00000001800389c0     Image.obj
 0002:0000c9d8       $stateUnwindMap$??1Image@@EEAA@XZ 00000001800389d8     Image.obj
 0002:0000ca00       $ip2state$??1Image@@EEAA@XZ 0000000180038a00     Image.obj
 0002:0000ca48       $unwind$?loaded@Image@@QEAAXXZ 0000000180038a48     Image.obj
 0002:0000ca60       $stateUnwindMap$?loaded@Image@@QEAAXXZ 0000000180038a60     Image.obj
 0002:0000ca70       $ip2state$?loaded@Image@@QEAAXXZ 0000000180038a70     Image.obj
 0002:0000ca98       $unwind$?error@Image@@QEAAXV?$Local@VValue@v8@@@v8@@@Z 0000000180038a98     Image.obj
 0002:0000caac       $stateUnwindMap$?error@Image@@QEAAXV?$Local@VValue@v8@@@v8@@@Z 0000000180038aac     Image.obj
 0002:0000cac0       $ip2state$?error@Image@@QEAAXV?$Local@VValue@v8@@@v8@@@Z 0000000180038ac0     Image.obj
 0002:0000cae8       $unwind$?loadSurface@Image@@QEAA?AW4_cairo_status@@XZ 0000000180038ae8     Image.obj
 0002:0000cafc       $unwind$?Initialize@ImageData@@SAXV?$Local@VObject@v8@@@v8@@@Z 0000000180038afc     ImageData.obj
 0002:0000cb18       $ip2state$?Initialize@ImageData@@SAXV?$Local@VObject@v8@@@v8@@@Z 0000000180038b18     ImageData.obj
 0002:0000cb30       $unwind$?New@ImageData@@SAXAEBV?$FunctionCallbackInfo@VValue@v8@@@Nan@@@Z 0000000180038b30     ImageData.obj
 0002:0000cb4c       $stateUnwindMap$?New@ImageData@@SAXAEBV?$FunctionCallbackInfo@VValue@v8@@@Nan@@@Z 0000000180038b4c     ImageData.obj
 0002:0000cb90       $ip2state$?New@ImageData@@SAXAEBV?$FunctionCallbackInfo@VValue@v8@@@Nan@@@Z 0000000180038b90     ImageData.obj
 0002:0000cc18       $unwind$?init@@YAXV?$Local@VObject@v8@@@v8@@@Z 0000000180038c18     init.obj
 0002:0000cc20       xdata                      0000000180038c20     node:node.exe
 0002:0000cc28       $xdatasym                  0000000180038c28     LIBCMT:amdsecgs.obj
 0002:0000cc30       $xdatasym                  0000000180038c30     LIBCMT:memcpy.obj
 0002:0000cc34       $unwind$??_M@YAXPEAX_KHP6AX0@Z@Z 0000000180038c34     LIBCMT:ehvecdtr.obj
 0002:0000cc5c       $unwind$?__ArrayUnwind@@YAXPEAX_KHP6AX0@Z@Z 0000000180038c5c     LIBCMT:ehvecdtr.obj
 0002:0000cc84       $unwind$swprintf           0000000180038c84     LIBCMT:wassert.obj
 0002:0000cc8c       $unwind$_wassert           0000000180038c8c     LIBCMT:wassert.obj
 0002:0000ccb0       $unwind$_onexit            0000000180038cb0     LIBCMT:onexit.obj
 0002:0000cce0       $xdatasym                  0000000180038ce0     LIBCMT:longjmp.obj
 0002:0000cce8       $unwind$strstr             0000000180038ce8     LIBCMT:strstr.obj
 0002:0000ccf4       $unwind$_snprintf          0000000180038cf4     LIBCMT:snprintf.obj
 0002:0000cd04       $unwind$_fsopen            0000000180038d04     LIBCMT:fopen.obj
 0002:0000cd40       $unwind$fread_s            0000000180038d40     LIBCMT:fread.obj
 0002:0000cd70       $unwind$fread_s$fin$0      0000000180038d70     LIBCMT:fread.obj
 0002:0000cd78       $unwind$_fread_nolock_s    0000000180038d78     LIBCMT:fread.obj
 0002:0000cd90       $unwind$fseek              0000000180038d90     LIBCMT:fseek.obj
 0002:0000cdb8       $unwind$fclose             0000000180038db8     LIBCMT:fclose.obj
 0002:0000cddc       $unwind$_CRT_INIT          0000000180038ddc     LIBCMT:dllcrt0.obj
 0002:0000cdfc       $unwind$__DllMainCRTStartup 0000000180038dfc     LIBCMT:dllcrt0.obj
 0002:0000ce28       $xdatasym                  0000000180038e28     LIBCMT:strlen.obj
 0002:0000ce2c       $unwind$_CxxThrowException 0000000180038e2c     LIBCMT:throw.obj
 0002:0000ce3c       $unwind$?__FrameUnwindToEmptyState@@YAXPEA_KPEAU_xDISPATCHER_CONTEXT@@PEBU_s_FuncInfo@@@Z 0000000180038e3c     LIBCMT:trnsctrl.obj
 0002:0000ce50       $unwind$_UnwindNestedFrames 0000000180038e50     LIBCMT:trnsctrl.obj
 0002:0000ce64       $unwind$_CallSETranslator  0000000180038e64     LIBCMT:trnsctrl.obj
 0002:0000ce84       $unwind$_CallSETranslator$filt$0 0000000180038e84     LIBCMT:trnsctrl.obj
 0002:0000ce84       $unwind$_sopen_helper$fin$0 0000000180038e84     LIBCMT:trnsctrl.obj
 0002:0000ce8c       $unwind$?_GetEstablisherFrame@@YAPEA_KPEA_KPEAU_xDISPATCHER_CONTEXT@@PEBU_s_FuncInfo@@0@Z 0000000180038e8c     LIBCMT:trnsctrl.obj
 0002:0000cea4       $unwind$__CxxFrameHandler3 0000000180038ea4     LIBCMT:trnsctrl.obj
 0002:0000ceb4       $unwind$?_Copy_str@exception@std@@AEAAXPEBD@Z 0000000180038eb4     LIBCMT:stdexcpt.obj
 0002:0000cec4       $unwind$__isa_available_init 0000000180038ec4     LIBCMT:cpu_disp.obj
 0002:0000ced8       $unwind$__copy_path_to_wide_string 0000000180038ed8     LIBCMT:crt0dat.obj
 0002:0000cef0       $unwind$doexit             0000000180038ef0     LIBCMT:crt0dat.obj
 0002:0000cf20       $unwind$fseek$fin$0        0000000180038f20     LIBCMT:crt0dat.obj
 0002:0000cf20       $unwind$_write$fin$0       0000000180038f20     LIBCMT:crt0dat.obj
 0002:0000cf20       $unwind$_lseek$fin$0       0000000180038f20     LIBCMT:crt0dat.obj
 0002:0000cf20       $unwind$_initptd$fin$0     0000000180038f20     LIBCMT:crt0dat.obj
 0002:0000cf20       $unwind$_initptd$fin$1     0000000180038f20     LIBCMT:crt0dat.obj
 0002:0000cf20       $unwind$_setmbcp$fin$0     0000000180038f20     LIBCMT:crt0dat.obj
 0002:0000cf20       $unwind$_fsopen$fin$0      0000000180038f20     LIBCMT:crt0dat.obj
 0002:0000cf20       $unwind$?filt$0@?0??__ArrayUnwind@@YAXPEAX_KHP6AX0@Z@Z@4HA 0000000180038f20     LIBCMT:crt0dat.obj
 0002:0000cf20       $unwind$flsall$fin$1       0000000180038f20     LIBCMT:crt0dat.obj
 0002:0000cf20       $unwind$__CxxCallCatchBlock$filt$0 0000000180038f20     LIBCMT:crt0dat.obj
 0002:0000cf20       $unwind$__updatetmbcinfo$fin$0 0000000180038f20     LIBCMT:crt0dat.obj
 0002:0000cf20       $unwind$?fin$0@?0??_Type_info_dtor@type_info@@CAXPEAV1@@Z@4HA 0000000180038f20     LIBCMT:crt0dat.obj
 0002:0000cf20       $unwind$fwprintf$fin$0     0000000180038f20     LIBCMT:crt0dat.obj
 0002:0000cf20       $unwind$__DllMainCRTStartup$filt$0 0000000180038f20     LIBCMT:crt0dat.obj
 0002:0000cf20       $unwind$setvbuf$fin$0      0000000180038f20     LIBCMT:crt0dat.obj
 0002:0000cf20       $unwind$__FrameUnwindToState$filt$0 0000000180038f20     LIBCMT:crt0dat.obj
 0002:0000cf20       $unwind$_lseeki64$fin$0    0000000180038f20     LIBCMT:crt0dat.obj
 0002:0000cf20       $unwind$_commit$fin$0      0000000180038f20     LIBCMT:crt0dat.obj
 0002:0000cf20       $unwind$_freefls$fin$0     0000000180038f20     LIBCMT:crt0dat.obj
 0002:0000cf20       $unwind$fflush$fin$0       0000000180038f20     LIBCMT:crt0dat.obj
 0002:0000cf20       $unwind$__updatetlocinfo$fin$0 0000000180038f20     LIBCMT:crt0dat.obj
 0002:0000cf20       $unwind$fclose$fin$0       0000000180038f20     LIBCMT:crt0dat.obj
 0002:0000cf20       $unwind$_ioinit$fin$0      0000000180038f20     LIBCMT:crt0dat.obj
 0002:0000cf20       $unwind$_mtinitlocknum$fin$0 0000000180038f20     LIBCMT:crt0dat.obj
 0002:0000cf20       $unwind$_CRT_INIT$fin$0    0000000180038f20     LIBCMT:crt0dat.obj
 0002:0000cf20       $unwind$__FrameUnwindToState$fin$1 0000000180038f20     LIBCMT:crt0dat.obj
 0002:0000cf20       $unwind$_fcloseall$fin$0   0000000180038f20     LIBCMT:crt0dat.obj
 0002:0000cf20       $unwind$_alloc_osfhnd$fin$0 0000000180038f20     LIBCMT:crt0dat.obj
 0002:0000cf20       $unwind$_onexit$fin$0      0000000180038f20     LIBCMT:crt0dat.obj
 0002:0000cf20       $unwind$_IsNonwritableInCurrentImage$filt$0 0000000180038f20     LIBCMT:crt0dat.obj
 0002:0000cf20       $unwind$raise$fin$0        0000000180038f20     LIBCMT:crt0dat.obj
 0002:0000cf20       $unwind$__DestructExceptionObject$filt$0 0000000180038f20     LIBCMT:crt0dat.obj
 0002:0000cf20       $unwind$__lock_fhandle$fin$0 0000000180038f20     LIBCMT:crt0dat.obj
 0002:0000cf20       $unwind$_freefls$fin$1     0000000180038f20     LIBCMT:crt0dat.obj
 0002:0000cf20       $unwind$_close$fin$0       0000000180038f20     LIBCMT:crt0dat.obj
 0002:0000cf20       $unwind$_alloc_osfhnd$fin$1 0000000180038f20     LIBCMT:crt0dat.obj
 0002:0000cf20       $unwind$flsall$fin$0       0000000180038f20     LIBCMT:crt0dat.obj
 0002:0000cf20       $unwind$_locterm$fin$0     0000000180038f20     LIBCMT:crt0dat.obj
 0002:0000cf20       $unwind$_read$fin$0        0000000180038f20     LIBCMT:crt0dat.obj
 0002:0000cf20       $unwind$doexit$fin$0       0000000180038f20     LIBCMT:crt0dat.obj
 0002:0000cf20       $unwind$_getstream$fin$0   0000000180038f20     LIBCMT:crt0dat.obj
 0002:0000cf20       $unwind$?fin$0@?0???_M@YAXPEAX_KHP6AX0@Z@Z@4HA 0000000180038f20     LIBCMT:crt0dat.obj
 0002:0000cf20       $unwind$_ctrlfp$filt$0     0000000180038f20     LIBCMT:crt0dat.obj
 0002:0000cf28       $unwind$_NMSG_WRITE        0000000180038f28     LIBCMT:crt0msg.obj
 0002:0000cf4c       $unwind$?terminate@@YAXXZ  0000000180038f4c     LIBCMT:hooks.obj
 0002:0000cf6c       $unwind$?_inconsistency@@YAXXZ 0000000180038f6c     LIBCMT:hooks.obj
 0002:0000cf8c       $unwind$__C_specific_handler 0000000180038f8c     LIBCMT:chandler.obj
 0002:0000cfa8       $unwind$_call_reportfault  0000000180038fa8     LIBCMT:invarg.obj
 0002:0000cfc8       $unwind$_invalid_parameter 0000000180038fc8     LIBCMT:invarg.obj
 0002:0000cfc8       $unwind$_setenvp           0000000180038fc8     LIBCMT:invarg.obj
 0002:0000cfc8       $unwind$_lseek_nolock      0000000180038fc8     LIBCMT:invarg.obj
 0002:0000cfdc       $unwind$fflush             0000000180038fdc     LIBCMT:fflush.obj
 0002:0000d000       $unwind$flsall             0000000180039000     LIBCMT:fflush.obj
 0002:0000d040       $unwind$setvbuf            0000000180039040     LIBCMT:setvbuf.obj
 0002:0000d06c       $unwind$fwprintf           000000018003906c     LIBCMT:fwprintf.obj
 0002:0000d090       $unwind$_vswprintf_helper  0000000180039090     LIBCMT:vswprnc.obj
 0002:0000d0a8       $unwind$raise              00000001800390a8     LIBCMT:winsig.obj
 0002:0000d0d8       $unwind$__crtMessageBoxW   00000001800390d8     LIBCMT:crtmboxw.obj
 0002:0000d0f4       $unwind$__GSHandlerCheck_EH 00000001800390f4     LIBCMT:crtheap.obj
 0002:0000d0f4       $unwind$__TypeMatch        00000001800390f4     LIBCMT:crtheap.obj
 0002:0000d0f4       $unwind$_calloc_crt        00000001800390f4     LIBCMT:crtheap.obj
 0002:0000d0f4       $unwind$_malloc_crt        00000001800390f4     LIBCMT:crtheap.obj
 0002:0000d0f4       $unwind$GetTableIndexFromLocaleName 00000001800390f4     LIBCMT:crtheap.obj
 0002:0000d0f4       $unwind$_realloc_crt       00000001800390f4     LIBCMT:crtheap.obj
 0002:0000d10c       $unwind$_ctrlfp            000000018003910c     LIBCMT:fpctrl.obj
 0002:0000d134       $unwind$_call_matherr      0000000180039134     LIBCMT:libm_error.obj
 0002:0000d13c       $unwind$_handle_errorf     000000018003913c     LIBCMT:libm_error.obj
 0002:0000d13c       $unwind$_handle_error      000000018003913c     LIBCMT:libm_error.obj
 0002:0000d15c       $unwind$_flsbuf            000000018003915c     LIBCMT:_flsbuf.obj
 0002:0000d170       $unwind$_output_l          0000000180039170     LIBCMT:output.obj
 0002:0000d194       $unwind$write_multi_char   0000000180039194     LIBCMT:output.obj
 0002:0000d194       $unwind$write_multi_char   0000000180039194     LIBCMT:output.obj
 0002:0000d1a8       $unwind$write_string       00000001800391a8     LIBCMT:output.obj
 0002:0000d1a8       $unwind$write_string       00000001800391a8     LIBCMT:output.obj
 0002:0000d1c0       $xdatasym                  00000001800391c0     LIBCMT:memset.obj
 0002:0000d1c4       $unwind$_stbuf             00000001800391c4     LIBCMT:_sftbuf.obj
 0002:0000d1c4       $unwind$_free_osfhnd       00000001800391c4     LIBCMT:_sftbuf.obj
 0002:0000d1d4       $unwind$_ftbuf             00000001800391d4     LIBCMT:_sftbuf.obj
 0002:0000d1dc       $unwind$_getstream         00000001800391dc     LIBCMT:stream.obj
 0002:0000d204       $unwind$_openfile          0000000180039204     LIBCMT:_open.obj
 0002:0000d220       $xdatasym                  0000000180039220     LIBCMT:jmpuwind.obj
 0002:0000d234       $unwind$_read              0000000180039234     LIBCMT:read.obj
 0002:0000d264       $unwind$_read_nolock       0000000180039264     LIBCMT:read.obj
 0002:0000d27c       $unwind$_ftell_nolock      000000018003927c     LIBCMT:ftell.obj
 0002:0000d2a4       $unwind$_lseek             00000001800392a4     LIBCMT:lseek.obj
 0002:0000d2d0       $unwind$_close             00000001800392d0     LIBCMT:close.obj
 0002:0000d2f8       $unwind$__updatetlocinfo   00000001800392f8     LIBCMT:localref.obj
 0002:0000d318       $unwind$__updatetmbcinfo   0000000180039318     LIBCMT:mbctype.obj
 0002:0000d33c       $unwind$_setmbcp           000000018003933c     LIBCMT:mbctype.obj
 0002:0000d36c       $unwind$_setmbcp_nolock    000000018003936c     LIBCMT:mbctype.obj
 0002:0000d38c       $unwind$?setSBUpLow@@YAXPEAUthreadmbcinfostruct@@@Z 000000018003938c     LIBCMT:mbctype.obj
 0002:0000d3a8       $unwind$_tolower_l         00000001800393a8     LIBCMT:tolower.obj
 0002:0000d3b8       $unwind$_freefls           00000001800393b8     LIBCMT:tidtable.obj
 0002:0000d3ec       $unwind$_initptd           00000001800393ec     LIBCMT:tidtable.obj
 0002:0000d420       $unwind$_locterm           0000000180039420     LIBCMT:wsetloca.obj
 0002:0000d440       $unwind$_ioinit            0000000180039440     LIBCMT:ioinit.obj
 0002:0000d488       $unwind$?_GetRangeOfTrysToCheck@@YAPEBU_s_TryBlockMapEntry@@PEA_KPEBU_s_FuncInfo@@HHPEAI2PEAU_xDISPATCHER_CONTEXT@@@Z 0000000180039488     LIBCMT:stdargv.obj
 0002:0000d488       $unwind$parse_cmdline      0000000180039488     LIBCMT:stdargv.obj
 0002:0000d4a4       $unwind$__security_init_cookie 00000001800394a4     LIBCMT:gs_support.obj
 0002:0000d4b0       $unwind$__crtCaptureCurrentContext 00000001800394b0     LIBCMT:winapisupp.obj
 0002:0000d4bc       $unwind$__crtCapturePreviousContext 00000001800394bc     LIBCMT:winapisupp.obj
 0002:0000d4c8       $unwind$__CxxCallCatchBlock 00000001800394c8     LIBCMT:frame.obj
 0002:0000d508       $unwind$__CxxCallCatchBlock$fin$1 0000000180039508     LIBCMT:frame.obj
 0002:0000d514       $unwind$__FrameUnwindToState 0000000180039514     LIBCMT:frame.obj
 0002:0000d550       $unwind$?FindHandler@@YAXPEAUEHExceptionRecord@@PEA_KPEAU_CONTEXT@@PEAU_xDISPATCHER_CONTEXT@@PEBU_s_FuncInfo@@EH1@Z 0000000180039550     LIBCMT:frame.obj
 0002:0000d56c       $unwind$?CatchIt@@YAXPEAUEHExceptionRecord@@PEA_KPEAU_CONTEXT@@PEAU_xDISPATCHER_CONTEXT@@PEBU_s_FuncInfo@@PEBU_s_HandlerType@@PEBU_s_CatchableType@@PEBU_s_TryBlockMapEntry@@H1EE@Z 000000018003956c     LIBCMT:frame.obj
 0002:0000d584       $unwind$__BuildCatchObject 0000000180039584     LIBCMT:frame.obj
 0002:0000d5b0       $unwind$?FindHandlerForForeignException@@YAXPEAUEHExceptionRecord@@PEA_KPEAU_CONTEXT@@PEAU_xDISPATCHER_CONTEXT@@PEBU_s_FuncInfo@@HH1@Z 00000001800395b0     LIBCMT:frame.obj
 0002:0000d5c8       $unwind$__DestructExceptionObject 00000001800395c8     LIBCMT:frame.obj
 0002:0000d5e8       $unwind$?IsInExceptionSpec@@YAEPEAUEHExceptionRecord@@PEBU_s_ESTypeList@@@Z 00000001800395e8     LIBCMT:frame.obj
 0002:0000d604       $unwind$__InternalCxxFrameHandler 0000000180039604     LIBCMT:frame.obj
 0002:0000d61c       $unwind$__BuildCatchObjectHelper 000000018003961c     LIBCMT:frame.obj
 0002:0000d650       $xdatasym                  0000000180039650     LIBCMT:strcmp.obj
 0002:0000d654       $unwind$?_Type_info_dtor@type_info@@CAXPEAV1@@Z 0000000180039654     LIBCMT:typname.obj
 0002:0000d674       $unwind$_cftoe2_l          0000000180039674     LIBCMT:cvt.obj
 0002:0000d690       $unwind$_cftoe_l           0000000180039690     LIBCMT:cvt.obj
 0002:0000d6a8       $unwind$_cftoa_l           00000001800396a8     LIBCMT:cvt.obj
 0002:0000d6c4       $unwind$__crtGetEnvironmentStringsA 00000001800396c4     LIBCMT:cvt.obj
 0002:0000d6c4       $unwind$_cftof2_l          00000001800396c4     LIBCMT:cvt.obj
 0002:0000d6dc       $unwind$_cftof_l           00000001800396dc     LIBCMT:cvt.obj
 0002:0000d6f4       $unwind$_cftog_l           00000001800396f4     LIBCMT:cvt.obj
 0002:0000d70c       $unwind$_mtinitlocknum     000000018003970c     LIBCMT:mlock.obj
 0002:0000d734       $unwind$_IsNonwritableInCurrentImage 0000000180039734     LIBCMT:pesect.obj
 0002:0000d758       $unwind$_fcloseall         0000000180039758     LIBCMT:closeall.obj
 0002:0000d780       $unwind$_commit            0000000180039780     LIBCMT:commit.obj
 0002:0000d7a8       $unwind$_write             00000001800397a8     LIBCMT:write.obj
 0002:0000d7d4       $unwind$_write_nolock      00000001800397d4     LIBCMT:write.obj
 0002:0000d7f8       $unwind$_woutput_l         00000001800397f8     LIBCMT:woutput.obj
 0002:0000d81c       $unwind$__crtLCMapStringEx 000000018003981c     LIBCMT:winapinls.obj
 0002:0000d81c       $unwind$_sopen_nolock      000000018003981c     LIBCMT:winapinls.obj
 0002:0000d830       $xdatasym                  0000000180039830     LIBCMT:fpsr.obj
 0002:0000d838       $unwind$?_Xlength_error@std@@YAXPEBD@Z 0000000180039838     LIBCMT:fpexcept.obj
 0002:0000d838       $unwind$_raise_excf        0000000180039838     LIBCMT:fpexcept.obj
 0002:0000d838       $unwind$_raise_exc         0000000180039838     LIBCMT:fpexcept.obj
 0002:0000d838       $unwind$__initconout       0000000180039838     LIBCMT:fpexcept.obj
 0002:0000d838       $unwind$_cfltcvt           0000000180039838     LIBCMT:fpexcept.obj
 0002:0000d838       $unwind$?_Xbad_alloc@std@@YAXXZ 0000000180039838     LIBCMT:fpexcept.obj
 0002:0000d840       $unwind$_raise_exc_ex      0000000180039840     LIBCMT:fpexcept.obj
 0002:0000d854       $unwind$_lseeki64          0000000180039854     LIBCMT:lseeki64.obj
 0002:0000d880       $unwind$_wctomb_s_l        0000000180039880     LIBCMT:wctomb.obj
 0002:0000d890       $unwind$_sopen_helper      0000000180039890     LIBCMT:open.obj
 0002:0000d8b4       $unwind$_sopen_s           00000001800398b4     LIBCMT:open.obj
 0002:0000d8b4       $unwind$_vswprintf_c_l     00000001800398b4     LIBCMT:open.obj
 0002:0000d8b4       $unwind$fread              00000001800398b4     LIBCMT:open.obj
 0002:0000d8b4       $unwind$wctomb_s           00000001800398b4     LIBCMT:open.obj
 0002:0000d8b4       $unwind$_itow_s            00000001800398b4     LIBCMT:open.obj
 0002:0000d8b4       $unwind$_invalid_parameter_noinfo 00000001800398b4     LIBCMT:open.obj
 0002:0000d8b4       $unwind$_cfltcvt_l         00000001800398b4     LIBCMT:open.obj
 0002:0000d8bc       $unwind$_alloc_osfhnd      00000001800398bc     LIBCMT:osfinfo.obj
 0002:0000d900       $unwind$_set_osfhnd        0000000180039900     LIBCMT:osfinfo.obj
 0002:0000d914       $unwind$__lock_fhandle     0000000180039914     LIBCMT:osfinfo.obj
 0002:0000d940       $xdatasym                  0000000180039940     LIBCMT:chkstk.obj
 0002:0000d948       $unwind$__free_lconv_mon   0000000180039948     LIBCMT:initmon.obj
 0002:0000d948       $unwind$__free_lc_time     0000000180039948     LIBCMT:initmon.obj
 0002:0000d950       $unwind$__crtLCMapStringA  0000000180039950     LIBCMT:a_map.obj
 0002:0000d960       $unwind$?__crtLCMapStringA_stat@@YAHPEAUlocaleinfo_struct@@PEB_WKPEBDHPEADHHH@Z 0000000180039960     LIBCMT:a_map.obj
 0002:0000d988       $unwind$__crtGetStringTypeA 0000000180039988     LIBCMT:a_str.obj
 0002:0000d998       $unwind$?__crtGetStringTypeA_stat@@YAHPEAUlocaleinfo_struct@@KPEBDHPEAGHH@Z 0000000180039998     LIBCMT:a_str.obj
 0002:0000d9c0       $unwind$_isctype_l         00000001800399c0     LIBCMT:isctype.obj
 0002:0000d9d0       $xdatasym                  00000001800399d0     LIBCMT:memcmp.obj
 0002:0000d9d4       $unwind$_stricmp_l         00000001800399d4     LIBCMT:ismbbyte.obj
 0002:0000d9d4       $unwind$?x_ismbbtype_l@@YAHPEAUlocaleinfo_struct@@IHH@Z 00000001800399d4     LIBCMT:ismbbyte.obj
 0002:0000d9e8       $xdatasym                  00000001800399e8     LIBCMT:handlers.obj
 0002:0000d9f0       $unwind$strrchr            00000001800399f0     LIBCMT:strrchr.obj
 0002:0000d9f8       $unwind$_atodbl_l          00000001800399f8     LIBCMT:atodbl.obj
 0002:0000da0c       $unwind$__crt_atoflt_l     0000000180039a0c     LIBCMT:atodbl.obj
 0002:0000da20       $unwind$_fltout2           0000000180039a20     LIBCMT:cfout.obj
 0002:0000da38       $unwind$__dtold            0000000180039a38     LIBCMT:cfout.obj
 0002:0000da40       $unwind$_mbtowc_l          0000000180039a40     LIBCMT:mbtowc.obj
 0002:0000da58       $unwind$__report_gsfailure 0000000180039a58     LIBCMT:putwch.obj
 0002:0000da58       $unwind$_putwch_nolock     0000000180039a58     LIBCMT:putwch.obj
 0002:0000da60       $unwind$_fputwc_nolock     0000000180039a60     LIBCMT:fputwc.obj
 0002:0000da7c       $unwind$_wsopen_nolock     0000000180039a7c     LIBCMT:wopen.obj
 0002:0000da98       $unwind$__createFile       0000000180039a98     LIBCMT:wopen.obj
 0002:0000dab0       $xdatasym                  0000000180039ab0     LIBCMT:strncmp.obj
 0002:0000dab4       $unwind$_mbsnbicmp_l       0000000180039ab4     LIBCMT:strnicmp.obj
 0002:0000dab4       $unwind$_strnicmp_l        0000000180039ab4     LIBCMT:strnicmp.obj
 0002:0000dab4       $unwind$?__SehTransFilter@@YAHPEAU_EXCEPTION_POINTERS@@PEAUEHExceptionRecord@@PEA_KPEAU_CONTEXT@@PEAU_xDISPATCHER_CONTEXT@@PEBU_s_FuncInfo@@PEAH@Z 0000000180039ab4     LIBCMT:strnicmp.obj
 0002:0000dab4       $unwind$_mbsnbcmp_l        0000000180039ab4     LIBCMT:strnicmp.obj
 0002:0000dac8       $unwind$_ld12tod           0000000180039ac8     LIBCMT:intrncvt.obj
 0002:0000dac8       $unwind$_ld12tof           0000000180039ac8     LIBCMT:intrncvt.obj
 0002:0000daec       $unwind$__strgtold12_l     0000000180039aec     LIBCMT:strgtold.obj
 0002:0000db10       $unwind$$I10_OUTPUT        0000000180039b10     LIBCMT:x10fout.obj
 0002:0000db34       $unwind$_flswbuf           0000000180039b34     LIBCMT:_flswbuf.obj
 0002:0000db48       $unwind$_chsize_nolock     0000000180039b48     LIBCMT:chsize.obj
 0002:0000db64       $unwind$_setmode_nolock    0000000180039b64     LIBCMT:setmode.obj
 0002:0000db70       $unwind$__mtold12          0000000180039b70     LIBCMT:mantold.obj
 0002:0000db88       $unwind$__delayLoadHelper2 0000000180039b88     DelayImp:delayhlp.obj
 0002:0000dba0       $unwind$_strdup            0000000180039ba0     LIBCMT:strdup.obj
 0002:0000dbb0       $xdatasym                  0000000180039bb0     LIBCMT:setjmp.obj
 0002:0000dbb4       $unwind$acos               0000000180039bb4     LIBCMT:acos.obj
 0002:0000dbc0       $unwind$acosf              0000000180039bc0     LIBCMT:acosf.obj
 0002:0000dbcc       $unwind$_sincos_special    0000000180039bcc     LIBCMT:floor.obj
 0002:0000dbcc       $unwind$floor              0000000180039bcc     LIBCMT:floor.obj
 0002:0000dbd4       $unwind$fmodf              0000000180039bd4     LIBCMT:fmodf.obj
 0002:0000dbdc       $unwind$sqrtf              0000000180039bdc     LIBCMT:sqrtf.obj
 0002:0000dbe8       $xdatasym                  0000000180039be8     LIBCMT:tan.obj
 0002:0000dc08       $xdatasym                  0000000180039c08     LIBCMT:remainder_piby2_forFMA3.obj
 0002:0000dc18       $xdatasym                  0000000180039c18     LIBCMT:remainder_piby2_forAsm.obj
 0002:000104b0       .edata                     000000018003c4b0     canvas.exp
 0002:000104d8       rgpv                       000000018003c4d8     canvas.exp
 0002:000108e8       rgszName                   000000018003c8e8     canvas.exp
 0002:00010cf8       rgwOrd                     000000018003ccf8     canvas.exp
 0002:00010f00       szName                     000000018003cf00     canvas.exp
 0002:00010f0c       $N00001                    000000018003cf0c     canvas.exp
 0002:00010f39       $N00002                    000000018003cf39     canvas.exp
 0002:00010f5e       $N00003                    000000018003cf5e     canvas.exp
 0002:00010f87       $N00004                    000000018003cf87     canvas.exp
 0002:00010fab       $N00005                    000000018003cfab     canvas.exp
 0002:00010fd5       $N00006                    000000018003cfd5     canvas.exp
 0002:00011003       $N00007                    000000018003d003     canvas.exp
 0002:00011029       $N00008                    000000018003d029     canvas.exp
 0002:0001105d       $N00009                    000000018003d05d     canvas.exp
 0002:00011094       $N00010                    000000018003d094     canvas.exp
 0002:000110c5       $N00011                    000000018003d0c5     canvas.exp
 0002:000110f3       $N00012                    000000018003d0f3     canvas.exp
 0002:0001111a       $N00013                    000000018003d11a     canvas.exp
 0002:00011155       $N00014                    000000018003d155     canvas.exp
 0002:00011188       $N00015                    000000018003d188     canvas.exp
 0002:000111b5       $N00016                    000000018003d1b5     canvas.exp
 0002:000111e6       $N00017                    000000018003d1e6     canvas.exp
 0002:00011201       $N00018                    000000018003d201     canvas.exp
 0002:00011225       $N00019                    000000018003d225     canvas.exp
 0002:00011253       $N00020                    000000018003d253     canvas.exp
 0002:0001127a       $N00021                    000000018003d27a     canvas.exp
 0002:0001129e       $N00022                    000000018003d29e     canvas.exp
 0002:000112c4       $N00023                    000000018003d2c4     canvas.exp
 0002:000112e9       $N00024                    000000018003d2e9     canvas.exp
 0002:0001130d       $N00025                    000000018003d30d     canvas.exp
 0002:00011326       $N00026                    000000018003d326     canvas.exp
 0002:0001135a       $N00027                    000000018003d35a     canvas.exp
 0002:0001138b       $N00028                    000000018003d38b     canvas.exp
 0002:000113b2       $N00029                    000000018003d3b2     canvas.exp
 0002:000113e5       $N00030                    000000018003d3e5     canvas.exp
 0002:00011412       $N00031                    000000018003d412     canvas.exp
 0002:00011443       $N00032                    000000018003d443     canvas.exp
 0002:0001146a       $N00033                    000000018003d46a     canvas.exp
 0002:00011487       $N00034                    000000018003d487     canvas.exp
 0002:000114b5       $N00035                    000000018003d4b5     canvas.exp
 0002:000114e9       $N00036                    000000018003d4e9     canvas.exp
 0002:0001150b       $N00037                    000000018003d50b     canvas.exp
 0002:00011533       $N00038                    000000018003d533     canvas.exp
 0002:0001155f       $N00039                    000000018003d55f     canvas.exp
 0002:00011583       $N00040                    000000018003d583     canvas.exp
 0002:000115ad       $N00041                    000000018003d5ad     canvas.exp
 0002:000115e0       $N00042                    000000018003d5e0     canvas.exp
 0002:00011619       $N00043                    000000018003d619     canvas.exp
 0002:0001163d       $N00044                    000000018003d63d     canvas.exp
 0002:0001165e       $N00045                    000000018003d65e     canvas.exp
 0002:00011683       $N00046                    000000018003d683     canvas.exp
 0002:000116a4       $N00047                    000000018003d6a4     canvas.exp
 0002:000116ca       $N00048                    000000018003d6ca     canvas.exp
 0002:000116ef       $N00049                    000000018003d6ef     canvas.exp
 0002:00011723       $N00050                    000000018003d723     canvas.exp
 0002:00011765       $N00051                    000000018003d765     canvas.exp
 0002:0001178e       $N00052                    000000018003d78e     canvas.exp
 0002:000117b7       $N00053                    000000018003d7b7     canvas.exp
 0002:000117dc       $N00054                    000000018003d7dc     canvas.exp
 0002:00011809       $N00055                    000000018003d809     canvas.exp
 0002:0001183a       $N00056                    000000018003d83a     canvas.exp
 0002:0001186a       $N00057                    000000018003d86a     canvas.exp
 0002:00011895       $N00058                    000000018003d895     canvas.exp
 0002:000118bc       $N00059                    000000018003d8bc     canvas.exp
 0002:000118de       $N00060                    000000018003d8de     canvas.exp
 0002:00011905       $N00061                    000000018003d905     canvas.exp
 0002:0001192b       $N00062                    000000018003d92b     canvas.exp
 0002:0001194f       $N00063                    000000018003d94f     canvas.exp
 0002:00011970       $N00064                    000000018003d970     canvas.exp
 0002:00011990       $N00065                    000000018003d990     canvas.exp
 0002:000119b4       $N00066                    000000018003d9b4     canvas.exp
 0002:000119d5       $N00067                    000000018003d9d5     canvas.exp
 0002:000119ff       $N00068                    000000018003d9ff     canvas.exp
 0002:00011a22       $N00069                    000000018003da22     canvas.exp
 0002:00011a4b       $N00070                    000000018003da4b     canvas.exp
 0002:00011a6e       $N00071                    000000018003da6e     canvas.exp
 0002:00011a99       $N00072                    000000018003da99     canvas.exp
 0002:00011acd       $N00073                    000000018003dacd     canvas.exp
 0002:00011af3       $N00074                    000000018003daf3     canvas.exp
 0002:00011b17       $N00075                    000000018003db17     canvas.exp
 0002:00011b3a       $N00076                    000000018003db3a     canvas.exp
 0002:00011b69       $N00077                    000000018003db69     canvas.exp
 0002:00011b99       $N00078                    000000018003db99     canvas.exp
 0002:00011bbc       $N00079                    000000018003dbbc     canvas.exp
 0002:00011be7       $N00080                    000000018003dbe7     canvas.exp
 0002:00011c07       $N00081                    000000018003dc07     canvas.exp
 0002:00011c35       $N00082                    000000018003dc35     canvas.exp
 0002:00011c5b       $N00083                    000000018003dc5b     canvas.exp
 0002:00011c82       $N00084                    000000018003dc82     canvas.exp
 0002:00011ca9       $N00085                    000000018003dca9     canvas.exp
 0002:00011cd1       $N00086                    000000018003dcd1     canvas.exp
 0002:00011cf4       $N00087                    000000018003dcf4     canvas.exp
 0002:00011d1d       $N00088                    000000018003dd1d     canvas.exp
 0002:00011d40       $N00089                    000000018003dd40     canvas.exp
 0002:00011d69       $N00090                    000000018003dd69     canvas.exp
 0002:00011d8e       $N00091                    000000018003dd8e     canvas.exp
 0002:00011db5       $N00092                    000000018003ddb5     canvas.exp
 0002:00011ddc       $N00093                    000000018003dddc     canvas.exp
 0002:00011e04       $N00094                    000000018003de04     canvas.exp
 0002:00011e27       $N00095                    000000018003de27     canvas.exp
 0002:00011e4f       $N00096                    000000018003de4f     canvas.exp
 0002:00011e76       $N00097                    000000018003de76     canvas.exp
 0002:00011ea4       $N00098                    000000018003dea4     canvas.exp
 0002:00011ece       $N00099                    000000018003dece     canvas.exp
 0002:00011ef3       $N00100                    000000018003def3     canvas.exp
 0002:00011f12       $N00101                    000000018003df12     canvas.exp
 0002:00011f34       $N00102                    000000018003df34     canvas.exp
 0002:00011f57       $N00103                    000000018003df57     canvas.exp
 0002:00011f7a       $N00104                    000000018003df7a     canvas.exp
 0002:00011f99       $N00105                    000000018003df99     canvas.exp
 0002:00011fb8       $N00106                    000000018003dfb8     canvas.exp
 0002:00011fda       $N00107                    000000018003dfda     canvas.exp
 0002:00011ff0       $N00108                    000000018003dff0     canvas.exp
 0002:00012021       $N00109                    000000018003e021     canvas.exp
 0002:0001204f       $N00110                    000000018003e04f     canvas.exp
 0002:00012073       $N00111                    000000018003e073     canvas.exp
 0002:000120a3       $N00112                    000000018003e0a3     canvas.exp
 0002:000120cd       $N00113                    000000018003e0cd     canvas.exp
 0002:000120fb       $N00114                    000000018003e0fb     canvas.exp
 0002:0001211f       $N00115                    000000018003e11f     canvas.exp
 0002:00012177       $N00116                    000000018003e177     canvas.exp
 0002:000121d0       $N00117                    000000018003e1d0     canvas.exp
 0002:0001220e       $N00118                    000000018003e20e     canvas.exp
 0002:0001223c       $N00119                    000000018003e23c     canvas.exp
 0002:00012270       $N00120                    000000018003e270     canvas.exp
 0002:000122a5       $N00121                    000000018003e2a5     canvas.exp
 0002:000122cd       $N00122                    000000018003e2cd     canvas.exp
 0002:000122fb       $N00123                    000000018003e2fb     canvas.exp
 0002:0001232d       $N00124                    000000018003e32d     canvas.exp
 0002:00012357       $N00125                    000000018003e357     canvas.exp
 0002:00012387       $N00126                    000000018003e387     canvas.exp
 0002:000123b2       $N00127                    000000018003e3b2     canvas.exp
 0002:000123d9       $N00128                    000000018003e3d9     canvas.exp
 0002:00012404       $N00129                    000000018003e404     canvas.exp
 0002:00012433       $N00130                    000000018003e433     canvas.exp
 0002:00012462       $N00131                    000000018003e462     canvas.exp
 0002:0001248d       $N00132                    000000018003e48d     canvas.exp
 0002:000124ba       $N00133                    000000018003e4ba     canvas.exp
 0002:000124e2       $N00134                    000000018003e4e2     canvas.exp
 0002:0001250f       $N00135                    000000018003e50f     canvas.exp
 0002:0001253b       $N00136                    000000018003e53b     canvas.exp
 0002:00012565       $N00137                    000000018003e565     canvas.exp
 0002:0001258b       $N00138                    000000018003e58b     canvas.exp
 0002:000125b2       $N00139                    000000018003e5b2     canvas.exp
 0002:000125db       $N00140                    000000018003e5db     canvas.exp
 0002:0001260a       $N00141                    000000018003e60a     canvas.exp
 0002:00012633       $N00142                    000000018003e633     canvas.exp
 0002:0001265d       $N00143                    000000018003e65d     canvas.exp
 0002:00012686       $N00144                    000000018003e686     canvas.exp
 0002:000126ba       $N00145                    000000018003e6ba     canvas.exp
 0002:000126e0       $N00146                    000000018003e6e0     canvas.exp
 0002:00012714       $N00147                    000000018003e714     canvas.exp
 0002:0001273d       $N00148                    000000018003e73d     canvas.exp
 0002:0001276c       $N00149                    000000018003e76c     canvas.exp
 0002:00012795       $N00150                    000000018003e795     canvas.exp
 0002:000127c4       $N00151                    000000018003e7c4     canvas.exp
 0002:000127f1       $N00152                    000000018003e7f1     canvas.exp
 0002:0001281f       $N00153                    000000018003e81f     canvas.exp
 0002:00012848       $N00154                    000000018003e848     canvas.exp
 0002:00012876       $N00155                    000000018003e876     canvas.exp
 0002:000128a3       $N00156                    000000018003e8a3     canvas.exp
 0002:000128d7       $N00157                    000000018003e8d7     canvas.exp
 0002:00012901       $N00158                    000000018003e901     canvas.exp
 0002:00012931       $N00159                    000000018003e931     canvas.exp
 0002:00012968       $N00160                    000000018003e968     canvas.exp
 0002:000129a7       $N00161                    000000018003e9a7     canvas.exp
 0002:000129e2       $N00162                    000000018003e9e2     canvas.exp
 0002:00012a1d       $N00163                    000000018003ea1d     canvas.exp
 0002:00012a7a       $N00164                    000000018003ea7a     canvas.exp
 0002:00012a9b       $N00165                    000000018003ea9b     canvas.exp
 0002:00012ad9       $N00166                    000000018003ead9     canvas.exp
 0002:00012b24       $N00167                    000000018003eb24     canvas.exp
 0002:00012b88       $N00168                    000000018003eb88     canvas.exp
 0002:00012ba2       $N00169                    000000018003eba2     canvas.exp
 0002:00012be0       $N00170                    000000018003ebe0     canvas.exp
 0002:00012c11       $N00171                    000000018003ec11     canvas.exp
 0002:00012c8b       $N00172                    000000018003ec8b     canvas.exp
 0002:00012cb3       $N00173                    000000018003ecb3     canvas.exp
 0002:00012cfc       $N00174                    000000018003ecfc     canvas.exp
 0002:00012d12       $N00175                    000000018003ed12     canvas.exp
 0002:00012d46       $N00176                    000000018003ed46     canvas.exp
 0002:00012d61       $N00177                    000000018003ed61     canvas.exp
 0002:00012d7e       $N00178                    000000018003ed7e     canvas.exp
 0002:00012d9e       $N00179                    000000018003ed9e     canvas.exp
 0002:00012dd5       $N00180                    000000018003edd5     canvas.exp
 0002:00012e16       $N00181                    000000018003ee16     canvas.exp
 0002:00012e6f       $N00182                    000000018003ee6f     canvas.exp
 0002:00012e8f       $N00183                    000000018003ee8f     canvas.exp
 0002:00012eb1       $N00184                    000000018003eeb1     canvas.exp
 0002:00012ed6       $N00185                    000000018003eed6     canvas.exp
 0002:00012f22       $N00186                    000000018003ef22     canvas.exp
 0002:00012f6e       $N00187                    000000018003ef6e     canvas.exp
 0002:00012fc7       $N00188                    000000018003efc7     canvas.exp
 0002:00013022       $N00189                    000000018003f022     canvas.exp
 0002:00013064       $N00190                    000000018003f064     canvas.exp
 0002:000130bc       $N00191                    000000018003f0bc     canvas.exp
 0002:00013118       $N00192                    000000018003f118     canvas.exp
 0002:0001313a       $N00193                    000000018003f13a     canvas.exp
 0002:000131b1       $N00194                    000000018003f1b1     canvas.exp
 0002:000131df       $N00195                    000000018003f1df     canvas.exp
 0002:000132f8       $N00196                    000000018003f2f8     canvas.exp
 0002:00013327       $N00197                    000000018003f327     canvas.exp
 0002:0001335e       $N00198                    000000018003f35e     canvas.exp
 0002:00013399       $N00199                    000000018003f399     canvas.exp
 0002:000133cc       $N00200                    000000018003f3cc     canvas.exp
 0002:00013403       $N00201                    000000018003f403     canvas.exp
 0002:00013438       $N00202                    000000018003f438     canvas.exp
 0002:0001346d       $N00203                    000000018003f46d     canvas.exp
 0002:000134a2       $N00204                    000000018003f4a2     canvas.exp
 0002:000134d7       $N00205                    000000018003f4d7     canvas.exp
 0002:0001351a       $N00206                    000000018003f51a     canvas.exp
 0002:0001356b       $N00207                    000000018003f56b     canvas.exp
 0002:000135c6       $N00208                    000000018003f5c6     canvas.exp
 0002:00013619       $N00209                    000000018003f619     canvas.exp
 0002:0001365e       $N00210                    000000018003f65e     canvas.exp
 0002:000136e6       $N00211                    000000018003f6e6     canvas.exp
 0002:0001370a       $N00212                    000000018003f70a     canvas.exp
 0002:0001373a       $N00213                    000000018003f73a     canvas.exp
 0002:0001376c       $N00214                    000000018003f76c     canvas.exp
 0002:000137a3       $N00215                    000000018003f7a3     canvas.exp
 0002:000137cd       $N00216                    000000018003f7cd     canvas.exp
 0002:000137f5       $N00217                    000000018003f7f5     canvas.exp
 0002:00013823       $N00218                    000000018003f823     canvas.exp
 0002:00013850       $N00219                    000000018003f850     canvas.exp
 0002:0001388f       $N00220                    000000018003f88f     canvas.exp
 0002:000138b8       $N00221                    000000018003f8b8     canvas.exp
 0002:000138e5       $N00222                    000000018003f8e5     canvas.exp
 0002:00013914       $N00223                    000000018003f914     canvas.exp
 0002:0001392f       $N00224                    000000018003f92f     canvas.exp
 0002:0001394e       $N00225                    000000018003f94e     canvas.exp
 0002:00013971       $N00226                    000000018003f971     canvas.exp
 0002:00013994       $N00227                    000000018003f994     canvas.exp
 0002:000139b5       $N00228                    000000018003f9b5     canvas.exp
 0002:000139ec       $N00229                    000000018003f9ec     canvas.exp
 0002:00013a11       $N00230                    000000018003fa11     canvas.exp
 0002:00013a32       $N00231                    000000018003fa32     canvas.exp
 0002:00013a69       $N00232                    000000018003fa69     canvas.exp
 0002:00013a9e       $N00233                    000000018003fa9e     canvas.exp
 0002:00013ad2       $N00234                    000000018003fad2     canvas.exp
 0002:00013b07       $N00235                    000000018003fb07     canvas.exp
 0002:00013b26       $N00236                    000000018003fb26     canvas.exp
 0002:00013b56       $N00237                    000000018003fb56     canvas.exp
 0002:00013b85       $N00238                    000000018003fb85     canvas.exp
 0002:00013bba       $N00239                    000000018003fbba     canvas.exp
 0002:00013beb       $N00240                    000000018003fbeb     canvas.exp
 0002:00013c21       $N00241                    000000018003fc21     canvas.exp
 0002:00013c4a       $N00242                    000000018003fc4a     canvas.exp
 0002:00013c81       $N00243                    000000018003fc81     canvas.exp
 0002:00013cbd       $N00244                    000000018003fcbd     canvas.exp
 0002:00013cf7       $N00245                    000000018003fcf7     canvas.exp
 0002:00013d30       $N00246                    000000018003fd30     canvas.exp
 0002:00013d6a       $N00247                    000000018003fd6a     canvas.exp
 0002:00013d9f       $N00248                    000000018003fd9f     canvas.exp
 0002:00013de7       $N00249                    000000018003fde7     canvas.exp
 0002:00013e0d       $N00250                    000000018003fe0d     canvas.exp
 0002:00013e44       $N00251                    000000018003fe44     canvas.exp
 0002:00013e73       $N00252                    000000018003fe73     canvas.exp
 0002:00013ea0       $N00253                    000000018003fea0     canvas.exp
 0002:00013ed2       $N00254                    000000018003fed2     canvas.exp
 0002:00013f02       $N00255                    000000018003ff02     canvas.exp
 0002:00013f34       $N00256                    000000018003ff34     canvas.exp
 0002:00013f61       $N00257                    000000018003ff61     canvas.exp
 0002:00013f99       $N00258                    000000018003ff99     canvas.exp
 0002:00013fca       $N00259                    000000018003ffca     canvas.exp
 0002:00013ff6       $N00260                    000000018003fff6     canvas.exp
 0002:00014634       .idata$6                   0000000180040634     kernel32:KERNEL32.dll
 0002:00014eb6       .idata$6                   0000000180040eb6     cairo:libcairo-2.dll
 0002:0001503e       .idata$6                   000000018004103e     libpng:libpng14-14.dll
 0003:00000080       _assertstring              0000000180042080     LIBCMT:wassert.obj
 0003:000000d0       dotdotdot                  00000001800420d0     LIBCMT:wassert.obj
 0003:000000d8       newline                    00000001800420d8     LIBCMT:wassert.obj
 0003:000000e0       dblnewline                 00000001800420e0     LIBCMT:wassert.obj
 0003:00000110       errtable                   0000000180042110     LIBCMT:dosmap.obj
 0003:00000278       ErrnoNoMem                 0000000180042278     LIBCMT:dosmap.obj
 0003:0000027c       DoserrorNoMem              000000018004227c     LIBCMT:dosmap.obj
 0003:00000650       ?dazSupported@?1??_ctrlfp@@9@9 0000000180042650     LIBCMT:fpctrl.obj
 0003:00000ba8       __rgctypeflag              0000000180042ba8     LIBCMT:mbctype.obj
 0003:00000bb0       __rgcode_page_info         0000000180042bb0     LIBCMT:mbctype.obj
 0003:000010f0       _ctype_loc_style           00000001800430f0     LIBCMT:wsetloca.obj
 0003:00001158       ?isPackaged@?1??__crtIsPackagedApp@@9@9 0000000180043158     LIBCMT:winapisupp.obj
 0003:000011b0       _locktable                 00000001800431b0     LIBCMT:mlock.obj
 0003:000013f0       ?_names@?1??_get_fname@@9@9 00000001800433f0     LIBCMT:fpexcept.obj
 0003:000016c0       DoubleFormat               00000001800436c0     LIBCMT:intrncvt.obj
 0003:000016d8       FloatFormat                00000001800436d8     LIBCMT:intrncvt.obj
 0003:000019d0       _module                    00000001800439d0     init.obj
 0003:00001ec8       allocator_arg              0000000180043ec8     libcpmt:syserror.obj
 0003:00001ec9       piecewise_construct        0000000180043ec9     libcpmt:syserror.obj
 0003:00001eca       _Tuple_alloc               0000000180043eca     libcpmt:xthrow.obj
 0003:00001ecb       ignore                     0000000180043ecb     libcpmt:xthrow.obj
 0003:00001ecc       allocator_arg              0000000180043ecc     libcpmt:xthrow.obj
 0003:00001ecd       piecewise_construct        0000000180043ecd     libcpmt:xthrow.obj
 0003:00001ed8       __enable_percent_n         0000000180043ed8     LIBCMT:printf.obj
 0003:00001ee0       __proc_attached            0000000180043ee0     LIBCMT:dllcrt0.obj
 0003:00001f00       GS_ExceptionRecord         0000000180043f00     LIBCMT:gs_report.obj
 0003:00001fa0       GS_ContextRecord           0000000180043fa0     LIBCMT:gs_report.obj
 0003:00002470       DebuggerWasPresent         0000000180044470     LIBCMT:gs_report.obj
 0003:000024f0       ?outmsg@?8??_NMSG_WRITE@@9@9 00000001800444f0     LIBCMT:crt0msg.obj
 0003:00002b38       ctrlc_action               0000000180044b38     LIBCMT:winsig.obj
 0003:00002b40       ctrlbreak_action           0000000180044b40     LIBCMT:winsig.obj
 0003:00002b48       abort_action               0000000180044b48     LIBCMT:winsig.obj
 0003:00002b50       term_action                0000000180044b50     LIBCMT:winsig.obj
 0003:00002b58       ConsoleCtrlHandler_Installed 0000000180044b58     LIBCMT:winsig.obj
 0003:00002b60       ?pfnMessageBox@?1??__crtMessageBoxW@@9@9 0000000180044b60     LIBCMT:crtmboxw.obj
 0003:00002b68       ?pfnGetActiveWindow@?1??__crtMessageBoxW@@9@9 0000000180044b68     LIBCMT:crtmboxw.obj
 0003:00002b70       ?pfnGetLastActivePopup@?1??__crtMessageBoxW@@9@9 0000000180044b70     LIBCMT:crtmboxw.obj
 0003:00002b78       ?pfnGetProcessWindowStation@?1??__crtMessageBoxW@@9@9 0000000180044b78     LIBCMT:crtmboxw.obj
 0003:00002b80       ?pfnGetUserObjectInformation@?1??__crtMessageBoxW@@9@9 0000000180044b80     LIBCMT:crtmboxw.obj
 0003:00002bc8       fSystemSet                 0000000180044bc8     LIBCMT:mbctype.obj
 0003:00002dd0       ?_pgmname@?1??_setargv@@9@9 0000000180044dd0     LIBCMT:stdargv.obj
 0003:00002ee0       __type_info_root_node      0000000180044ee0     LIBCMT:typname.obj
 0003:00002ef0       lclcritsects               0000000180044ef0     LIBCMT:mlock.obj
 0003:00003120       g_pfnRtlGenRandom          0000000180045120     LIBCMT:rand_s.obj
 0003:00003128       __crtCallProc              0000000180045128     LIBCMT:winapinls.obj
 0003:00003188       heap                       0000000180045188     LIBCMT:undname.obj
 0003:000031e8       allocator_arg              00000001800451e8     Canvas.obj
 0003:000031e9       piecewise_construct        00000001800451e9     Canvas.obj
 0003:000031ea       allocator_arg              00000001800451ea     CanvasGradient.obj
 0003:000031eb       piecewise_construct        00000001800451eb     CanvasGradient.obj
 0003:000031ec       allocator_arg              00000001800451ec     CanvasPattern.obj
 0003:000031ed       piecewise_construct        00000001800451ed     CanvasPattern.obj
 0003:000031ee       allocator_arg              00000001800451ee     CanvasRenderingContext2d.obj
 0003:000031ef       piecewise_construct        00000001800451ef     CanvasRenderingContext2d.obj
 0003:00003208       allocator_arg              0000000180045208     Image.obj
 0003:00003209       piecewise_construct        0000000180045209     Image.obj
 0003:0000320a       allocator_arg              000000018004520a     ImageData.obj
 0003:0000320b       piecewise_construct        000000018004520b     ImageData.obj
 0003:0000320c       allocator_arg              000000018004520c     init.obj
 0003:0000320d       piecewise_construct        000000018004520d     init.obj
 0004:00000000       $pdata$?GetId@Script@v8@@QEAAHXZ 0000000180047000     Canvas.obj
 0004:0000000c       $pdata$??_EExternalSourceStream@ScriptCompiler@v8@@UEAAPEAXI@Z 000000018004700c     Canvas.obj
 0004:00000018       $pdata$0$??_EExternalSourceStream@ScriptCompiler@v8@@UEAAPEAXI@Z 0000000180047018     Canvas.obj
 0004:00000024       $pdata$1$??_EExternalSourceStream@ScriptCompiler@v8@@UEAAPEAXI@Z 0000000180047024     Canvas.obj
 0004:00000030       $pdata$??_EExternalOneByteStringResource@String@v8@@UEAAPEAXI@Z 0000000180047030     Canvas.obj
 0004:00000030       $pdata$??_EExternalStringResourceBase@String@v8@@UEAAPEAXI@Z 0000000180047030     Canvas.obj
 0004:00000030       $pdata$??_EExternalStringResource@String@v8@@UEAAPEAXI@Z 0000000180047030     Canvas.obj
 0004:0000003c       $pdata$0$??_EExternalStringResource@String@v8@@UEAAPEAXI@Z 000000018004703c     Canvas.obj
 0004:0000003c       $pdata$0$??_EExternalStringResourceBase@String@v8@@UEAAPEAXI@Z 000000018004703c     Canvas.obj
 0004:0000003c       $pdata$0$??_EExternalOneByteStringResource@String@v8@@UEAAPEAXI@Z 000000018004703c     Canvas.obj
 0004:00000048       $pdata$1$??_EExternalStringResource@String@v8@@UEAAPEAXI@Z 0000000180047048     Canvas.obj
 0004:00000048       $pdata$1$??_EExternalOneByteStringResource@String@v8@@UEAAPEAXI@Z 0000000180047048     Canvas.obj
 0004:00000048       $pdata$1$??_EExternalStringResourceBase@String@v8@@UEAAPEAXI@Z 0000000180047048     Canvas.obj
 0004:00000054       $pdata$?NewInstance@Function@v8@@QEBA?AV?$MaybeLocal@VObject@v8@@@2@V?$Local@VContext@v8@@@2@@Z 0000000180047054     Canvas.obj
 0004:00000060       $pdata$??_EAllocator@ArrayBuffer@v8@@UEAAPEAXI@Z 0000000180047060     Canvas.obj
 0004:0000006c       $pdata$0$??_EAllocator@ArrayBuffer@v8@@UEAAPEAXI@Z 000000018004706c     Canvas.obj
 0004:00000078       $pdata$1$??_EAllocator@ArrayBuffer@v8@@UEAAPEAXI@Z 0000000180047078     Canvas.obj
 0004:00000084       $pdata$?SetIndexedPropertyHandler@ObjectTemplate@v8@@QEAAXP6AXIAEBV?$PropertyCallbackInfo@VValue@v8@@@2@@ZP6AXIV?$Local@VValue@v8@@@2@0@ZP6AXIAEBV?$PropertyCallbackInfo@VInteger@v8@@@2@@ZP6AXIAEBV?$PropertyCallbackInfo@VBoolean@v8@@@2@@ZP6AXAEBV?$PropertyCallbackInfo@VArray@v8@@@2@@Z2@Z 0000000180047084     Canvas.obj
 0004:00000090       $pdata$??_EExternalOneByteStringResourceImpl@v8@@UEAAPEAXI@Z 0000000180047090     Canvas.obj
 0004:0000009c       $pdata$0$??_EExternalOneByteStringResourceImpl@v8@@UEAAPEAXI@Z 000000018004709c     Canvas.obj
 0004:000000a8       $pdata$1$??_EExternalOneByteStringResourceImpl@v8@@UEAAPEAXI@Z 00000001800470a8     Canvas.obj
 0004:000000b4       $pdata$??_EExtension@v8@@UEAAPEAXI@Z 00000001800470b4     Canvas.obj
 0004:000000c0       $pdata$0$??_EExtension@v8@@UEAAPEAXI@Z 00000001800470c0     Canvas.obj
 0004:000000cc       $pdata$1$??_EExtension@v8@@UEAAPEAXI@Z 00000001800470cc     Canvas.obj
 0004:000000d8       $pdata$??_EExternalResourceVisitor@v8@@UEAAPEAXI@Z 00000001800470d8     Canvas.obj
 0004:000000d8       $pdata$??_EPersistentHandleVisitor@v8@@UEAAPEAXI@Z 00000001800470d8     Canvas.obj
 0004:000000e4       $pdata$0$??_EPersistentHandleVisitor@v8@@UEAAPEAXI@Z 00000001800470e4     Canvas.obj
 0004:000000e4       $pdata$0$??_EExternalResourceVisitor@v8@@UEAAPEAXI@Z 00000001800470e4     Canvas.obj
 0004:000000f0       $pdata$1$??_EPersistentHandleVisitor@v8@@UEAAPEAXI@Z 00000001800470f0     Canvas.obj
 0004:000000f0       $pdata$1$??_EExternalResourceVisitor@v8@@UEAAPEAXI@Z 00000001800470f0     Canvas.obj
 0004:000000fc       $pdata$??0Scope@Isolate@v8@@QEAA@PEAV12@@Z 00000001800470fc     Canvas.obj
 0004:00000108       $pdata$??0Unlocker@v8@@QEAA@PEAVIsolate@1@@Z 0000000180047108     Canvas.obj
 0004:00000114       $pdata$??0Locker@v8@@QEAA@PEAVIsolate@1@@Z 0000000180047114     Canvas.obj
 0004:00000120       $pdata$?Set@Template@v8@@QEAAXPEAVIsolate@2@PEBDV?$Local@VData@v8@@@2@@Z 0000000180047120     Canvas.obj
 0004:0000012c       $pdata$?GetInternalField@Object@v8@@QEAA?AV?$Local@VValue@v8@@@2@H@Z 000000018004712c     Canvas.obj
 0004:00000138       $pdata$?ToBoolean@Value@v8@@QEBA?AV?$Local@VBoolean@v8@@@2@XZ 0000000180047138     Canvas.obj
 0004:00000144       $pdata$?ToNumber@Value@v8@@QEBA?AV?$Local@VNumber@v8@@@2@XZ 0000000180047144     Canvas.obj
 0004:00000150       $pdata$?ToString@Value@v8@@QEBA?AV?$Local@VString@v8@@@2@XZ 0000000180047150     Canvas.obj
 0004:0000015c       $pdata$?ToDetailString@Value@v8@@QEBA?AV?$Local@VString@v8@@@2@XZ 000000018004715c     Canvas.obj
 0004:00000168       $pdata$?ToObject@Value@v8@@QEBA?AV?$Local@VObject@v8@@@2@XZ 0000000180047168     Canvas.obj
 0004:00000174       $pdata$?ToInteger@Value@v8@@QEBA?AV?$Local@VInteger@v8@@@2@XZ 0000000180047174     Canvas.obj
 0004:00000180       $pdata$?ToUint32@Value@v8@@QEBA?AV?$Local@VUint32@v8@@@2@XZ 0000000180047180     Canvas.obj
 0004:0000018c       $pdata$?ToInt32@Value@v8@@QEBA?AV?$Local@VInt32@v8@@@2@XZ 000000018004718c     Canvas.obj
 0004:00000198       $pdata$?AdjustAmountOfExternalAllocatedMemory@Isolate@v8@@QEAA_J_J@Z 0000000180047198     Canvas.obj
 0004:000001a4       $pdata$?GetEmbedderData@Context@v8@@QEAA?AV?$Local@VValue@v8@@@2@H@Z 00000001800471a4     Canvas.obj
 0004:000001b0       $pdata$?SetAllowCodeGenerationFromStringsCallback@V8@v8@@SAXP6A_NV?$Local@VContext@v8@@@2@@Z@Z 00000001800471b0     Canvas.obj
 0004:000001bc       $pdata$?IsDead@V8@v8@@SA_NXZ 00000001800471bc     Canvas.obj
 0004:000001c8       $pdata$?AddMessageListener@V8@v8@@SA_NP6AXV?$Local@VMessage@v8@@@2@V?$Local@VValue@v8@@@2@@Z1@Z 00000001800471c8     Canvas.obj
 0004:000001d4       $pdata$?RemoveMessageListeners@V8@v8@@SAXP6AXV?$Local@VMessage@v8@@@2@V?$Local@VValue@v8@@@2@@Z@Z 00000001800471d4     Canvas.obj
 0004:000001e0       $pdata$?SetFailedAccessCheckCallbackFunction@V8@v8@@SAXP6AXV?$Local@VObject@v8@@@2@W4AccessType@2@V?$Local@VValue@v8@@@2@@Z@Z 00000001800471e0     Canvas.obj
 0004:000001ec       $pdata$?SetCaptureStackTraceForUncaughtExceptions@V8@v8@@SAX_NHW4StackTraceOptions@StackTrace@2@@Z 00000001800471ec     Canvas.obj
 0004:000001f8       $pdata$?SetFatalErrorHandler@V8@v8@@SAXP6AXPEBD0@Z@Z 00000001800471f8     Canvas.obj
 0004:00000204       $pdata$?RemoveGCPrologueCallback@V8@v8@@SAXP6AXW4GCType@2@W4GCCallbackFlags@2@@Z@Z 0000000180047204     Canvas.obj
 0004:00000210       $pdata$?RemoveGCEpilogueCallback@V8@v8@@SAXP6AXW4GCType@2@W4GCCallbackFlags@2@@Z@Z 0000000180047210     Canvas.obj
 0004:0000021c       $pdata$?AddMemoryAllocationCallback@V8@v8@@SAXP6AXW4ObjectSpace@2@W4AllocationAction@2@H@Z01@Z 000000018004721c     Canvas.obj
 0004:00000228       $pdata$?RemoveMemoryAllocationCallback@V8@v8@@SAXP6AXW4ObjectSpace@2@W4AllocationAction@2@H@Z@Z 0000000180047228     Canvas.obj
 0004:00000234       $pdata$?IsExecutionTerminating@V8@v8@@SA_NPEAVIsolate@2@@Z 0000000180047234     Canvas.obj
 0004:00000240       $pdata$?VisitExternalResources@V8@v8@@SAXPEAVExternalResourceVisitor@2@@Z 0000000180047240     Canvas.obj
 0004:0000024c       $pdata$?VisitHandlesWithClassIds@V8@v8@@SAXPEAVPersistentHandleVisitor@2@@Z 000000018004724c     Canvas.obj
 0004:00000258       $pdata$?FunctionCallbackWrapper@imp@Nan@@YAXAEBV?$FunctionCallbackInfo@VValue@v8@@@v8@@@Z 0000000180047258     Canvas.obj
 0004:00000264       $pdata$?GetterCallbackWrapper@imp@Nan@@YAXV?$Local@VName@v8@@@v8@@AEBV?$PropertyCallbackInfo@VValue@v8@@@4@@Z 0000000180047264     Canvas.obj
 0004:00000270       $pdata$?SetterCallbackWrapper@imp@Nan@@YAXV?$Local@VName@v8@@@v8@@V?$Local@VValue@v8@@@4@AEBV?$PropertyCallbackInfo@X@4@@Z 0000000180047270     Canvas.obj
 0004:0000027c       $pdata$?New@?$Factory@VFunctionTemplate@v8@@@imp@Nan@@SA?AV?$Local@VFunctionTemplate@v8@@@v8@@P6AXAEBV?$FunctionCallbackInfo@VValue@v8@@@3@@ZV?$Local@VValue@v8@@@5@V?$Local@VSignature@v8@@@5@@Z 000000018004727c     Canvas.obj
 0004:00000288       $pdata$??0Callback@Nan@@QEAA@AEBV?$Local@VFunction@v8@@@v8@@@Z 0000000180047288     Canvas.obj
 0004:00000294       $pdata$?Call_@Callback@Nan@@AEBA?AV?$Local@VValue@v8@@@v8@@PEAVIsolate@4@V?$Local@VObject@v8@@@4@HQEAV34@@Z 0000000180047294     Canvas.obj
 0004:000002a0       $pdata$?SetAccessor@Nan@@YAXV?$Local@VObjectTemplate@v8@@@v8@@V?$Local@VString@v8@@@3@P6AX1AEBV?$PropertyCallbackInfo@VValue@v8@@@1@@ZP6AX1V?$Local@VValue@v8@@@3@AEBV?$PropertyCallbackInfo@X@1@@Z4W4AccessControl@3@W4PropertyAttribute@3@V?$Local@VAccessorSignature@v8@@@3@@Z 00000001800472a0     Canvas.obj
 0004:000002ac       $pdata$??1ObjectWrap@Nan@@UEAA@XZ 00000001800472ac     Canvas.obj
 0004:000002b8       $pdata$?Wrap@ObjectWrap@Nan@@IEAAXV?$Local@VObject@v8@@@v8@@@Z 00000001800472b8     Canvas.obj
 0004:000002c4       $pdata$?Ref@ObjectWrap@Nan@@MEAAXXZ 00000001800472c4     Canvas.obj
 0004:000002d0       $pdata$?Unref@ObjectWrap@Nan@@MEAAXXZ 00000001800472d0     Canvas.obj
 0004:000002dc       $pdata$?WeakCallback@ObjectWrap@Nan@@CAXAEBV?$WeakCallbackInfo@VObjectWrap@Nan@@@v8@@@Z 00000001800472dc     Canvas.obj
 0004:000002e8       $pdata$??_GImageData@@UEAAPEAXI@Z 00000001800472e8     ImageData.obj
 0004:000002e8       $pdata$??_GObjectWrap@Nan@@UEAAPEAXI@Z 00000001800472e8     Canvas.obj
 0004:000002f4       $pdata$?closure_init@@YA?AW4_cairo_status@@PEAUclosure_t@@PEAVCanvas@@II@Z 00000001800472f4     Canvas.obj
 0004:00000300       $pdata$?closure_destroy@@YAXPEAUclosure_t@@@Z 0000000180047300     Canvas.obj
 0004:0000030c       $pdata$1$?closure_destroy@@YAXPEAUclosure_t@@@Z 000000018004730c     Canvas.obj
 0004:00000318       $pdata$2$?closure_destroy@@YAXPEAUclosure_t@@@Z 0000000180047318     Canvas.obj
 0004:00000324       $pdata$?canvas_unpremultiply_data@@YAXPEAUpng_struct_def@@PEAUpng_row_info_struct@@PEAE@Z 0000000180047324     Canvas.obj
 0004:00000330       $pdata$0$?canvas_unpremultiply_data@@YAXPEAUpng_struct_def@@PEAUpng_row_info_struct@@PEAE@Z 0000000180047330     Canvas.obj
 0004:0000033c       $pdata$1$?canvas_unpremultiply_data@@YAXPEAUpng_struct_def@@PEAUpng_row_info_struct@@PEAE@Z 000000018004733c     Canvas.obj
 0004:00000348       $pdata$?canvas_write_png@@YA?AW4_cairo_status@@PEAU_cairo_surface@@P6AXPEAUpng_struct_def@@PEAE_K@ZPEAX@Z 0000000180047348     Canvas.obj
 0004:00000354       $pdata$?canvas_stream_write_func@@YAXPEAUpng_struct_def@@PEAE_K@Z 0000000180047354     Canvas.obj
 0004:00000360       $pdata$?Initialize@Canvas@@SAXV?$Local@VObject@v8@@@v8@@@Z 0000000180047360     Canvas.obj
 0004:0000036c       $pdata$?New@Canvas@@SAXAEBV?$FunctionCallbackInfo@VValue@v8@@@Nan@@@Z 000000018004736c     Canvas.obj
 0004:00000378       $pdata$?GetType@Canvas@@SAXV?$Local@VString@v8@@@v8@@AEBV?$PropertyCallbackInfo@VValue@v8@@@Nan@@@Z 0000000180047378     Canvas.obj
 0004:00000384       $pdata$?GetWidth@ImageData@@SAXV?$Local@VString@v8@@@v8@@AEBV?$PropertyCallbackInfo@VValue@v8@@@Nan@@@Z 0000000180047384     ImageData.obj
 0004:00000384       $pdata$?GetWidth@Canvas@@SAXV?$Local@VString@v8@@@v8@@AEBV?$PropertyCallbackInfo@VValue@v8@@@Nan@@@Z 0000000180047384     Canvas.obj
 0004:00000390       $pdata$?SetWidth@Canvas@@SAXV?$Local@VString@v8@@@v8@@V?$Local@VValue@v8@@@3@AEBV?$PropertyCallbackInfo@X@Nan@@@Z 0000000180047390     Canvas.obj
 0004:0000039c       $pdata$0$?SetWidth@Canvas@@SAXV?$Local@VString@v8@@@v8@@V?$Local@VValue@v8@@@3@AEBV?$PropertyCallbackInfo@X@Nan@@@Z 000000018004739c     Canvas.obj
 0004:000003a8       $pdata$1$?SetWidth@Canvas@@SAXV?$Local@VString@v8@@@v8@@V?$Local@VValue@v8@@@3@AEBV?$PropertyCallbackInfo@X@Nan@@@Z 00000001800473a8     Canvas.obj
 0004:000003b4       $pdata$?GetHeight@Canvas@@SAXV?$Local@VString@v8@@@v8@@AEBV?$PropertyCallbackInfo@VValue@v8@@@Nan@@@Z 00000001800473b4     Canvas.obj
 0004:000003b4       $pdata$?GetHeight@ImageData@@SAXV?$Local@VString@v8@@@v8@@AEBV?$PropertyCallbackInfo@VValue@v8@@@Nan@@@Z 00000001800473b4     ImageData.obj
 0004:000003c0       $pdata$?SetHeight@Canvas@@SAXV?$Local@VString@v8@@@v8@@V?$Local@VValue@v8@@@3@AEBV?$PropertyCallbackInfo@X@Nan@@@Z 00000001800473c0     Canvas.obj
 0004:000003cc       $pdata$0$?SetHeight@Canvas@@SAXV?$Local@VString@v8@@@v8@@V?$Local@VValue@v8@@@3@AEBV?$PropertyCallbackInfo@X@Nan@@@Z 00000001800473cc     Canvas.obj
 0004:000003d8       $pdata$1$?SetHeight@Canvas@@SAXV?$Local@VString@v8@@@v8@@V?$Local@VValue@v8@@@3@AEBV?$PropertyCallbackInfo@X@Nan@@@Z 00000001800473d8     Canvas.obj
 0004:000003e4       $pdata$?toBuffer@@YA?AW4_cairo_status@@PEAXPEBEI@Z 00000001800473e4     Canvas.obj
 0004:000003f0       $pdata$?ToBufferAsync@Canvas@@SAXPEAUuv_work_s@@@Z 00000001800473f0     Canvas.obj
 0004:000003fc       $pdata$?ToBufferAsyncAfter@Canvas@@SAXPEAUuv_work_s@@@Z 00000001800473fc     Canvas.obj
 0004:00000408       $pdata$?ToBuffer@Canvas@@SAXAEBV?$FunctionCallbackInfo@VValue@v8@@@Nan@@@Z 0000000180047408     Canvas.obj
 0004:00000414       $pdata$?streamPNG@@YA?AW4_cairo_status@@PEAXPEBEI@Z 0000000180047414     Canvas.obj
 0004:00000420       $pdata$?StreamPNGSync@Canvas@@SAXAEBV?$FunctionCallbackInfo@VValue@v8@@@Nan@@@Z 0000000180047420     Canvas.obj
 0004:0000042c       $pdata$??0Canvas@@QEAA@HHW4canvas_type_t@@@Z 000000018004742c     Canvas.obj
 0004:00000438       $pdata$??_GCanvas@@EEAAPEAXI@Z 0000000180047438     Canvas.obj
 0004:00000444       $pdata$??1Canvas@@EEAA@XZ  0000000180047444     Canvas.obj
 0004:00000450       $pdata$?resurface@Canvas@@QEAAXV?$Local@VObject@v8@@@v8@@@Z 0000000180047450     Canvas.obj
 0004:0000045c       $pdata$??$Unwrap@VImageData@@@ObjectWrap@Nan@@SAPEAVImageData@@V?$Local@VObject@v8@@@v8@@@Z 000000018004745c     CanvasRenderingContext2d.obj
 0004:0000045c       $pdata$??$Unwrap@VPattern@@@ObjectWrap@Nan@@SAPEAVPattern@@V?$Local@VObject@v8@@@v8@@@Z 000000018004745c     CanvasRenderingContext2d.obj
 0004:0000045c       $pdata$??$Unwrap@VImage@@@ObjectWrap@Nan@@SAPEAVImage@@V?$Local@VObject@v8@@@v8@@@Z 000000018004745c     CanvasPattern.obj
 0004:0000045c       $pdata$??$Unwrap@VGradient@@@ObjectWrap@Nan@@SAPEAVGradient@@V?$Local@VObject@v8@@@v8@@@Z 000000018004745c     CanvasGradient.obj
 0004:0000045c       $pdata$??$Unwrap@VContext2d@@@ObjectWrap@Nan@@SAPEAVContext2d@@V?$Local@VObject@v8@@@v8@@@Z 000000018004745c     Canvas.obj
 0004:0000045c       $pdata$??$Unwrap@VCanvas@@@ObjectWrap@Nan@@SAPEAVCanvas@@V?$Local@VObject@v8@@@v8@@@Z 000000018004745c     Canvas.obj
 0004:00000468       $pdata$?Initialize@Gradient@@SAXV?$Local@VObject@v8@@@v8@@@Z 0000000180047468     CanvasGradient.obj
 0004:00000474       $pdata$?New@Gradient@@SAXAEBV?$FunctionCallbackInfo@VValue@v8@@@Nan@@@Z 0000000180047474     CanvasGradient.obj
 0004:00000480       $pdata$?AddColorStop@Gradient@@SAXAEBV?$FunctionCallbackInfo@VValue@v8@@@Nan@@@Z 0000000180047480     CanvasGradient.obj
 0004:0000048c       $pdata$??_GGradient@@EEAAPEAXI@Z 000000018004748c     CanvasGradient.obj
 0004:00000498       $pdata$?Initialize@Pattern@@SAXV?$Local@VObject@v8@@@v8@@@Z 0000000180047498     CanvasPattern.obj
 0004:000004a4       $pdata$?New@Pattern@@SAXAEBV?$FunctionCallbackInfo@VValue@v8@@@Nan@@@Z 00000001800474a4     CanvasPattern.obj
 0004:000004b0       $pdata$??_GPattern@@EEAAPEAXI@Z 00000001800474b0     CanvasPattern.obj
 0004:000004bc       $pdata$?Initialize@Context2d@@SAXV?$Local@VObject@v8@@@v8@@@Z 00000001800474bc     CanvasRenderingContext2d.obj
 0004:000004c8       $pdata$??0Context2d@@QEAA@PEAVCanvas@@@Z 00000001800474c8     CanvasRenderingContext2d.obj
 0004:000004d4       $pdata$??_GContext2d@@EEAAPEAXI@Z 00000001800474d4     CanvasRenderingContext2d.obj
 0004:000004e0       $pdata$?saveState@Context2d@@QEAAXXZ 00000001800474e0     CanvasRenderingContext2d.obj
 0004:000004ec       $pdata$?savePath@Context2d@@QEAAXXZ 00000001800474ec     CanvasRenderingContext2d.obj
 0004:000004f8       $pdata$?restorePath@Context2d@@QEAAXXZ 00000001800474f8     CanvasRenderingContext2d.obj
 0004:00000504       $pdata$?fill@Context2d@@QEAAX_N@Z 0000000180047504     CanvasRenderingContext2d.obj
 0004:00000510       $pdata$?stroke@Context2d@@QEAAX_N@Z 0000000180047510     CanvasRenderingContext2d.obj
 0004:0000051c       $pdata$?shadow@Context2d@@QEAAXP6AXPEAU_cairo@@@Z@Z 000000018004751c     CanvasRenderingContext2d.obj
 0004:00000528       $pdata$3$?shadow@Context2d@@QEAAXP6AXPEAU_cairo@@@Z@Z 0000000180047528     CanvasRenderingContext2d.obj
 0004:00000534       $pdata$4$?shadow@Context2d@@QEAAXP6AXPEAU_cairo@@@Z@Z 0000000180047534     CanvasRenderingContext2d.obj
 0004:00000540       $pdata$?blur@Context2d@@QEAAXPEAU_cairo_surface@@H@Z 0000000180047540     CanvasRenderingContext2d.obj
 0004:0000054c       $pdata$?New@Context2d@@SAXAEBV?$FunctionCallbackInfo@VValue@v8@@@Nan@@@Z 000000018004754c     CanvasRenderingContext2d.obj
 0004:00000558       $pdata$?AddPage@Context2d@@SAXAEBV?$FunctionCallbackInfo@VValue@v8@@@Nan@@@Z 0000000180047558     CanvasRenderingContext2d.obj
 0004:00000564       $pdata$?PutImageData@Context2d@@SAXAEBV?$FunctionCallbackInfo@VValue@v8@@@Nan@@@Z 0000000180047564     CanvasRenderingContext2d.obj
 0004:00000570       $pdata$?GetImageData@Context2d@@SAXAEBV?$FunctionCallbackInfo@VValue@v8@@@Nan@@@Z 0000000180047570     CanvasRenderingContext2d.obj
 0004:0000057c       $pdata$?DrawImage@Context2d@@SAXAEBV?$FunctionCallbackInfo@VValue@v8@@@Nan@@@Z 000000018004757c     CanvasRenderingContext2d.obj
 0004:00000588       $pdata$?GetGlobalAlpha@Context2d@@SAXV?$Local@VString@v8@@@v8@@AEBV?$PropertyCallbackInfo@VValue@v8@@@Nan@@@Z 0000000180047588     CanvasRenderingContext2d.obj
 0004:00000594       $pdata$?SetGlobalAlpha@Context2d@@SAXV?$Local@VString@v8@@@v8@@V?$Local@VValue@v8@@@3@AEBV?$PropertyCallbackInfo@X@Nan@@@Z 0000000180047594     CanvasRenderingContext2d.obj
 0004:000005a0       $pdata$?GetGlobalCompositeOperation@Context2d@@SAXV?$Local@VString@v8@@@v8@@AEBV?$PropertyCallbackInfo@VValue@v8@@@Nan@@@Z 00000001800475a0     CanvasRenderingContext2d.obj
 0004:000005ac       $pdata$?SetPatternQuality@Context2d@@SAXV?$Local@VString@v8@@@v8@@V?$Local@VValue@v8@@@3@AEBV?$PropertyCallbackInfo@X@Nan@@@Z 00000001800475ac     CanvasRenderingContext2d.obj
 0004:000005b8       $pdata$?GetPatternQuality@Context2d@@SAXV?$Local@VString@v8@@@v8@@AEBV?$PropertyCallbackInfo@VValue@v8@@@Nan@@@Z 00000001800475b8     CanvasRenderingContext2d.obj
 0004:000005c4       $pdata$?SetGlobalCompositeOperation@Context2d@@SAXV?$Local@VString@v8@@@v8@@V?$Local@VValue@v8@@@3@AEBV?$PropertyCallbackInfo@X@Nan@@@Z 00000001800475c4     CanvasRenderingContext2d.obj
 0004:000005d0       $pdata$?GetShadowOffsetX@Context2d@@SAXV?$Local@VString@v8@@@v8@@AEBV?$PropertyCallbackInfo@VValue@v8@@@Nan@@@Z 00000001800475d0     CanvasRenderingContext2d.obj
 0004:000005dc       $pdata$?SetShadowOffsetX@Context2d@@SAXV?$Local@VString@v8@@@v8@@V?$Local@VValue@v8@@@3@AEBV?$PropertyCallbackInfo@X@Nan@@@Z 00000001800475dc     CanvasRenderingContext2d.obj
 0004:000005e8       $pdata$?GetShadowOffsetY@Context2d@@SAXV?$Local@VString@v8@@@v8@@AEBV?$PropertyCallbackInfo@VValue@v8@@@Nan@@@Z 00000001800475e8     CanvasRenderingContext2d.obj
 0004:000005f4       $pdata$?SetShadowOffsetY@Context2d@@SAXV?$Local@VString@v8@@@v8@@V?$Local@VValue@v8@@@3@AEBV?$PropertyCallbackInfo@X@Nan@@@Z 00000001800475f4     CanvasRenderingContext2d.obj
 0004:00000600       $pdata$?GetShadowBlur@Context2d@@SAXV?$Local@VString@v8@@@v8@@AEBV?$PropertyCallbackInfo@VValue@v8@@@Nan@@@Z 0000000180047600     CanvasRenderingContext2d.obj
 0004:0000060c       $pdata$?SetShadowBlur@Context2d@@SAXV?$Local@VString@v8@@@v8@@V?$Local@VValue@v8@@@3@AEBV?$PropertyCallbackInfo@X@Nan@@@Z 000000018004760c     CanvasRenderingContext2d.obj
 0004:00000618       $pdata$?GetAntiAlias@Context2d@@SAXV?$Local@VString@v8@@@v8@@AEBV?$PropertyCallbackInfo@VValue@v8@@@Nan@@@Z 0000000180047618     CanvasRenderingContext2d.obj
 0004:00000624       $pdata$?SetAntiAlias@Context2d@@SAXV?$Local@VString@v8@@@v8@@V?$Local@VValue@v8@@@3@AEBV?$PropertyCallbackInfo@X@Nan@@@Z 0000000180047624     CanvasRenderingContext2d.obj
 0004:00000630       $pdata$?GetTextDrawingMode@Context2d@@SAXV?$Local@VString@v8@@@v8@@AEBV?$PropertyCallbackInfo@VValue@v8@@@Nan@@@Z 0000000180047630     CanvasRenderingContext2d.obj
 0004:0000063c       $pdata$?SetTextDrawingMode@Context2d@@SAXV?$Local@VString@v8@@@v8@@V?$Local@VValue@v8@@@3@AEBV?$PropertyCallbackInfo@X@Nan@@@Z 000000018004763c     CanvasRenderingContext2d.obj
 0004:00000648       $pdata$?GetFilter@Context2d@@SAXV?$Local@VString@v8@@@v8@@AEBV?$PropertyCallbackInfo@VValue@v8@@@Nan@@@Z 0000000180047648     CanvasRenderingContext2d.obj
 0004:00000654       $pdata$?SetFilter@Context2d@@SAXV?$Local@VString@v8@@@v8@@V?$Local@VValue@v8@@@3@AEBV?$PropertyCallbackInfo@X@Nan@@@Z 0000000180047654     CanvasRenderingContext2d.obj
 0004:00000660       $pdata$?GetMiterLimit@Context2d@@SAXV?$Local@VString@v8@@@v8@@AEBV?$PropertyCallbackInfo@VValue@v8@@@Nan@@@Z 0000000180047660     CanvasRenderingContext2d.obj
 0004:0000066c       $pdata$?SetMiterLimit@Context2d@@SAXV?$Local@VString@v8@@@v8@@V?$Local@VValue@v8@@@3@AEBV?$PropertyCallbackInfo@X@Nan@@@Z 000000018004766c     CanvasRenderingContext2d.obj
 0004:00000678       $pdata$?GetLineWidth@Context2d@@SAXV?$Local@VString@v8@@@v8@@AEBV?$PropertyCallbackInfo@VValue@v8@@@Nan@@@Z 0000000180047678     CanvasRenderingContext2d.obj
 0004:00000684       $pdata$?SetLineWidth@Context2d@@SAXV?$Local@VString@v8@@@v8@@V?$Local@VValue@v8@@@3@AEBV?$PropertyCallbackInfo@X@Nan@@@Z 0000000180047684     CanvasRenderingContext2d.obj
 0004:00000690       $pdata$?GetLineJoin@Context2d@@SAXV?$Local@VString@v8@@@v8@@AEBV?$PropertyCallbackInfo@VValue@v8@@@Nan@@@Z 0000000180047690     CanvasRenderingContext2d.obj
 0004:0000069c       $pdata$?SetLineJoin@Context2d@@SAXV?$Local@VString@v8@@@v8@@V?$Local@VValue@v8@@@3@AEBV?$PropertyCallbackInfo@X@Nan@@@Z 000000018004769c     CanvasRenderingContext2d.obj
 0004:000006a8       $pdata$?GetLineCap@Context2d@@SAXV?$Local@VString@v8@@@v8@@AEBV?$PropertyCallbackInfo@VValue@v8@@@Nan@@@Z 00000001800476a8     CanvasRenderingContext2d.obj
 0004:000006b4       $pdata$?SetLineCap@Context2d@@SAXV?$Local@VString@v8@@@v8@@V?$Local@VValue@v8@@@3@AEBV?$PropertyCallbackInfo@X@Nan@@@Z 00000001800476b4     CanvasRenderingContext2d.obj
 0004:000006c0       $pdata$?IsPointInPath@Context2d@@SAXAEBV?$FunctionCallbackInfo@VValue@v8@@@Nan@@@Z 00000001800476c0     CanvasRenderingContext2d.obj
 0004:000006cc       $pdata$2$?IsPointInPath@Context2d@@SAXAEBV?$FunctionCallbackInfo@VValue@v8@@@Nan@@@Z 00000001800476cc     CanvasRenderingContext2d.obj
 0004:000006d8       $pdata$3$?IsPointInPath@Context2d@@SAXAEBV?$FunctionCallbackInfo@VValue@v8@@@Nan@@@Z 00000001800476d8     CanvasRenderingContext2d.obj
 0004:000006e4       $pdata$?SetFillPattern@Context2d@@SAXAEBV?$FunctionCallbackInfo@VValue@v8@@@Nan@@@Z 00000001800476e4     CanvasRenderingContext2d.obj
 0004:000006f0       $pdata$?SetStrokePattern@Context2d@@SAXAEBV?$FunctionCallbackInfo@VValue@v8@@@Nan@@@Z 00000001800476f0     CanvasRenderingContext2d.obj
 0004:000006fc       $pdata$?SetShadowColor@Context2d@@SAXV?$Local@VString@v8@@@v8@@V?$Local@VValue@v8@@@3@AEBV?$PropertyCallbackInfo@X@Nan@@@Z 00000001800476fc     CanvasRenderingContext2d.obj
 0004:00000708       $pdata$?GetShadowColor@Context2d@@SAXV?$Local@VString@v8@@@v8@@AEBV?$PropertyCallbackInfo@VValue@v8@@@Nan@@@Z 0000000180047708     CanvasRenderingContext2d.obj
 0004:00000714       $pdata$?SetFillColor@Context2d@@SAXAEBV?$FunctionCallbackInfo@VValue@v8@@@Nan@@@Z 0000000180047714     CanvasRenderingContext2d.obj
 0004:00000720       $pdata$?GetFillColor@Context2d@@SAXV?$Local@VString@v8@@@v8@@AEBV?$PropertyCallbackInfo@VValue@v8@@@Nan@@@Z 0000000180047720     CanvasRenderingContext2d.obj
 0004:0000072c       $pdata$?SetStrokeColor@Context2d@@SAXAEBV?$FunctionCallbackInfo@VValue@v8@@@Nan@@@Z 000000018004772c     CanvasRenderingContext2d.obj
 0004:00000738       $pdata$?GetStrokeColor@Context2d@@SAXV?$Local@VString@v8@@@v8@@AEBV?$PropertyCallbackInfo@VValue@v8@@@Nan@@@Z 0000000180047738     CanvasRenderingContext2d.obj
 0004:00000744       $pdata$?BezierCurveTo@Context2d@@SAXAEBV?$FunctionCallbackInfo@VValue@v8@@@Nan@@@Z 0000000180047744     CanvasRenderingContext2d.obj
 0004:00000750       $pdata$9$?BezierCurveTo@Context2d@@SAXAEBV?$FunctionCallbackInfo@VValue@v8@@@Nan@@@Z 0000000180047750     CanvasRenderingContext2d.obj
 0004:0000075c       $pdata$10$?BezierCurveTo@Context2d@@SAXAEBV?$FunctionCallbackInfo@VValue@v8@@@Nan@@@Z 000000018004775c     CanvasRenderingContext2d.obj
 0004:00000768       $pdata$?QuadraticCurveTo@Context2d@@SAXAEBV?$FunctionCallbackInfo@VValue@v8@@@Nan@@@Z 0000000180047768     CanvasRenderingContext2d.obj
 0004:00000774       $pdata$4$?QuadraticCurveTo@Context2d@@SAXAEBV?$FunctionCallbackInfo@VValue@v8@@@Nan@@@Z 0000000180047774     CanvasRenderingContext2d.obj
 0004:00000780       $pdata$5$?QuadraticCurveTo@Context2d@@SAXAEBV?$FunctionCallbackInfo@VValue@v8@@@Nan@@@Z 0000000180047780     CanvasRenderingContext2d.obj
 0004:0000078c       $pdata$?Save@Context2d@@SAXAEBV?$FunctionCallbackInfo@VValue@v8@@@Nan@@@Z 000000018004778c     CanvasRenderingContext2d.obj
 0004:00000798       $pdata$?Restore@Context2d@@SAXAEBV?$FunctionCallbackInfo@VValue@v8@@@Nan@@@Z 0000000180047798     CanvasRenderingContext2d.obj
 0004:000007a4       $pdata$?BeginPath@Context2d@@SAXAEBV?$FunctionCallbackInfo@VValue@v8@@@Nan@@@Z 00000001800477a4     CanvasRenderingContext2d.obj
 0004:000007b0       $pdata$?ClosePath@Context2d@@SAXAEBV?$FunctionCallbackInfo@VValue@v8@@@Nan@@@Z 00000001800477b0     CanvasRenderingContext2d.obj
 0004:000007bc       $pdata$?Rotate@Context2d@@SAXAEBV?$FunctionCallbackInfo@VValue@v8@@@Nan@@@Z 00000001800477bc     CanvasRenderingContext2d.obj
 0004:000007c8       $pdata$?Transform@Context2d@@SAXAEBV?$FunctionCallbackInfo@VValue@v8@@@Nan@@@Z 00000001800477c8     CanvasRenderingContext2d.obj
 0004:000007d4       $pdata$?ResetTransform@Context2d@@SAXAEBV?$FunctionCallbackInfo@VValue@v8@@@Nan@@@Z 00000001800477d4     CanvasRenderingContext2d.obj
 0004:000007e0       $pdata$?Translate@Context2d@@SAXAEBV?$FunctionCallbackInfo@VValue@v8@@@Nan@@@Z 00000001800477e0     CanvasRenderingContext2d.obj
 0004:000007ec       $pdata$?Scale@Context2d@@SAXAEBV?$FunctionCallbackInfo@VValue@v8@@@Nan@@@Z 00000001800477ec     CanvasRenderingContext2d.obj
 0004:000007f8       $pdata$?Clip@Context2d@@SAXAEBV?$FunctionCallbackInfo@VValue@v8@@@Nan@@@Z 00000001800477f8     CanvasRenderingContext2d.obj
 0004:00000804       $pdata$?Fill@Context2d@@SAXAEBV?$FunctionCallbackInfo@VValue@v8@@@Nan@@@Z 0000000180047804     CanvasRenderingContext2d.obj
 0004:00000810       $pdata$?Stroke@Context2d@@SAXAEBV?$FunctionCallbackInfo@VValue@v8@@@Nan@@@Z 0000000180047810     CanvasRenderingContext2d.obj
 0004:0000081c       $pdata$?FillText@Context2d@@SAXAEBV?$FunctionCallbackInfo@VValue@v8@@@Nan@@@Z 000000018004781c     CanvasRenderingContext2d.obj
 0004:00000828       $pdata$?StrokeText@Context2d@@SAXAEBV?$FunctionCallbackInfo@VValue@v8@@@Nan@@@Z 0000000180047828     CanvasRenderingContext2d.obj
 0004:00000834       $pdata$?setTextPath@Context2d@@QEAAXPEBDNN@Z 0000000180047834     CanvasRenderingContext2d.obj
 0004:00000840       $pdata$?LineTo@Context2d@@SAXAEBV?$FunctionCallbackInfo@VValue@v8@@@Nan@@@Z 0000000180047840     CanvasRenderingContext2d.obj
 0004:0000084c       $pdata$?MoveTo@Context2d@@SAXAEBV?$FunctionCallbackInfo@VValue@v8@@@Nan@@@Z 000000018004784c     CanvasRenderingContext2d.obj
 0004:00000858       $pdata$?SetFont@Context2d@@SAXAEBV?$FunctionCallbackInfo@VValue@v8@@@Nan@@@Z 0000000180047858     CanvasRenderingContext2d.obj
 0004:00000864       $pdata$?MeasureText@Context2d@@SAXAEBV?$FunctionCallbackInfo@VValue@v8@@@Nan@@@Z 0000000180047864     CanvasRenderingContext2d.obj
 0004:00000870       $pdata$?SetTextBaseline@Context2d@@SAXAEBV?$FunctionCallbackInfo@VValue@v8@@@Nan@@@Z 0000000180047870     CanvasRenderingContext2d.obj
 0004:0000087c       $pdata$0$?SetTextBaseline@Context2d@@SAXAEBV?$FunctionCallbackInfo@VValue@v8@@@Nan@@@Z 000000018004787c     CanvasRenderingContext2d.obj
 0004:00000888       $pdata$1$?SetTextBaseline@Context2d@@SAXAEBV?$FunctionCallbackInfo@VValue@v8@@@Nan@@@Z 0000000180047888     CanvasRenderingContext2d.obj
 0004:00000894       $pdata$?SetTextAlignment@Context2d@@SAXAEBV?$FunctionCallbackInfo@VValue@v8@@@Nan@@@Z 0000000180047894     CanvasRenderingContext2d.obj
 0004:000008a0       $pdata$0$?SetTextAlignment@Context2d@@SAXAEBV?$FunctionCallbackInfo@VValue@v8@@@Nan@@@Z 00000001800478a0     CanvasRenderingContext2d.obj
 0004:000008ac       $pdata$1$?SetTextAlignment@Context2d@@SAXAEBV?$FunctionCallbackInfo@VValue@v8@@@Nan@@@Z 00000001800478ac     CanvasRenderingContext2d.obj
 0004:000008b8       $pdata$?SetLineDash@Context2d@@SAXAEBV?$FunctionCallbackInfo@VValue@v8@@@Nan@@@Z 00000001800478b8     CanvasRenderingContext2d.obj
 0004:000008c4       $pdata$?GetLineDash@Context2d@@SAXAEBV?$FunctionCallbackInfo@VValue@v8@@@Nan@@@Z 00000001800478c4     CanvasRenderingContext2d.obj
 0004:000008d0       $pdata$?SetLineDashOffset@Context2d@@SAXV?$Local@VString@v8@@@v8@@V?$Local@VValue@v8@@@3@AEBV?$PropertyCallbackInfo@X@Nan@@@Z 00000001800478d0     CanvasRenderingContext2d.obj
 0004:000008dc       $pdata$3$?SetLineDashOffset@Context2d@@SAXV?$Local@VString@v8@@@v8@@V?$Local@VValue@v8@@@3@AEBV?$PropertyCallbackInfo@X@Nan@@@Z 00000001800478dc     CanvasRenderingContext2d.obj
 0004:000008e8       $pdata$4$?SetLineDashOffset@Context2d@@SAXV?$Local@VString@v8@@@v8@@V?$Local@VValue@v8@@@3@AEBV?$PropertyCallbackInfo@X@Nan@@@Z 00000001800478e8     CanvasRenderingContext2d.obj
 0004:000008f4       $pdata$5$?SetLineDashOffset@Context2d@@SAXV?$Local@VString@v8@@@v8@@V?$Local@VValue@v8@@@3@AEBV?$PropertyCallbackInfo@X@Nan@@@Z 00000001800478f4     CanvasRenderingContext2d.obj
 0004:00000900       $pdata$?GetLineDashOffset@Context2d@@SAXV?$Local@VString@v8@@@v8@@AEBV?$PropertyCallbackInfo@VValue@v8@@@Nan@@@Z 0000000180047900     CanvasRenderingContext2d.obj
 0004:0000090c       $pdata$?FillRect@Context2d@@SAXAEBV?$FunctionCallbackInfo@VValue@v8@@@Nan@@@Z 000000018004790c     CanvasRenderingContext2d.obj
 0004:00000918       $pdata$3$?FillRect@Context2d@@SAXAEBV?$FunctionCallbackInfo@VValue@v8@@@Nan@@@Z 0000000180047918     CanvasRenderingContext2d.obj
 0004:00000924       $pdata$4$?FillRect@Context2d@@SAXAEBV?$FunctionCallbackInfo@VValue@v8@@@Nan@@@Z 0000000180047924     CanvasRenderingContext2d.obj
 0004:00000930       $pdata$5$?FillRect@Context2d@@SAXAEBV?$FunctionCallbackInfo@VValue@v8@@@Nan@@@Z 0000000180047930     CanvasRenderingContext2d.obj
 0004:0000093c       $pdata$6$?FillRect@Context2d@@SAXAEBV?$FunctionCallbackInfo@VValue@v8@@@Nan@@@Z 000000018004793c     CanvasRenderingContext2d.obj
 0004:00000948       $pdata$?StrokeRect@Context2d@@SAXAEBV?$FunctionCallbackInfo@VValue@v8@@@Nan@@@Z 0000000180047948     CanvasRenderingContext2d.obj
 0004:00000954       $pdata$3$?StrokeRect@Context2d@@SAXAEBV?$FunctionCallbackInfo@VValue@v8@@@Nan@@@Z 0000000180047954     CanvasRenderingContext2d.obj
 0004:00000960       $pdata$4$?StrokeRect@Context2d@@SAXAEBV?$FunctionCallbackInfo@VValue@v8@@@Nan@@@Z 0000000180047960     CanvasRenderingContext2d.obj
 0004:0000096c       $pdata$5$?StrokeRect@Context2d@@SAXAEBV?$FunctionCallbackInfo@VValue@v8@@@Nan@@@Z 000000018004796c     CanvasRenderingContext2d.obj
 0004:00000978       $pdata$6$?StrokeRect@Context2d@@SAXAEBV?$FunctionCallbackInfo@VValue@v8@@@Nan@@@Z 0000000180047978     CanvasRenderingContext2d.obj
 0004:00000984       $pdata$?ClearRect@Context2d@@SAXAEBV?$FunctionCallbackInfo@VValue@v8@@@Nan@@@Z 0000000180047984     CanvasRenderingContext2d.obj
 0004:00000990       $pdata$3$?ClearRect@Context2d@@SAXAEBV?$FunctionCallbackInfo@VValue@v8@@@Nan@@@Z 0000000180047990     CanvasRenderingContext2d.obj
 0004:0000099c       $pdata$4$?ClearRect@Context2d@@SAXAEBV?$FunctionCallbackInfo@VValue@v8@@@Nan@@@Z 000000018004799c     CanvasRenderingContext2d.obj
 0004:000009a8       $pdata$5$?ClearRect@Context2d@@SAXAEBV?$FunctionCallbackInfo@VValue@v8@@@Nan@@@Z 00000001800479a8     CanvasRenderingContext2d.obj
 0004:000009b4       $pdata$6$?ClearRect@Context2d@@SAXAEBV?$FunctionCallbackInfo@VValue@v8@@@Nan@@@Z 00000001800479b4     CanvasRenderingContext2d.obj
 0004:000009c0       $pdata$?Rect@Context2d@@SAXAEBV?$FunctionCallbackInfo@VValue@v8@@@Nan@@@Z 00000001800479c0     CanvasRenderingContext2d.obj
 0004:000009cc       $pdata$3$?Rect@Context2d@@SAXAEBV?$FunctionCallbackInfo@VValue@v8@@@Nan@@@Z 00000001800479cc     CanvasRenderingContext2d.obj
 0004:000009d8       $pdata$4$?Rect@Context2d@@SAXAEBV?$FunctionCallbackInfo@VValue@v8@@@Nan@@@Z 00000001800479d8     CanvasRenderingContext2d.obj
 0004:000009e4       $pdata$?Arc@Context2d@@SAXAEBV?$FunctionCallbackInfo@VValue@v8@@@Nan@@@Z 00000001800479e4     CanvasRenderingContext2d.obj
 0004:000009f0       $pdata$7$?Arc@Context2d@@SAXAEBV?$FunctionCallbackInfo@VValue@v8@@@Nan@@@Z 00000001800479f0     CanvasRenderingContext2d.obj
 0004:000009fc       $pdata$8$?Arc@Context2d@@SAXAEBV?$FunctionCallbackInfo@VValue@v8@@@Nan@@@Z 00000001800479fc     CanvasRenderingContext2d.obj
 0004:00000a08       $pdata$?ArcTo@Context2d@@SAXAEBV?$FunctionCallbackInfo@VValue@v8@@@Nan@@@Z 0000000180047a08     CanvasRenderingContext2d.obj
 0004:00000a14       $pdata$8$?ArcTo@Context2d@@SAXAEBV?$FunctionCallbackInfo@VValue@v8@@@Nan@@@Z 0000000180047a14     CanvasRenderingContext2d.obj
 0004:00000a20       $pdata$11$?ArcTo@Context2d@@SAXAEBV?$FunctionCallbackInfo@VValue@v8@@@Nan@@@Z 0000000180047a20     CanvasRenderingContext2d.obj
 0004:00000a2c       $pdata$12$?ArcTo@Context2d@@SAXAEBV?$FunctionCallbackInfo@VValue@v8@@@Nan@@@Z 0000000180047a2c     CanvasRenderingContext2d.obj
 0004:00000a38       $pdata$13$?ArcTo@Context2d@@SAXAEBV?$FunctionCallbackInfo@VValue@v8@@@Nan@@@Z 0000000180047a38     CanvasRenderingContext2d.obj
 0004:00000a44       $pdata$??1?$vector@NV?$allocator@N@std@@@std@@QEAA@XZ 0000000180047a44     CanvasRenderingContext2d.obj
 0004:00000a50       $pdata$?rgba_from_hsla@@YAHMMMM@Z 0000000180047a50     color.obj
 0004:00000a5c       $pdata$?rgba_from_rgb_string@@YAHPEBDPEAF@Z 0000000180047a5c     color.obj
 0004:00000a68       $pdata$0$?rgba_from_rgb_string@@YAHPEBDPEAF@Z 0000000180047a68     color.obj
 0004:00000a74       $pdata$2$?rgba_from_rgb_string@@YAHPEBDPEAF@Z 0000000180047a74     color.obj
 0004:00000a80       $pdata$3$?rgba_from_rgb_string@@YAHPEBDPEAF@Z 0000000180047a80     color.obj
 0004:00000a8c       $pdata$?rgba_from_rgba_string@@YAHPEBDPEAF@Z 0000000180047a8c     color.obj
 0004:00000a98       $pdata$0$?rgba_from_rgba_string@@YAHPEBDPEAF@Z 0000000180047a98     color.obj
 0004:00000aa4       $pdata$2$?rgba_from_rgba_string@@YAHPEBDPEAF@Z 0000000180047aa4     color.obj
 0004:00000ab0       $pdata$3$?rgba_from_rgba_string@@YAHPEBDPEAF@Z 0000000180047ab0     color.obj
 0004:00000abc       $pdata$?rgba_from_hsla_string@@YAHPEBDPEAF@Z 0000000180047abc     color.obj
 0004:00000ac8       $pdata$2$?rgba_from_hsla_string@@YAHPEBDPEAF@Z 0000000180047ac8     color.obj
 0004:00000ad4       $pdata$4$?rgba_from_hsla_string@@YAHPEBDPEAF@Z 0000000180047ad4     color.obj
 0004:00000ae0       $pdata$5$?rgba_from_hsla_string@@YAHPEBDPEAF@Z 0000000180047ae0     color.obj
 0004:00000aec       $pdata$6$?rgba_from_hsla_string@@YAHPEBDPEAF@Z 0000000180047aec     color.obj
 0004:00000af8       $pdata$?rgba_from_hsl_string@@YAHPEBDPEAF@Z 0000000180047af8     color.obj
 0004:00000b04       $pdata$1$?rgba_from_hsl_string@@YAHPEBDPEAF@Z 0000000180047b04     color.obj
 0004:00000b10       $pdata$3$?rgba_from_hsl_string@@YAHPEBDPEAF@Z 0000000180047b10     color.obj
 0004:00000b1c       $pdata$4$?rgba_from_hsl_string@@YAHPEBDPEAF@Z 0000000180047b1c     color.obj
 0004:00000b28       $pdata$?rgba_from_hex_string@@YAHPEBDPEAF@Z 0000000180047b28     color.obj
 0004:00000b34       $pdata$?rgba_from_name_string@@YAHPEBDPEAF@Z 0000000180047b34     color.obj
 0004:00000b40       $pdata$?rgba_from_string@@YAHPEBDPEAF@Z 0000000180047b40     color.obj
 0004:00000b4c       $pdata$??$parse_css_number@M@@YA_NPEAPEBDPEAM@Z 0000000180047b4c     color.obj
 0004:00000b58       $pdata$1$??$parse_css_number@M@@YA_NPEAPEBDPEAM@Z 0000000180047b58     color.obj
 0004:00000b64       $pdata$3$??$parse_css_number@M@@YA_NPEAPEBDPEAM@Z 0000000180047b64     color.obj
 0004:00000b70       $pdata$?GetFunction@Callback@Nan@@QEBA?AV?$Local@VFunction@v8@@@v8@@XZ 0000000180047b70     Image.obj
 0004:00000b7c       $pdata$?Initialize@Image@@SAXV?$Local@VObject@v8@@@v8@@@Z 0000000180047b7c     Image.obj
 0004:00000b88       $pdata$?New@Image@@SAXAEBV?$FunctionCallbackInfo@VValue@v8@@@Nan@@@Z 0000000180047b88     Image.obj
 0004:00000b94       $pdata$?GetComplete@Image@@SAXV?$Local@VString@v8@@@v8@@AEBV?$PropertyCallbackInfo@VValue@v8@@@Nan@@@Z 0000000180047b94     Image.obj
 0004:00000ba0       $pdata$?GetDataMode@Image@@SAXV?$Local@VString@v8@@@v8@@AEBV?$PropertyCallbackInfo@VValue@v8@@@Nan@@@Z 0000000180047ba0     Image.obj
 0004:00000bac       $pdata$?SetDataMode@Image@@SAXV?$Local@VString@v8@@@v8@@V?$Local@VValue@v8@@@3@AEBV?$PropertyCallbackInfo@X@Nan@@@Z 0000000180047bac     Image.obj
 0004:00000bb8       $pdata$?GetWidth@Image@@SAXV?$Local@VString@v8@@@v8@@AEBV?$PropertyCallbackInfo@VValue@v8@@@Nan@@@Z 0000000180047bb8     Image.obj
 0004:00000bc4       $pdata$?GetHeight@Image@@SAXV?$Local@VString@v8@@@v8@@AEBV?$PropertyCallbackInfo@VValue@v8@@@Nan@@@Z 0000000180047bc4     Image.obj
 0004:00000bd0       $pdata$?GetSource@Image@@SAXV?$Local@VString@v8@@@v8@@AEBV?$PropertyCallbackInfo@VValue@v8@@@Nan@@@Z 0000000180047bd0     Image.obj
 0004:00000bdc       $pdata$?clearData@Image@@QEAAXXZ 0000000180047bdc     Image.obj
 0004:00000be8       $pdata$2$?clearData@Image@@QEAAXXZ 0000000180047be8     Image.obj
 0004:00000bf4       $pdata$3$?clearData@Image@@QEAAXXZ 0000000180047bf4     Image.obj
 0004:00000c00       $pdata$4$?clearData@Image@@QEAAXXZ 0000000180047c00     Image.obj
 0004:00000c0c       $pdata$?SetSource@Image@@SAXV?$Local@VString@v8@@@v8@@V?$Local@VValue@v8@@@3@AEBV?$PropertyCallbackInfo@X@Nan@@@Z 0000000180047c0c     Image.obj
 0004:00000c18       $pdata$0$?SetSource@Image@@SAXV?$Local@VString@v8@@@v8@@V?$Local@VValue@v8@@@3@AEBV?$PropertyCallbackInfo@X@Nan@@@Z 0000000180047c18     Image.obj
 0004:00000c24       $pdata$1$?SetSource@Image@@SAXV?$Local@VString@v8@@@v8@@V?$Local@VValue@v8@@@3@AEBV?$PropertyCallbackInfo@X@Nan@@@Z 0000000180047c24     Image.obj
 0004:00000c30       $pdata$?loadFromBuffer@Image@@QEAA?AW4_cairo_status@@PEAEI@Z 0000000180047c30     Image.obj
 0004:00000c3c       $pdata$?readPNG@Image@@SA?AW4_cairo_status@@PEAXPEAEI@Z 0000000180047c3c     Image.obj
 0004:00000c48       $pdata$?GetOnload@Image@@SAXV?$Local@VString@v8@@@v8@@AEBV?$PropertyCallbackInfo@VValue@v8@@@Nan@@@Z 0000000180047c48     Image.obj
 0004:00000c54       $pdata$?SetOnload@Image@@SAXV?$Local@VString@v8@@@v8@@V?$Local@VValue@v8@@@3@AEBV?$PropertyCallbackInfo@X@Nan@@@Z 0000000180047c54     Image.obj
 0004:00000c60       $pdata$?GetOnerror@Image@@SAXV?$Local@VString@v8@@@v8@@AEBV?$PropertyCallbackInfo@VValue@v8@@@Nan@@@Z 0000000180047c60     Image.obj
 0004:00000c6c       $pdata$?SetOnerror@Image@@SAXV?$Local@VString@v8@@@v8@@V?$Local@VValue@v8@@@3@AEBV?$PropertyCallbackInfo@X@Nan@@@Z 0000000180047c6c     Image.obj
 0004:00000c78       $pdata$??_GImage@@EEAAPEAXI@Z 0000000180047c78     Image.obj
 0004:00000c84       $pdata$??1Image@@EEAA@XZ   0000000180047c84     Image.obj
 0004:00000c90       $pdata$?loaded@Image@@QEAAXXZ 0000000180047c90     Image.obj
 0004:00000c9c       $pdata$?error@Image@@QEAAXV?$Local@VValue@v8@@@v8@@@Z 0000000180047c9c     Image.obj
 0004:00000ca8       $pdata$?loadSurface@Image@@QEAA?AW4_cairo_status@@XZ 0000000180047ca8     Image.obj
 0004:00000cb4       $pdata$?Initialize@ImageData@@SAXV?$Local@VObject@v8@@@v8@@@Z 0000000180047cb4     ImageData.obj
 0004:00000cc0       $pdata$?New@ImageData@@SAXAEBV?$FunctionCallbackInfo@VValue@v8@@@Nan@@@Z 0000000180047cc0     ImageData.obj
 0004:00000ccc       $pdata$?init@@YAXV?$Local@VObject@v8@@@v8@@@Z 0000000180047ccc     init.obj
 0004:00000cd8       $pdata$load_exe_hook       0000000180047cd8     win_delay_load_hook.obj
 0004:00000cf0       $pdata$??0bad_alloc@std@@QEAA@AEBV01@@Z 0000000180047cf0     libcpmt:xthrow.obj
 0004:00000cfc       $pdata$??0length_error@std@@QEAA@AEBV01@@Z 0000000180047cfc     libcpmt:xthrow.obj
 0004:00000d08       $pdata$??0logic_error@std@@QEAA@AEBV01@@Z 0000000180047d08     libcpmt:xthrow.obj
 0004:00000d14       $pdata$??_Gbad_alloc@std@@UEAAPEAXI@Z 0000000180047d14     libcpmt:xthrow.obj
 0004:00000d20       $pdata$??_Glogic_error@std@@UEAAPEAXI@Z 0000000180047d20     libcpmt:xthrow.obj
 0004:00000d20       $pdata$??_Glength_error@std@@UEAAPEAXI@Z 0000000180047d20     libcpmt:xthrow.obj
 0004:00000d2c       $pdata$?_Xbad_alloc@std@@YAXXZ 0000000180047d2c     libcpmt:xthrow.obj
 0004:00000d38       $pdata$?_Xlength_error@std@@YAXPEBD@Z 0000000180047d38     libcpmt:xthrow.obj
 0004:00000d5c       $pdata$free                0000000180047d5c     LIBCMT:free.obj
 0004:00000d68       $pdata$malloc              0000000180047d68     LIBCMT:malloc.obj
 0004:00000d74       $pdata$??_M@YAXPEAX_KHP6AX0@Z@Z 0000000180047d74     LIBCMT:ehvecdtr.obj
 0004:00000d80       $pdata$?__ArrayUnwind@@YAXPEAX_KHP6AX0@Z@Z 0000000180047d80     LIBCMT:ehvecdtr.obj
 0004:00000d8c       $pdata$_wassert            0000000180047d8c     LIBCMT:wassert.obj
 0004:00000d98       $pdata$swprintf            0000000180047d98     LIBCMT:wassert.obj
 0004:00000da4       $pdata$__onexitinit        0000000180047da4     LIBCMT:onexit.obj
 0004:00000db0       $pdata$_onexit             0000000180047db0     LIBCMT:onexit.obj
 0004:00000dbc       $pdata$atexit              0000000180047dbc     LIBCMT:onexit.obj
 0004:00000dc8       $pdata$_purecall           0000000180047dc8     LIBCMT:purevirt.obj
 0004:00000de0       $pdata$realloc             0000000180047de0     LIBCMT:realloc.obj
 0004:00000dec       $pdata$??2@YAPEAX_K@Z      0000000180047dec     LIBCMT:new.obj
 0004:00000df8       $pdata$strstr              0000000180047df8     LIBCMT:strstr.obj
 0004:00000e04       $pdata$_snprintf           0000000180047e04     LIBCMT:snprintf.obj
 0004:00000e10       $pdata$_fsopen             0000000180047e10     LIBCMT:fopen.obj
 0004:00000e1c       $pdata$_fread_nolock_s     0000000180047e1c     LIBCMT:fread.obj
 0004:00000e28       $pdata$fread               0000000180047e28     LIBCMT:fread.obj
 0004:00000e34       $pdata$fread_s             0000000180047e34     LIBCMT:fread.obj
 0004:00000e40       $pdata$_fseek_nolock       0000000180047e40     LIBCMT:fseek.obj
 0004:00000e4c       $pdata$fseek               0000000180047e4c     LIBCMT:fseek.obj
 0004:00000e58       $pdata$_fclose_nolock      0000000180047e58     LIBCMT:fclose.obj
 0004:00000e64       $pdata$fclose              0000000180047e64     LIBCMT:fclose.obj
 0004:00000e70       $pdata$??0_LocaleUpdate@@QEAA@PEAUlocaleinfo_struct@@@Z 0000000180047e70     LIBCMT:stricmp.obj
 0004:00000e7c       $pdata$_stricmp            0000000180047e7c     LIBCMT:stricmp.obj
 0004:00000e88       $pdata$_stricmp_l          0000000180047e88     LIBCMT:stricmp.obj
 0004:00000e94       $pdata$_CRT_INIT           0000000180047e94     LIBCMT:dllcrt0.obj
 0004:00000ea0       $pdata$_DllMainCRTStartup  0000000180047ea0     LIBCMT:dllcrt0.obj
 0004:00000eac       $pdata$__DllMainCRTStartup 0000000180047eac     LIBCMT:dllcrt0.obj
 0004:00000ec4       $pdata$_CxxThrowException  0000000180047ec4     LIBCMT:throw.obj
 0004:00000ed0       $pdata$?_GetEstablisherFrame@@YAPEA_KPEA_KPEAU_xDISPATCHER_CONTEXT@@PEBU_s_FuncInfo@@0@Z 0000000180047ed0     LIBCMT:trnsctrl.obj
 0004:00000edc       $pdata$?_GetRangeOfTrysToCheck@@YAPEBU_s_TryBlockMapEntry@@PEA_KPEBU_s_FuncInfo@@HHPEAI2PEAU_xDISPATCHER_CONTEXT@@@Z 0000000180047edc     LIBCMT:trnsctrl.obj
 0004:00000ee8       $pdata$?__FrameUnwindToEmptyState@@YAXPEA_KPEAU_xDISPATCHER_CONTEXT@@PEBU_s_FuncInfo@@@Z 0000000180047ee8     LIBCMT:trnsctrl.obj
 0004:00000ef4       $pdata$?__SehTransFilter@@YAHPEAU_EXCEPTION_POINTERS@@PEAUEHExceptionRecord@@PEA_KPEAU_CONTEXT@@PEAU_xDISPATCHER_CONTEXT@@PEBU_s_FuncInfo@@PEAH@Z 0000000180047ef4     LIBCMT:trnsctrl.obj
 0004:00000f00       $pdata$_CallSETranslator   0000000180047f00     LIBCMT:trnsctrl.obj
 0004:00000f0c       $pdata$_CreateFrameInfo    0000000180047f0c     LIBCMT:trnsctrl.obj
 0004:00000f18       $pdata$_FindAndUnlinkFrame 0000000180047f18     LIBCMT:trnsctrl.obj
 0004:00000f24       $pdata$_GetImageBase       0000000180047f24     LIBCMT:trnsctrl.obj
 0004:00000f30       $pdata$_GetThrowImageBase  0000000180047f30     LIBCMT:trnsctrl.obj
 0004:00000f3c       $pdata$_IsExceptionObjectToBeDestroyed 0000000180047f3c     LIBCMT:trnsctrl.obj
 0004:00000f48       $pdata$_SetImageBase       0000000180047f48     LIBCMT:trnsctrl.obj
 0004:00000f54       $pdata$_SetThrowImageBase  0000000180047f54     LIBCMT:trnsctrl.obj
 0004:00000f60       $pdata$_UnwindNestedFrames 0000000180047f60     LIBCMT:trnsctrl.obj
 0004:00000f6c       $pdata$__CxxFrameHandler3  0000000180047f6c     LIBCMT:trnsctrl.obj
 0004:00000f78       $pdata$??8type_info@@QEBA_NAEBV0@@Z 0000000180047f78     LIBCMT:typinfo.obj
 0004:00000f84       $pdata$??_Gtype_info@@UEAAPEAXI@Z 0000000180047f84     LIBCMT:typinfo.obj
 0004:00000f90       $pdata$??0exception@std@@QEAA@AEBQEBD@Z 0000000180047f90     LIBCMT:stdexcpt.obj
 0004:00000f9c       $pdata$??0exception@std@@QEAA@AEBV01@@Z 0000000180047f9c     LIBCMT:stdexcpt.obj
 0004:00000fa8       $pdata$??4exception@std@@QEAAAEAV01@AEBV01@@Z 0000000180047fa8     LIBCMT:stdexcpt.obj
 0004:00000fb4       $pdata$??_Gexception@std@@UEAAPEAXI@Z 0000000180047fb4     LIBCMT:stdexcpt.obj
 0004:00000fc0       $pdata$?_Copy_str@exception@std@@AEAAXPEBD@Z 0000000180047fc0     LIBCMT:stdexcpt.obj
 0004:00000fcc       $pdata$?_Tidy@exception@std@@AEAAXXZ 0000000180047fcc     LIBCMT:stdexcpt.obj
 0004:00000fd8       $pdata$__raise_securityfailure 0000000180047fd8     LIBCMT:gs_report.obj
 0004:00000fe4       $pdata$__report_gsfailure  0000000180047fe4     LIBCMT:gs_report.obj
 0004:00000ff0       $pdata$__isa_available_init 0000000180047ff0     LIBCMT:cpu_disp.obj
 0004:00000ffc       $pdata$__doserrno          0000000180047ffc     LIBCMT:dosmap.obj
 0004:00001008       $pdata$_dosmaperr          0000000180048008     LIBCMT:dosmap.obj
 0004:00001014       $pdata$_errno              0000000180048014     LIBCMT:dosmap.obj
 0004:00001020       $pdata$_heap_init          0000000180048020     LIBCMT:heapinit.obj
 0004:0000102c       $pdata$_callnewh           000000018004802c     LIBCMT:handler.obj
 0004:00001038       $pdata$__copy_path_to_wide_string 0000000180048038     LIBCMT:crt0dat.obj
 0004:00001044       $pdata$__crtCorExitProcess 0000000180048044     LIBCMT:crt0dat.obj
 0004:00001050       $pdata$__crtExitProcess    0000000180048050     LIBCMT:crt0dat.obj
 0004:0000105c       $pdata$__freeCrtMemory     000000018004805c     LIBCMT:crt0dat.obj
 0004:00001068       $pdata$_amsg_exit          0000000180048068     LIBCMT:crt0dat.obj
 0004:00001074       $pdata$_cinit              0000000180048074     LIBCMT:crt0dat.obj
 0004:00001080       $pdata$_init_pointers      0000000180048080     LIBCMT:crt0dat.obj
 0004:0000108c       $pdata$_initterm           000000018004808c     LIBCMT:crt0dat.obj
 0004:00001098       $pdata$_initterm_e         0000000180048098     LIBCMT:crt0dat.obj
 0004:000010a4       $pdata$doexit              00000001800480a4     LIBCMT:crt0dat.obj
 0004:000010b0       $pdata$_FF_MSGBANNER       00000001800480b0     LIBCMT:crt0msg.obj
 0004:000010bc       $pdata$_NMSG_WRITE         00000001800480bc     LIBCMT:crt0msg.obj
 0004:000010c8       $pdata$?_inconsistency@@YAXXZ 00000001800480c8     LIBCMT:hooks.obj
 0004:000010d4       $pdata$?terminate@@YAXXZ   00000001800480d4     LIBCMT:hooks.obj
 0004:000010e0       $pdata$_initp_eh_hooks     00000001800480e0     LIBCMT:hooks.obj
 0004:000010ec       $pdata$__C_specific_handler 00000001800480ec     LIBCMT:chandler.obj
 0004:000010f8       $pdata$_call_reportfault   00000001800480f8     LIBCMT:invarg.obj
 0004:00001104       $pdata$_invalid_parameter  0000000180048104     LIBCMT:invarg.obj
 0004:00001110       $pdata$_invalid_parameter_noinfo 0000000180048110     LIBCMT:invarg.obj
 0004:0000111c       $pdata$_invoke_watson      000000018004811c     LIBCMT:invarg.obj
 0004:00001128       $pdata$memcpy_s            0000000180048128     LIBCMT:memcpy_s.obj
 0004:00001134       $pdata$wcscat_s            0000000180048134     LIBCMT:wcscat_s.obj
 0004:00001140       $pdata$wcscpy_s            0000000180048140     LIBCMT:wcscpy_s.obj
 0004:0000114c       $pdata$wcsncat_s           000000018004814c     LIBCMT:wcsncat_s.obj
 0004:00001158       $pdata$abort               0000000180048158     LIBCMT:abort.obj
 0004:00001164       $pdata$_set_error_mode     0000000180048164     LIBCMT:errmode.obj
 0004:00001170       $pdata$_itow_s             0000000180048170     LIBCMT:xtows.obj
 0004:0000117c       $pdata$xtow_s              000000018004817c     LIBCMT:xtows.obj
 0004:00001188       $pdata$__initstdio         0000000180048188     LIBCMT:_file.obj
 0004:00001194       $pdata$__endstdio          0000000180048194     LIBCMT:_file.obj
 0004:000011a0       $pdata$_lock_file          00000001800481a0     LIBCMT:_file.obj
 0004:000011ac       $pdata$_lock_file2         00000001800481ac     LIBCMT:_file.obj
 0004:000011b8       $pdata$_fflush_nolock      00000001800481b8     LIBCMT:fflush.obj
 0004:000011c4       $pdata$_flush              00000001800481c4     LIBCMT:fflush.obj
 0004:000011d0       $pdata$fflush              00000001800481d0     LIBCMT:fflush.obj
 0004:000011dc       $pdata$flsall              00000001800481dc     LIBCMT:fflush.obj
 0004:000011e8       $pdata$setvbuf             00000001800481e8     LIBCMT:setvbuf.obj
 0004:000011f4       $pdata$fwprintf            00000001800481f4     LIBCMT:fwprintf.obj
 0004:00001200       $pdata$_vswprintf_c_l      0000000180048200     LIBCMT:vswprnc.obj
 0004:0000120c       $pdata$_vswprintf_helper   000000018004820c     LIBCMT:vswprnc.obj
 0004:00001218       $pdata$raise               0000000180048218     LIBCMT:winsig.obj
 0004:00001224       $pdata$__crtMessageBoxW    0000000180048224     LIBCMT:crtmboxw.obj
 0004:00001230       $pdata$__GSHandlerCheck    0000000180048230     LIBCMT:gshandler.obj
 0004:0000123c       $pdata$__GSHandlerCheckCommon 000000018004823c     LIBCMT:gshandler.obj
 0004:00001248       $pdata$_msize              0000000180048248     LIBCMT:msize.obj
 0004:00001254       $pdata$_calloc_crt         0000000180048254     LIBCMT:crtheap.obj
 0004:00001260       $pdata$_malloc_crt         0000000180048260     LIBCMT:crtheap.obj
 0004:0000126c       $pdata$_realloc_crt        000000018004826c     LIBCMT:crtheap.obj
 0004:00001278       $pdata$_clrfp              0000000180048278     LIBCMT:fpctrl.obj
 0004:00001284       $pdata$_ctrlfp             0000000180048284     LIBCMT:fpctrl.obj
 0004:00001290       $pdata$_set_statfp         0000000180048290     LIBCMT:fpctrl.obj
 0004:0000129c       $pdata$_statfp             000000018004829c     LIBCMT:fpctrl.obj
 0004:000012a8       $pdata$_call_matherr       00000001800482a8     LIBCMT:libm_error.obj
 0004:000012b4       $pdata$_exception_enabled  00000001800482b4     LIBCMT:libm_error.obj
 0004:000012c0       $pdata$_handle_error       00000001800482c0     LIBCMT:libm_error.obj
 0004:000012cc       $pdata$_handle_errorf      00000001800482cc     LIBCMT:libm_error.obj
 0004:000012d8       $pdata$_flsbuf             00000001800482d8     LIBCMT:_flsbuf.obj
 0004:000012e4       $pdata$_output_l           00000001800482e4     LIBCMT:output.obj
 0004:000012f0       $pdata$write_char          00000001800482f0     LIBCMT:output.obj
 0004:000012fc       $pdata$write_multi_char    00000001800482fc     LIBCMT:output.obj
 0004:00001308       $pdata$write_string        0000000180048308     LIBCMT:output.obj
 0004:00001320       $pdata$_ftbuf              0000000180048320     LIBCMT:_sftbuf.obj
 0004:0000132c       $pdata$_stbuf              000000018004832c     LIBCMT:_sftbuf.obj
 0004:00001338       $pdata$_getstream          0000000180048338     LIBCMT:stream.obj
 0004:00001344       $pdata$_openfile           0000000180048344     LIBCMT:_open.obj
 0004:00001380       $pdata$_filbuf             0000000180048380     LIBCMT:_filbuf.obj
 0004:0000138c       $pdata$_fileno             000000018004838c     LIBCMT:fileno.obj
 0004:00001398       $pdata$_read               0000000180048398     LIBCMT:read.obj
 0004:000013a4       $pdata$_read_nolock        00000001800483a4     LIBCMT:read.obj
 0004:000013b0       $pdata$_ftell_nolock       00000001800483b0     LIBCMT:ftell.obj
 0004:000013bc       $pdata$_lseek              00000001800483bc     LIBCMT:lseek.obj
 0004:000013c8       $pdata$_lseek_nolock       00000001800483c8     LIBCMT:lseek.obj
 0004:000013d4       $pdata$_close              00000001800483d4     LIBCMT:close.obj
 0004:000013e0       $pdata$_close_nolock       00000001800483e0     LIBCMT:close.obj
 0004:000013ec       $pdata$_freebuf            00000001800483ec     LIBCMT:_freebuf.obj
 0004:000013f8       $pdata$__freetlocinfo      00000001800483f8     LIBCMT:localref.obj
 0004:00001404       $pdata$__updatetlocinfo    0000000180048404     LIBCMT:localref.obj
 0004:00001410       $pdata$_updatetlocinfoEx_nolock 0000000180048410     LIBCMT:localref.obj
 0004:0000141c       $pdata$__initmbctable      000000018004841c     LIBCMT:mbctype.obj
 0004:00001428       $pdata$?getSystemCP@@YAHH@Z 0000000180048428     LIBCMT:mbctype.obj
 0004:00001434       $pdata$?setSBCS@@YAXPEAUthreadmbcinfostruct@@@Z 0000000180048434     LIBCMT:mbctype.obj
 0004:00001440       $pdata$?setSBUpLow@@YAXPEAUthreadmbcinfostruct@@@Z 0000000180048440     LIBCMT:mbctype.obj
 0004:0000144c       $pdata$__updatetmbcinfo    000000018004844c     LIBCMT:mbctype.obj
 0004:00001458       $pdata$_setmbcp            0000000180048458     LIBCMT:mbctype.obj
 0004:00001464       $pdata$_setmbcp_nolock     0000000180048464     LIBCMT:mbctype.obj
 0004:00001470       $pdata$_tolower_l          0000000180048470     LIBCMT:tolower.obj
 0004:0000147c       $pdata$_freefls            000000018004847c     LIBCMT:tidtable.obj
 0004:00001488       $pdata$_freeptd            0000000180048488     LIBCMT:tidtable.obj
 0004:00001494       $pdata$_getptd             0000000180048494     LIBCMT:tidtable.obj
 0004:000014a0       $pdata$_getptd_noexit      00000001800484a0     LIBCMT:tidtable.obj
 0004:000014ac       $pdata$_initptd            00000001800484ac     LIBCMT:tidtable.obj
 0004:000014b8       $pdata$_mtinit             00000001800484b8     LIBCMT:tidtable.obj
 0004:000014c4       $pdata$_mtterm             00000001800484c4     LIBCMT:tidtable.obj
 0004:000014d0       $pdata$_locterm            00000001800484d0     LIBCMT:wsetloca.obj
 0004:000014dc       $pdata$_XcptFilter         00000001800484dc     LIBCMT:winxfltr.obj
 0004:000014e8       $pdata$_ioinit             00000001800484e8     LIBCMT:ioinit.obj
 0004:000014f4       $pdata$_ioterm             00000001800484f4     LIBCMT:ioinit.obj
 0004:00001500       $pdata$_setargv            0000000180048500     LIBCMT:stdargv.obj
 0004:0000150c       $pdata$parse_cmdline       000000018004850c     LIBCMT:stdargv.obj
 0004:00001518       $pdata$_setenvp            0000000180048518     LIBCMT:stdenvp.obj
 0004:00001524       $pdata$__security_init_cookie 0000000180048524     LIBCMT:gs_support.obj
 0004:00001530       $pdata$__crtGetEnvironmentStringsA 0000000180048530     LIBCMT:a_env.obj
 0004:0000153c       $pdata$__crtCaptureCurrentContext 000000018004853c     LIBCMT:winapisupp.obj
 0004:00001548       $pdata$__crtCapturePreviousContext 0000000180048548     LIBCMT:winapisupp.obj
 0004:00001554       $pdata$__crtInitializeCriticalSectionEx 0000000180048554     LIBCMT:winapisupp.obj
 0004:00001560       $pdata$__crtIsPackagedApp  0000000180048560     LIBCMT:winapisupp.obj
 0004:0000156c       $pdata$__crtLoadWinApiPointers 000000018004856c     LIBCMT:winapisupp.obj
 0004:00001578       $pdata$__crtTerminateProcess 0000000180048578     LIBCMT:winapisupp.obj
 0004:00001584       $pdata$__crtUnhandledException 0000000180048584     LIBCMT:winapisupp.obj
 0004:00001590       $pdata$_RTC_Initialize     0000000180048590     LIBCMT:initsect.obj
 0004:0000159c       $pdata$_RTC_Terminate      000000018004859c     LIBCMT:initsect.obj
 0004:000015a8       $pdata$__DestructExceptionObject 00000001800485a8     LIBCMT:frame.obj
 0004:000015b4       $pdata$??0bad_exception@std@@QEAA@AEBV01@@Z 00000001800485b4     LIBCMT:frame.obj
 0004:000015c0       $pdata$??_Gbad_exception@std@@UEAAPEAXI@Z 00000001800485c0     LIBCMT:frame.obj
 0004:000015cc       $pdata$?CatchIt@@YAXPEAUEHExceptionRecord@@PEA_KPEAU_CONTEXT@@PEAU_xDISPATCHER_CONTEXT@@PEBU_s_FuncInfo@@PEBU_s_HandlerType@@PEBU_s_CatchableType@@PEBU_s_TryBlockMapEntry@@H1EE@Z 00000001800485cc     LIBCMT:frame.obj
 0004:000015d8       $pdata$?FindHandler@@YAXPEAUEHExceptionRecord@@PEA_KPEAU_CONTEXT@@PEAU_xDISPATCHER_CONTEXT@@PEBU_s_FuncInfo@@EH1@Z 00000001800485d8     LIBCMT:frame.obj
 0004:000015e4       $pdata$?FindHandlerForForeignException@@YAXPEAUEHExceptionRecord@@PEA_KPEAU_CONTEXT@@PEAU_xDISPATCHER_CONTEXT@@PEBU_s_FuncInfo@@HH1@Z 00000001800485e4     LIBCMT:frame.obj
 0004:000015f0       $pdata$?IsInExceptionSpec@@YAEPEAUEHExceptionRecord@@PEBU_s_ESTypeList@@@Z 00000001800485f0     LIBCMT:frame.obj
 0004:000015fc       $pdata$__BuildCatchObject  00000001800485fc     LIBCMT:frame.obj
 0004:00001608       $pdata$__BuildCatchObjectHelper 0000000180048608     LIBCMT:frame.obj
 0004:00001614       $pdata$__CxxCallCatchBlock 0000000180048614     LIBCMT:frame.obj
 0004:00001620       $pdata$__FrameUnwindFilter 0000000180048620     LIBCMT:frame.obj
 0004:0000162c       $pdata$__FrameUnwindToState 000000018004862c     LIBCMT:frame.obj
 0004:00001638       $pdata$__InternalCxxFrameHandler 0000000180048638     LIBCMT:frame.obj
 0004:00001644       $pdata$__TypeMatch         0000000180048644     LIBCMT:frame.obj
 0004:00001650       $pdata$?__GetCurrentState@@YAHPEA_KPEAU_xDISPATCHER_CONTEXT@@PEBU_s_FuncInfo@@@Z 0000000180048650     LIBCMT:ehstate.obj
 0004:0000165c       $pdata$?__GetUnwindTryBlock@@YAHPEA_KPEAU_xDISPATCHER_CONTEXT@@PEBU_s_FuncInfo@@@Z 000000018004865c     LIBCMT:ehstate.obj
 0004:00001668       $pdata$?__SetUnwindTryBlock@@YAXPEA_KPEAU_xDISPATCHER_CONTEXT@@PEBU_s_FuncInfo@@H@Z 0000000180048668     LIBCMT:ehstate.obj
 0004:00001674       $pdata$?__StateFromIp@@YAHPEBU_s_FuncInfo@@PEAU_xDISPATCHER_CONTEXT@@_J@Z 0000000180048674     LIBCMT:ehstate.obj
 0004:0000168c       $pdata$?_Type_info_dtor@type_info@@CAXPEAV1@@Z 000000018004868c     LIBCMT:typname.obj
 0004:00001698       $pdata$_cfltcvt            0000000180048698     LIBCMT:cvt.obj
 0004:000016a4       $pdata$_cfltcvt_l          00000001800486a4     LIBCMT:cvt.obj
 0004:000016b0       $pdata$_cftoa_l            00000001800486b0     LIBCMT:cvt.obj
 0004:000016bc       $pdata$_cftoe2_l           00000001800486bc     LIBCMT:cvt.obj
 0004:000016c8       $pdata$_cftoe_l            00000001800486c8     LIBCMT:cvt.obj
 0004:000016d4       $pdata$_cftof2_l           00000001800486d4     LIBCMT:cvt.obj
 0004:000016e0       $pdata$_cftof_l            00000001800486e0     LIBCMT:cvt.obj
 0004:000016ec       $pdata$_cftog_l            00000001800486ec     LIBCMT:cvt.obj
 0004:000016f8       $pdata$_cropzeros_l        00000001800486f8     LIBCMT:cvt.obj
 0004:00001704       $pdata$_fassign_l          0000000180048704     LIBCMT:cvt.obj
 0004:00001710       $pdata$_forcdecpt_l        0000000180048710     LIBCMT:cvt.obj
 0004:0000171c       $pdata$_initp_misc_cfltcvt_tab 000000018004871c     LIBCMT:cmiscdat.obj
 0004:00001728       $pdata$strcpy_s            0000000180048728     LIBCMT:strcpy_s.obj
 0004:00001734       $pdata$_lock               0000000180048734     LIBCMT:mlock.obj
 0004:00001740       $pdata$_mtdeletelocks      0000000180048740     LIBCMT:mlock.obj
 0004:0000174c       $pdata$_mtinitlocknum      000000018004874c     LIBCMT:mlock.obj
 0004:00001758       $pdata$_mtinitlocks        0000000180048758     LIBCMT:mlock.obj
 0004:00001764       $pdata$_IsNonwritableInCurrentImage 0000000180048764     LIBCMT:pesect.obj
 0004:00001770       $pdata$wcsncpy_s           0000000180048770     LIBCMT:wcsncpy_s.obj
 0004:0000177c       $pdata$_fcloseall          000000018004877c     LIBCMT:closeall.obj
 0004:00001788       $pdata$_commit             0000000180048788     LIBCMT:commit.obj
 0004:00001794       $pdata$_write              0000000180048794     LIBCMT:write.obj
 0004:000017a0       $pdata$_write_nolock       00000001800487a0     LIBCMT:write.obj
 0004:000017ac       $pdata$_woutput_l          00000001800487ac     LIBCMT:woutput.obj
 0004:000017b8       $pdata$write_char          00000001800487b8     LIBCMT:woutput.obj
 0004:000017c4       $pdata$write_multi_char    00000001800487c4     LIBCMT:woutput.obj
 0004:000017d0       $pdata$write_string        00000001800487d0     LIBCMT:woutput.obj
 0004:000017dc       $pdata$_calloc_impl        00000001800487dc     LIBCMT:calloc_impl.obj
 0004:000017e8       $pdata$GetTableIndexFromLocaleName 00000001800487e8     LIBCMT:winapinls.obj
 0004:000017f4       $pdata$__crtDownlevelLocaleNameToLCID 00000001800487f4     LIBCMT:winapinls.obj
 0004:00001800       $pdata$__crtLCMapStringEx  0000000180048800     LIBCMT:winapinls.obj
 0004:00001818       $pdata$_raise_exc          0000000180048818     LIBCMT:fpexcept.obj
 0004:00001824       $pdata$_raise_exc_ex       0000000180048824     LIBCMT:fpexcept.obj
 0004:00001830       $pdata$_raise_excf         0000000180048830     LIBCMT:fpexcept.obj
 0004:0000183c       $pdata$_set_errno_from_matherr 000000018004883c     LIBCMT:fpexcept.obj
 0004:00001848       $pdata$_isatty             0000000180048848     LIBCMT:isatty.obj
 0004:00001854       $pdata$_lseeki64           0000000180048854     LIBCMT:lseeki64.obj
 0004:00001860       $pdata$_lseeki64_nolock    0000000180048860     LIBCMT:lseeki64.obj
 0004:0000186c       $pdata$_getbuf             000000018004886c     LIBCMT:_getbuf.obj
 0004:00001878       $pdata$_isleadbyte_l       0000000180048878     LIBCMT:_wctype.obj
 0004:00001884       $pdata$isleadbyte          0000000180048884     LIBCMT:_wctype.obj
 0004:00001890       $pdata$_wctomb_s_l         0000000180048890     LIBCMT:wctomb.obj
 0004:0000189c       $pdata$wctomb_s            000000018004889c     LIBCMT:wctomb.obj
 0004:000018a8       $pdata$_sopen_helper       00000001800488a8     LIBCMT:open.obj
 0004:000018b4       $pdata$_sopen_nolock       00000001800488b4     LIBCMT:open.obj
 0004:000018c0       $pdata$_sopen_s            00000001800488c0     LIBCMT:open.obj
 0004:000018cc       $pdata$_mbsnbcmp_l         00000001800488cc     LIBCMT:mbsnbcmp.obj
 0004:000018d8       $pdata$_mbsnbicmp_l        00000001800488d8     LIBCMT:mbsnbicm.obj
 0004:000018e4       $pdata$__lock_fhandle      00000001800488e4     LIBCMT:osfinfo.obj
 0004:000018f0       $pdata$_alloc_osfhnd       00000001800488f0     LIBCMT:osfinfo.obj
 0004:000018fc       $pdata$_free_osfhnd        00000001800488fc     LIBCMT:osfinfo.obj
 0004:00001908       $pdata$_get_osfhandle      0000000180048908     LIBCMT:osfinfo.obj
 0004:00001914       $pdata$_set_osfhnd         0000000180048914     LIBCMT:osfinfo.obj
 0004:0000192c       $pdata$__free_lconv_mon    000000018004892c     LIBCMT:initmon.obj
 0004:00001938       $pdata$__free_lconv_num    0000000180048938     LIBCMT:initnum.obj
 0004:00001944       $pdata$__free_lc_time      0000000180048944     LIBCMT:inittime.obj
 0004:00001950       $pdata$?__crtLCMapStringA_stat@@YAHPEAUlocaleinfo_struct@@PEB_WKPEBDHPEADHHH@Z 0000000180048950     LIBCMT:a_map.obj
 0004:0000195c       $pdata$__crtLCMapStringA   000000018004895c     LIBCMT:a_map.obj
 0004:00001968       $pdata$?__crtGetStringTypeA_stat@@YAHPEAUlocaleinfo_struct@@KPEBDHPEAGHH@Z 0000000180048968     LIBCMT:a_str.obj
 0004:00001974       $pdata$__crtGetStringTypeA 0000000180048974     LIBCMT:a_str.obj
 0004:00001980       $pdata$_isctype_l          0000000180048980     LIBCMT:isctype.obj
 0004:00001998       $pdata$?x_ismbbtype_l@@YAHPEAUlocaleinfo_struct@@IHH@Z 0000000180048998     LIBCMT:ismbbyte.obj
 0004:000019b0       $pdata$isdigit             00000001800489b0     LIBCMT:_ctype.obj
 0004:000019bc       $pdata$strrchr             00000001800489bc     LIBCMT:strrchr.obj
 0004:000019c8       $pdata$_fptostr            00000001800489c8     LIBCMT:_fptostr.obj
 0004:000019d4       $pdata$__crt_atoflt_l      00000001800489d4     LIBCMT:atodbl.obj
 0004:000019e0       $pdata$_atodbl_l           00000001800489e0     LIBCMT:atodbl.obj
 0004:000019ec       $pdata$__dtold             00000001800489ec     LIBCMT:cfout.obj
 0004:000019f8       $pdata$_fltout2            00000001800489f8     LIBCMT:cfout.obj
 0004:00001a04       $pdata$_mbtowc_l           0000000180048a04     LIBCMT:mbtowc.obj
 0004:00001a10       $pdata$_putwch_nolock      0000000180048a10     LIBCMT:putwch.obj
 0004:00001a1c       $pdata$_fputwc_nolock      0000000180048a1c     LIBCMT:fputwc.obj
 0004:00001a28       $pdata$__createFile        0000000180048a28     LIBCMT:wopen.obj
 0004:00001a34       $pdata$_wsopen_nolock      0000000180048a34     LIBCMT:wopen.obj
 0004:00001a4c       $pdata$_strnicmp           0000000180048a4c     LIBCMT:strnicmp.obj
 0004:00001a58       $pdata$_strnicmp_l         0000000180048a58     LIBCMT:strnicmp.obj
 0004:00001a64       $pdata$_ld12tod            0000000180048a64     LIBCMT:intrncvt.obj
 0004:00001a70       $pdata$_ld12tof            0000000180048a70     LIBCMT:intrncvt.obj
 0004:00001a7c       $pdata$__strgtold12_l      0000000180048a7c     LIBCMT:strgtold.obj
 0004:00001a88       $pdata$$I10_OUTPUT         0000000180048a88     LIBCMT:x10fout.obj
 0004:00001a94       $pdata$__termconout        0000000180048a94     LIBCMT:initcon.obj
 0004:00001aa0       $pdata$__initconout        0000000180048aa0     LIBCMT:initcon.obj
 0004:00001aac       $pdata$_flswbuf            0000000180048aac     LIBCMT:_flswbuf.obj
 0004:00001ab8       $pdata$_chsize_nolock      0000000180048ab8     LIBCMT:chsize.obj
 0004:00001ac4       $pdata$_get_fmode          0000000180048ac4     LIBCMT:setmode.obj
 0004:00001ad0       $pdata$_setmode_nolock     0000000180048ad0     LIBCMT:setmode.obj
 0004:00001adc       $pdata$__mtold12           0000000180048adc     LIBCMT:mantold.obj
 0004:00001ae8       $pdata$__delayLoadHelper2  0000000180048ae8     DelayImp:delayhlp.obj
 0004:00001af4       $pdata$_strdup             0000000180048af4     LIBCMT:strdup.obj
 0004:00001b00       $pdata$__GSHandlerCheck_EH 0000000180048b00     LIBCMT:gshandlereh.obj
 0004:00001b18       $pdata$acos                0000000180048b18     LIBCMT:acos.obj
 0004:00001b24       $pdata$acosf               0000000180048b24     LIBCMT:acosf.obj
 0004:00001b30       $pdata$floor               0000000180048b30     LIBCMT:floor.obj
 0004:00001b3c       $pdata$fmodf               0000000180048b3c     LIBCMT:fmodf.obj
 0004:00001b48       $pdata$sqrtf               0000000180048b48     LIBCMT:sqrtf.obj
 0004:00001b6c       $pdata$__fma3_lib_init     0000000180048b6c     LIBCMT:fma3_available.obj
 0004:00001b78       $pdata$_sincos_special     0000000180048b78     LIBCMT:sincos_special.obj
 0004:00001bb4       $pdata$?fin$0@?0???_M@YAXPEAX_KHP6AX0@Z@Z@4HA 0000000180048bb4     LIBCMT:ehvecdtr.obj
 0004:00001bc0       $pdata$?filt$0@?0??__ArrayUnwind@@YAXPEAX_KHP6AX0@Z@Z@4HA 0000000180048bc0     LIBCMT:ehvecdtr.obj
 0004:00001bcc       $pdata$_onexit$fin$0       0000000180048bcc     LIBCMT:onexit.obj
 0004:00001bd8       $pdata$fwprintf$fin$0      0000000180048bd8     LIBCMT:fopen.obj
 0004:00001bd8       $pdata$_fsopen$fin$0       0000000180048bd8     LIBCMT:fopen.obj
 0004:00001be4       $pdata$fread_s$fin$0       0000000180048be4     LIBCMT:fread.obj
 0004:00001bf0       $pdata$_CRT_INIT$fin$0     0000000180048bf0     LIBCMT:dllcrt0.obj
 0004:00001bfc       $pdata$__DllMainCRTStartup$filt$0 0000000180048bfc     LIBCMT:dllcrt0.obj
 0004:00001c08       $pdata$_CallSETranslator$filt$0 0000000180048c08     LIBCMT:trnsctrl.obj
 0004:00001c14       $pdata$doexit$fin$0        0000000180048c14     LIBCMT:crt0dat.obj
 0004:00001c20       $pdata$fflush$fin$0        0000000180048c20     LIBCMT:fflush.obj
 0004:00001c20       $pdata$fseek$fin$0         0000000180048c20     LIBCMT:fflush.obj
 0004:00001c20       $pdata$fclose$fin$0        0000000180048c20     LIBCMT:fflush.obj
 0004:00001c2c       $pdata$flsall$fin$0        0000000180048c2c     LIBCMT:fflush.obj
 0004:00001c38       $pdata$flsall$fin$1        0000000180048c38     LIBCMT:fflush.obj
 0004:00001c44       $pdata$setvbuf$fin$0       0000000180048c44     LIBCMT:setvbuf.obj
 0004:00001c50       $pdata$raise$fin$0         0000000180048c50     LIBCMT:winsig.obj
 0004:00001c5c       $pdata$_ctrlfp$filt$0      0000000180048c5c     LIBCMT:fpctrl.obj
 0004:00001c68       $pdata$_lseek$fin$0        0000000180048c68     LIBCMT:lseek.obj
 0004:00001c68       $pdata$_lseeki64$fin$0     0000000180048c68     LIBCMT:lseek.obj
 0004:00001c68       $pdata$_write$fin$0        0000000180048c68     LIBCMT:lseek.obj
 0004:00001c68       $pdata$_read$fin$0         0000000180048c68     LIBCMT:lseek.obj
 0004:00001c74       $pdata$_setmbcp$fin$0      0000000180048c74     LIBCMT:mbctype.obj
 0004:00001c74       $pdata$__updatetmbcinfo$fin$0 0000000180048c74     LIBCMT:mbctype.obj
 0004:00001c80       $pdata$_initptd$fin$1      0000000180048c80     LIBCMT:tidtable.obj
 0004:00001c80       $pdata$_freefls$fin$1      0000000180048c80     LIBCMT:tidtable.obj
 0004:00001c8c       $pdata$_freefls$fin$0      0000000180048c8c     LIBCMT:tidtable.obj
 0004:00001c8c       $pdata$_initptd$fin$0      0000000180048c8c     LIBCMT:tidtable.obj
 0004:00001c98       $pdata$__updatetlocinfo$fin$0 0000000180048c98     LIBCMT:wsetloca.obj
 0004:00001c98       $pdata$_locterm$fin$0      0000000180048c98     LIBCMT:wsetloca.obj
 0004:00001ca4       $pdata$_ioinit$fin$0       0000000180048ca4     LIBCMT:ioinit.obj
 0004:00001cb0       $pdata$__CxxCallCatchBlock$filt$0 0000000180048cb0     LIBCMT:frame.obj
 0004:00001cbc       $pdata$__CxxCallCatchBlock$fin$1 0000000180048cbc     LIBCMT:frame.obj
 0004:00001cc8       $pdata$__DestructExceptionObject$filt$0 0000000180048cc8     LIBCMT:frame.obj
 0004:00001cd4       $pdata$__FrameUnwindToState$filt$0 0000000180048cd4     LIBCMT:frame.obj
 0004:00001ce0       $pdata$__FrameUnwindToState$fin$1 0000000180048ce0     LIBCMT:frame.obj
 0004:00001cec       $pdata$?fin$0@?0??_Type_info_dtor@type_info@@CAXPEAV1@@Z@4HA 0000000180048cec     LIBCMT:typname.obj
 0004:00001cf8       $pdata$_mtinitlocknum$fin$0 0000000180048cf8     LIBCMT:mlock.obj
 0004:00001d04       $pdata$_IsNonwritableInCurrentImage$filt$0 0000000180048d04     LIBCMT:pesect.obj
 0004:00001d10       $pdata$_fcloseall$fin$0    0000000180048d10     LIBCMT:closeall.obj
 0004:00001d10       $pdata$_getstream$fin$0    0000000180048d10     LIBCMT:closeall.obj
 0004:00001d1c       $pdata$_commit$fin$0       0000000180048d1c     LIBCMT:commit.obj
 0004:00001d1c       $pdata$_close$fin$0        0000000180048d1c     LIBCMT:commit.obj
 0004:00001d28       $pdata$_sopen_helper$fin$0 0000000180048d28     LIBCMT:open.obj
 0004:00001d34       $pdata$__lock_fhandle$fin$0 0000000180048d34     LIBCMT:osfinfo.obj
 0004:00001d40       $pdata$_alloc_osfhnd$fin$0 0000000180048d40     LIBCMT:osfinfo.obj
 0004:00001d4c       $pdata$_alloc_osfhnd$fin$1 0000000180048d4c     LIBCMT:osfinfo.obj
 0005:00000060       $R000000                   0000000180049060     * linker generated manifest res *

 Exports

  ordinal    name

        1    ??0Allocator@ArrayBuffer@v8@@QEAA@AEBV012@@Z (public: __cdecl v8::ArrayBuffer::Allocator::Allocator(class v8::ArrayBuffer::Allocator const &))
        2    ??0Allocator@ArrayBuffer@v8@@QEAA@XZ (public: __cdecl v8::ArrayBuffer::Allocator::Allocator(void))
        3    ??0CachedData@ScriptCompiler@v8@@QEAA@XZ (public: __cdecl v8::ScriptCompiler::CachedData::CachedData(void))
        4    ??0Contents@ArrayBuffer@v8@@QEAA@XZ (public: __cdecl v8::ArrayBuffer::Contents::Contents(void))
        5    ??0Contents@SharedArrayBuffer@v8@@QEAA@XZ (public: __cdecl v8::SharedArrayBuffer::Contents::Contents(void))
        6    ??0ExtensionConfiguration@v8@@QEAA@HQEAPEBD@Z (public: __cdecl v8::ExtensionConfiguration::ExtensionConfiguration(int,char const * * const))
        7    ??0ExtensionConfiguration@v8@@QEAA@XZ (public: __cdecl v8::ExtensionConfiguration::ExtensionConfiguration(void))
        8    ??0ExternalOneByteStringResource@String@v8@@IEAA@XZ (protected: __cdecl v8::String::ExternalOneByteStringResource::ExternalOneByteStringResource(void))
        9    ??0ExternalOneByteStringResourceImpl@v8@@QEAA@PEBD_K@Z (public: __cdecl v8::ExternalOneByteStringResourceImpl::ExternalOneByteStringResourceImpl(char const *,unsigned __int64))
       10    ??0ExternalOneByteStringResourceImpl@v8@@QEAA@XZ (public: __cdecl v8::ExternalOneByteStringResourceImpl::ExternalOneByteStringResourceImpl(void))
       11    ??0ExternalResourceVisitor@v8@@QEAA@AEBV01@@Z (public: __cdecl v8::ExternalResourceVisitor::ExternalResourceVisitor(class v8::ExternalResourceVisitor const &))
       12    ??0ExternalResourceVisitor@v8@@QEAA@XZ (public: __cdecl v8::ExternalResourceVisitor::ExternalResourceVisitor(void))
       13    ??0ExternalSourceStream@ScriptCompiler@v8@@QEAA@AEBV012@@Z (public: __cdecl v8::ScriptCompiler::ExternalSourceStream::ExternalSourceStream(class v8::ScriptCompiler::ExternalSourceStream const &))
       14    ??0ExternalSourceStream@ScriptCompiler@v8@@QEAA@XZ (public: __cdecl v8::ScriptCompiler::ExternalSourceStream::ExternalSourceStream(void))
       15    ??0ExternalStringResource@String@v8@@IEAA@XZ (protected: __cdecl v8::String::ExternalStringResource::ExternalStringResource(void))
       16    ??0ExternalStringResourceBase@String@v8@@IEAA@XZ (protected: __cdecl v8::String::ExternalStringResourceBase::ExternalStringResourceBase(void))
       17    ??0HandleScope@v8@@IEAA@XZ (protected: __cdecl v8::HandleScope::HandleScope(void))
       18    ??0Locker@v8@@QEAA@PEAVIsolate@1@@Z (public: __cdecl v8::Locker::Locker(class v8::Isolate *))
       19    ??0PersistentHandleVisitor@v8@@QEAA@AEBV01@@Z (public: __cdecl v8::PersistentHandleVisitor::PersistentHandleVisitor(class v8::PersistentHandleVisitor const &))
       20    ??0PersistentHandleVisitor@v8@@QEAA@XZ (public: __cdecl v8::PersistentHandleVisitor::PersistentHandleVisitor(void))
       21    ??0Scope@Isolate@v8@@QEAA@PEAV12@@Z (public: __cdecl v8::Isolate::Scope::Scope(class v8::Isolate *))
       22    ??0Unlocker@v8@@QEAA@PEAVIsolate@1@@Z (public: __cdecl v8::Unlocker::Unlocker(class v8::Isolate *))
       23    ??1Allocator@ArrayBuffer@v8@@UEAA@XZ (public: virtual __cdecl v8::ArrayBuffer::Allocator::~Allocator(void))
       24    ??1EscapableHandleScope@v8@@QEAA@XZ (public: __cdecl v8::EscapableHandleScope::~EscapableHandleScope(void))
       25    ??1Extension@v8@@UEAA@XZ (public: virtual __cdecl v8::Extension::~Extension(void))
       26    ??1ExternalOneByteStringResource@String@v8@@UEAA@XZ (public: virtual __cdecl v8::String::ExternalOneByteStringResource::~ExternalOneByteStringResource(void))
       27    ??1ExternalOneByteStringResourceImpl@v8@@UEAA@XZ (public: virtual __cdecl v8::ExternalOneByteStringResourceImpl::~ExternalOneByteStringResourceImpl(void))
       28    ??1ExternalResourceVisitor@v8@@UEAA@XZ (public: virtual __cdecl v8::ExternalResourceVisitor::~ExternalResourceVisitor(void))
       29    ??1ExternalSourceStream@ScriptCompiler@v8@@UEAA@XZ (public: virtual __cdecl v8::ScriptCompiler::ExternalSourceStream::~ExternalSourceStream(void))
       30    ??1ExternalStringResource@String@v8@@UEAA@XZ (public: virtual __cdecl v8::String::ExternalStringResource::~ExternalStringResource(void))
       31    ??1ExternalStringResourceBase@String@v8@@UEAA@XZ (public: virtual __cdecl v8::String::ExternalStringResourceBase::~ExternalStringResourceBase(void))
       32    ??1PersistentHandleVisitor@v8@@UEAA@XZ (public: virtual __cdecl v8::PersistentHandleVisitor::~PersistentHandleVisitor(void))
       33    ??1Scope@Isolate@v8@@QEAA@XZ (public: __cdecl v8::Isolate::Scope::~Scope(void))
       34    ??4AccessorSignature@v8@@QEAAAEAV01@AEBV01@@Z (public: class v8::AccessorSignature & __cdecl v8::AccessorSignature::operator=(class v8::AccessorSignature const &))
       35    ??4Allocator@ArrayBuffer@v8@@QEAAAEAV012@AEBV012@@Z (public: class v8::ArrayBuffer::Allocator & __cdecl v8::ArrayBuffer::Allocator::operator=(class v8::ArrayBuffer::Allocator const &))
       36    ??4Array@v8@@QEAAAEAV01@AEBV01@@Z (public: class v8::Array & __cdecl v8::Array::operator=(class v8::Array const &))
       37    ??4ArrayBuffer@v8@@QEAAAEAV01@AEBV01@@Z (public: class v8::ArrayBuffer & __cdecl v8::ArrayBuffer::operator=(class v8::ArrayBuffer const &))
       38    ??4ArrayBufferView@v8@@QEAAAEAV01@AEBV01@@Z (public: class v8::ArrayBufferView & __cdecl v8::ArrayBufferView::operator=(class v8::ArrayBufferView const &))
       39    ??4Boolean@v8@@QEAAAEAV01@AEBV01@@Z (public: class v8::Boolean & __cdecl v8::Boolean::operator=(class v8::Boolean const &))
       40    ??4BooleanObject@v8@@QEAAAEAV01@AEBV01@@Z (public: class v8::BooleanObject & __cdecl v8::BooleanObject::operator=(class v8::BooleanObject const &))
       41    ??4Contents@ArrayBuffer@v8@@QEAAAEAV012@AEBV012@@Z (public: class v8::ArrayBuffer::Contents & __cdecl v8::ArrayBuffer::Contents::operator=(class v8::ArrayBuffer::Contents const &))
       42    ??4Contents@SharedArrayBuffer@v8@@QEAAAEAV012@AEBV012@@Z (public: class v8::SharedArrayBuffer::Contents & __cdecl v8::SharedArrayBuffer::Contents::operator=(class v8::SharedArrayBuffer::Contents const &))
       43    ??4Context@v8@@QEAAAEAV01@AEBV01@@Z (public: class v8::Context & __cdecl v8::Context::operator=(class v8::Context const &))
       44    ??4Data@v8@@QEAAAEAV01@AEBV01@@Z (public: class v8::Data & __cdecl v8::Data::operator=(class v8::Data const &))
       45    ??4DataView@v8@@QEAAAEAV01@AEBV01@@Z (public: class v8::DataView & __cdecl v8::DataView::operator=(class v8::DataView const &))
       46    ??4Date@v8@@QEAAAEAV01@AEBV01@@Z (public: class v8::Date & __cdecl v8::Date::operator=(class v8::Date const &))
       47    ??4Exception@v8@@QEAAAEAV01@AEBV01@@Z (public: class v8::Exception & __cdecl v8::Exception::operator=(class v8::Exception const &))
       48    ??4External@v8@@QEAAAEAV01@AEBV01@@Z (public: class v8::External & __cdecl v8::External::operator=(class v8::External const &))
       49    ??4ExternalResourceVisitor@v8@@QEAAAEAV01@AEBV01@@Z (public: class v8::ExternalResourceVisitor & __cdecl v8::ExternalResourceVisitor::operator=(class v8::ExternalResourceVisitor const &))
       50    ??4ExternalSourceStream@ScriptCompiler@v8@@QEAAAEAV012@AEBV012@@Z (public: class v8::ScriptCompiler::ExternalSourceStream & __cdecl v8::ScriptCompiler::ExternalSourceStream::operator=(class v8::ScriptCompiler::ExternalSourceStream const &))
       51    ??4Float32Array@v8@@QEAAAEAV01@AEBV01@@Z (public: class v8::Float32Array & __cdecl v8::Float32Array::operator=(class v8::Float32Array const &))
       52    ??4Float64Array@v8@@QEAAAEAV01@AEBV01@@Z (public: class v8::Float64Array & __cdecl v8::Float64Array::operator=(class v8::Float64Array const &))
       53    ??4Function@v8@@QEAAAEAV01@AEBV01@@Z (public: class v8::Function & __cdecl v8::Function::operator=(class v8::Function const &))
       54    ??4FunctionTemplate@v8@@QEAAAEAV01@AEBV01@@Z (public: class v8::FunctionTemplate & __cdecl v8::FunctionTemplate::operator=(class v8::FunctionTemplate const &))
       55    ??4HeapObjectStatistics@v8@@QEAAAEAV01@AEBV01@@Z (public: class v8::HeapObjectStatistics & __cdecl v8::HeapObjectStatistics::operator=(class v8::HeapObjectStatistics const &))
       56    ??4HeapSpaceStatistics@v8@@QEAAAEAV01@AEBV01@@Z (public: class v8::HeapSpaceStatistics & __cdecl v8::HeapSpaceStatistics::operator=(class v8::HeapSpaceStatistics const &))
       57    ??4HeapStatistics@v8@@QEAAAEAV01@AEBV01@@Z (public: class v8::HeapStatistics & __cdecl v8::HeapStatistics::operator=(class v8::HeapStatistics const &))
       58    ??4Int16Array@v8@@QEAAAEAV01@AEBV01@@Z (public: class v8::Int16Array & __cdecl v8::Int16Array::operator=(class v8::Int16Array const &))
       59    ??4Int32@v8@@QEAAAEAV01@AEBV01@@Z (public: class v8::Int32 & __cdecl v8::Int32::operator=(class v8::Int32 const &))
       60    ??4Int32Array@v8@@QEAAAEAV01@AEBV01@@Z (public: class v8::Int32Array & __cdecl v8::Int32Array::operator=(class v8::Int32Array const &))
       61    ??4Int8Array@v8@@QEAAAEAV01@AEBV01@@Z (public: class v8::Int8Array & __cdecl v8::Int8Array::operator=(class v8::Int8Array const &))
       62    ??4Integer@v8@@QEAAAEAV01@AEBV01@@Z (public: class v8::Integer & __cdecl v8::Integer::operator=(class v8::Integer const &))
       63    ??4JSON@v8@@QEAAAEAV01@AEBV01@@Z (public: class v8::JSON & __cdecl v8::JSON::operator=(class v8::JSON const &))
       64    ??4Map@v8@@QEAAAEAV01@AEBV01@@Z (public: class v8::Map & __cdecl v8::Map::operator=(class v8::Map const &))
       65    ??4Message@v8@@QEAAAEAV01@AEBV01@@Z (public: class v8::Message & __cdecl v8::Message::operator=(class v8::Message const &))
       66    ??4Name@v8@@QEAAAEAV01@AEBV01@@Z (public: class v8::Name & __cdecl v8::Name::operator=(class v8::Name const &))
       67    ??4NativeWeakMap@v8@@QEAAAEAV01@AEBV01@@Z (public: class v8::NativeWeakMap & __cdecl v8::NativeWeakMap::operator=(class v8::NativeWeakMap const &))
       68    ??4Number@v8@@QEAAAEAV01@AEBV01@@Z (public: class v8::Number & __cdecl v8::Number::operator=(class v8::Number const &))
       69    ??4NumberObject@v8@@QEAAAEAV01@AEBV01@@Z (public: class v8::NumberObject & __cdecl v8::NumberObject::operator=(class v8::NumberObject const &))
       70    ??4Object@v8@@QEAAAEAV01@AEBV01@@Z (public: class v8::Object & __cdecl v8::Object::operator=(class v8::Object const &))
       71    ??4ObjectTemplate@v8@@QEAAAEAV01@AEBV01@@Z (public: class v8::ObjectTemplate & __cdecl v8::ObjectTemplate::operator=(class v8::ObjectTemplate const &))
       72    ??4PersistentHandleVisitor@v8@@QEAAAEAV01@AEBV01@@Z (public: class v8::PersistentHandleVisitor & __cdecl v8::PersistentHandleVisitor::operator=(class v8::PersistentHandleVisitor const &))
       73    ??4Primitive@v8@@QEAAAEAV01@AEBV01@@Z (public: class v8::Primitive & __cdecl v8::Primitive::operator=(class v8::Primitive const &))
       74    ??4Promise@v8@@QEAAAEAV01@AEBV01@@Z (public: class v8::Promise & __cdecl v8::Promise::operator=(class v8::Promise const &))
       75    ??4RegExp@v8@@QEAAAEAV01@AEBV01@@Z (public: class v8::RegExp & __cdecl v8::RegExp::operator=(class v8::RegExp const &))
       76    ??4Resolver@Promise@v8@@QEAAAEAV012@AEBV012@@Z (public: class v8::Promise::Resolver & __cdecl v8::Promise::Resolver::operator=(class v8::Promise::Resolver const &))
       77    ??4ResourceConstraints@v8@@QEAAAEAV01@AEBV01@@Z (public: class v8::ResourceConstraints & __cdecl v8::ResourceConstraints::operator=(class v8::ResourceConstraints const &))
       78    ??4Script@v8@@QEAAAEAV01@AEBV01@@Z (public: class v8::Script & __cdecl v8::Script::operator=(class v8::Script const &))
       79    ??4ScriptCompiler@v8@@QEAAAEAV01@AEBV01@@Z (public: class v8::ScriptCompiler & __cdecl v8::ScriptCompiler::operator=(class v8::ScriptCompiler const &))
       80    ??4Set@v8@@QEAAAEAV01@AEBV01@@Z (public: class v8::Set & __cdecl v8::Set::operator=(class v8::Set const &))
       81    ??4SharedArrayBuffer@v8@@QEAAAEAV01@AEBV01@@Z (public: class v8::SharedArrayBuffer & __cdecl v8::SharedArrayBuffer::operator=(class v8::SharedArrayBuffer const &))
       82    ??4Signature@v8@@QEAAAEAV01@AEBV01@@Z (public: class v8::Signature & __cdecl v8::Signature::operator=(class v8::Signature const &))
       83    ??4StackFrame@v8@@QEAAAEAV01@AEBV01@@Z (public: class v8::StackFrame & __cdecl v8::StackFrame::operator=(class v8::StackFrame const &))
       84    ??4StackTrace@v8@@QEAAAEAV01@AEBV01@@Z (public: class v8::StackTrace & __cdecl v8::StackTrace::operator=(class v8::StackTrace const &))
       85    ??4StartupData@v8@@QEAAAEAV01@AEBV01@@Z (public: class v8::StartupData & __cdecl v8::StartupData::operator=(class v8::StartupData const &))
       86    ??4String@v8@@QEAAAEAV01@AEBV01@@Z (public: class v8::String & __cdecl v8::String::operator=(class v8::String const &))
       87    ??4StringObject@v8@@QEAAAEAV01@AEBV01@@Z (public: class v8::StringObject & __cdecl v8::StringObject::operator=(class v8::StringObject const &))
       88    ??4Symbol@v8@@QEAAAEAV01@AEBV01@@Z (public: class v8::Symbol & __cdecl v8::Symbol::operator=(class v8::Symbol const &))
       89    ??4SymbolObject@v8@@QEAAAEAV01@AEBV01@@Z (public: class v8::SymbolObject & __cdecl v8::SymbolObject::operator=(class v8::SymbolObject const &))
       90    ??4Template@v8@@QEAAAEAV01@AEBV01@@Z (public: class v8::Template & __cdecl v8::Template::operator=(class v8::Template const &))
       91    ??4TypeSwitch@v8@@QEAAAEAV01@AEBV01@@Z (public: class v8::TypeSwitch & __cdecl v8::TypeSwitch::operator=(class v8::TypeSwitch const &))
       92    ??4TypedArray@v8@@QEAAAEAV01@AEBV01@@Z (public: class v8::TypedArray & __cdecl v8::TypedArray::operator=(class v8::TypedArray const &))
       93    ??4Uint16Array@v8@@QEAAAEAV01@AEBV01@@Z (public: class v8::Uint16Array & __cdecl v8::Uint16Array::operator=(class v8::Uint16Array const &))
       94    ??4Uint32@v8@@QEAAAEAV01@AEBV01@@Z (public: class v8::Uint32 & __cdecl v8::Uint32::operator=(class v8::Uint32 const &))
       95    ??4Uint32Array@v8@@QEAAAEAV01@AEBV01@@Z (public: class v8::Uint32Array & __cdecl v8::Uint32Array::operator=(class v8::Uint32Array const &))
       96    ??4Uint8Array@v8@@QEAAAEAV01@AEBV01@@Z (public: class v8::Uint8Array & __cdecl v8::Uint8Array::operator=(class v8::Uint8Array const &))
       97    ??4Uint8ClampedArray@v8@@QEAAAEAV01@AEBV01@@Z (public: class v8::Uint8ClampedArray & __cdecl v8::Uint8ClampedArray::operator=(class v8::Uint8ClampedArray const &))
       98    ??4UnboundScript@v8@@QEAAAEAV01@AEBV01@@Z (public: class v8::UnboundScript & __cdecl v8::UnboundScript::operator=(class v8::UnboundScript const &))
       99    ??4Unlocker@v8@@QEAAAEAV01@AEBV01@@Z (public: class v8::Unlocker & __cdecl v8::Unlocker::operator=(class v8::Unlocker const &))
      100    ??4V8@v8@@QEAAAEAV01@AEBV01@@Z (public: class v8::V8 & __cdecl v8::V8::operator=(class v8::V8 const &))
      101    ??4Value@v8@@QEAAAEAV01@AEBV01@@Z (public: class v8::Value & __cdecl v8::Value::operator=(class v8::Value const &))
      102    ??DUtf8Value@String@v8@@QEAAPEADXZ (public: char * __cdecl v8::String::Utf8Value::operator*(void))
      103    ??DUtf8Value@String@v8@@QEBAPEBDXZ (public: char const * __cdecl v8::String::Utf8Value::operator*(void)const )
      104    ??DValue@String@v8@@QEAAPEAGXZ (public: unsigned short * __cdecl v8::String::Value::operator*(void))
      105    ??DValue@String@v8@@QEBAPEBGXZ (public: unsigned short const * __cdecl v8::String::Value::operator*(void)const )
      106    ??_7Allocator@ArrayBuffer@v8@@6B@ (const v8::ArrayBuffer::Allocator::`vftable')
      107    ??_7Extension@v8@@6B@ (const v8::Extension::`vftable')
      108    ??_7ExternalOneByteStringResource@String@v8@@6B@ (const v8::String::ExternalOneByteStringResource::`vftable')
      109    ??_7ExternalOneByteStringResourceImpl@v8@@6B@ (const v8::ExternalOneByteStringResourceImpl::`vftable')
      110    ??_7ExternalResourceVisitor@v8@@6B@ (const v8::ExternalResourceVisitor::`vftable')
      111    ??_7ExternalSourceStream@ScriptCompiler@v8@@6B@ (const v8::ScriptCompiler::ExternalSourceStream::`vftable')
      112    ??_7ExternalStringResource@String@v8@@6B@ (const v8::String::ExternalStringResource::`vftable')
      113    ??_7ExternalStringResourceBase@String@v8@@6B@ (const v8::String::ExternalStringResourceBase::`vftable')
      114    ??_7PersistentHandleVisitor@v8@@6B@ (const v8::PersistentHandleVisitor::`vftable')
      115    ?AddMemoryAllocationCallback@V8@v8@@SAXP6AXW4ObjectSpace@2@W4AllocationAction@2@H@Z01@Z (public: static void __cdecl v8::V8::AddMemoryAllocationCallback(void (__cdecl*)(enum v8::ObjectSpace,enum v8::AllocationAction,int),enum v8::ObjectSpace,enum v8::AllocationAction))
      116    ?AddMessageListener@V8@v8@@SA_NP6AXV?$Local@VMessage@v8@@@2@V?$Local@VValue@v8@@@2@@Z1@Z (public: static bool __cdecl v8::V8::AddMessageListener(void (__cdecl*)(class v8::Local<class v8::Message>,class v8::Local<class v8::Value>),class v8::Local<class v8::Value>))
      117    ?AdjustAmountOfExternalAllocatedMemory@Isolate@v8@@QEAA_J_J@Z (public: __int64 __cdecl v8::Isolate::AdjustAmountOfExternalAllocatedMemory(__int64))
      118    ?ByteLength@Contents@ArrayBuffer@v8@@QEBA_KXZ (public: unsigned __int64 __cdecl v8::ArrayBuffer::Contents::ByteLength(void)const )
      119    ?ByteLength@Contents@SharedArrayBuffer@v8@@QEBA_KXZ (public: unsigned __int64 __cdecl v8::SharedArrayBuffer::Contents::ByteLength(void)const )
      120    ?CancelTerminateExecution@V8@v8@@SAXPEAVIsolate@2@@Z (public: static void __cdecl v8::V8::CancelTerminateExecution(class v8::Isolate *))
      121    ?Cast@Array@v8@@SAPEAV12@PEAVValue@2@@Z (public: static class v8::Array * __cdecl v8::Array::Cast(class v8::Value *))
      122    ?Cast@ArrayBuffer@v8@@SAPEAV12@PEAVValue@2@@Z (public: static class v8::ArrayBuffer * __cdecl v8::ArrayBuffer::Cast(class v8::Value *))
      123    ?Cast@ArrayBufferView@v8@@SAPEAV12@PEAVValue@2@@Z (public: static class v8::ArrayBufferView * __cdecl v8::ArrayBufferView::Cast(class v8::Value *))
      124    ?Cast@Boolean@v8@@SAPEAV12@PEAVValue@2@@Z (public: static class v8::Boolean * __cdecl v8::Boolean::Cast(class v8::Value *))
      125    ?Cast@BooleanObject@v8@@SAPEAV12@PEAVValue@2@@Z (public: static class v8::BooleanObject * __cdecl v8::BooleanObject::Cast(class v8::Value *))
      126    ?Cast@DataView@v8@@SAPEAV12@PEAVValue@2@@Z (public: static class v8::DataView * __cdecl v8::DataView::Cast(class v8::Value *))
      127    ?Cast@Date@v8@@SAPEAV12@PEAVValue@2@@Z (public: static class v8::Date * __cdecl v8::Date::Cast(class v8::Value *))
      128    ?Cast@External@v8@@SAPEAV12@PEAVValue@2@@Z (public: static class v8::External * __cdecl v8::External::Cast(class v8::Value *))
      129    ?Cast@Float32Array@v8@@SAPEAV12@PEAVValue@2@@Z (public: static class v8::Float32Array * __cdecl v8::Float32Array::Cast(class v8::Value *))
      130    ?Cast@Float64Array@v8@@SAPEAV12@PEAVValue@2@@Z (public: static class v8::Float64Array * __cdecl v8::Float64Array::Cast(class v8::Value *))
      131    ?Cast@Function@v8@@SAPEAV12@PEAVValue@2@@Z (public: static class v8::Function * __cdecl v8::Function::Cast(class v8::Value *))
      132    ?Cast@Int16Array@v8@@SAPEAV12@PEAVValue@2@@Z (public: static class v8::Int16Array * __cdecl v8::Int16Array::Cast(class v8::Value *))
      133    ?Cast@Int32@v8@@SAPEAV12@PEAVValue@2@@Z (public: static class v8::Int32 * __cdecl v8::Int32::Cast(class v8::Value *))
      134    ?Cast@Int32Array@v8@@SAPEAV12@PEAVValue@2@@Z (public: static class v8::Int32Array * __cdecl v8::Int32Array::Cast(class v8::Value *))
      135    ?Cast@Int8Array@v8@@SAPEAV12@PEAVValue@2@@Z (public: static class v8::Int8Array * __cdecl v8::Int8Array::Cast(class v8::Value *))
      136    ?Cast@Integer@v8@@SAPEAV12@PEAVValue@2@@Z (public: static class v8::Integer * __cdecl v8::Integer::Cast(class v8::Value *))
      137    ?Cast@Map@v8@@SAPEAV12@PEAVValue@2@@Z (public: static class v8::Map * __cdecl v8::Map::Cast(class v8::Value *))
      138    ?Cast@Name@v8@@SAPEAV12@PEAVValue@2@@Z (public: static class v8::Name * __cdecl v8::Name::Cast(class v8::Value *))
      139    ?Cast@Number@v8@@SAPEAV12@PEAVValue@2@@Z (public: static class v8::Number * __cdecl v8::Number::Cast(class v8::Value *))
      140    ?Cast@NumberObject@v8@@SAPEAV12@PEAVValue@2@@Z (public: static class v8::NumberObject * __cdecl v8::NumberObject::Cast(class v8::Value *))
      141    ?Cast@Object@v8@@SAPEAV12@PEAVValue@2@@Z (public: static class v8::Object * __cdecl v8::Object::Cast(class v8::Value *))
      142    ?Cast@Promise@v8@@SAPEAV12@PEAVValue@2@@Z (public: static class v8::Promise * __cdecl v8::Promise::Cast(class v8::Value *))
      143    ?Cast@RegExp@v8@@SAPEAV12@PEAVValue@2@@Z (public: static class v8::RegExp * __cdecl v8::RegExp::Cast(class v8::Value *))
      144    ?Cast@Resolver@Promise@v8@@SAPEAV123@PEAVValue@3@@Z (public: static class v8::Promise::Resolver * __cdecl v8::Promise::Resolver::Cast(class v8::Value *))
      145    ?Cast@Set@v8@@SAPEAV12@PEAVValue@2@@Z (public: static class v8::Set * __cdecl v8::Set::Cast(class v8::Value *))
      146    ?Cast@SharedArrayBuffer@v8@@SAPEAV12@PEAVValue@2@@Z (public: static class v8::SharedArrayBuffer * __cdecl v8::SharedArrayBuffer::Cast(class v8::Value *))
      147    ?Cast@String@v8@@SAPEAV12@PEAVValue@2@@Z (public: static class v8::String * __cdecl v8::String::Cast(class v8::Value *))
      148    ?Cast@StringObject@v8@@SAPEAV12@PEAVValue@2@@Z (public: static class v8::StringObject * __cdecl v8::StringObject::Cast(class v8::Value *))
      149    ?Cast@Symbol@v8@@SAPEAV12@PEAVValue@2@@Z (public: static class v8::Symbol * __cdecl v8::Symbol::Cast(class v8::Value *))
      150    ?Cast@SymbolObject@v8@@SAPEAV12@PEAVValue@2@@Z (public: static class v8::SymbolObject * __cdecl v8::SymbolObject::Cast(class v8::Value *))
      151    ?Cast@TypedArray@v8@@SAPEAV12@PEAVValue@2@@Z (public: static class v8::TypedArray * __cdecl v8::TypedArray::Cast(class v8::Value *))
      152    ?Cast@Uint16Array@v8@@SAPEAV12@PEAVValue@2@@Z (public: static class v8::Uint16Array * __cdecl v8::Uint16Array::Cast(class v8::Value *))
      153    ?Cast@Uint32@v8@@SAPEAV12@PEAVValue@2@@Z (public: static class v8::Uint32 * __cdecl v8::Uint32::Cast(class v8::Value *))
      154    ?Cast@Uint32Array@v8@@SAPEAV12@PEAVValue@2@@Z (public: static class v8::Uint32Array * __cdecl v8::Uint32Array::Cast(class v8::Value *))
      155    ?Cast@Uint8Array@v8@@SAPEAV12@PEAVValue@2@@Z (public: static class v8::Uint8Array * __cdecl v8::Uint8Array::Cast(class v8::Value *))
      156    ?Cast@Uint8ClampedArray@v8@@SAPEAV12@PEAVValue@2@@Z (public: static class v8::Uint8ClampedArray * __cdecl v8::Uint8ClampedArray::Cast(class v8::Value *))
      157    ?Data@Contents@ArrayBuffer@v8@@QEBAPEAXXZ (public: void * __cdecl v8::ArrayBuffer::Contents::Data(void)const )
      158    ?Data@Contents@SharedArrayBuffer@v8@@QEBAPEAXXZ (public: void * __cdecl v8::SharedArrayBuffer::Contents::Data(void)const )
      159    ?Dispose@ExternalStringResourceBase@String@v8@@MEAAXXZ (protected: virtual void __cdecl v8::String::ExternalStringResourceBase::Dispose(void))
      160    ?Empty@String@v8@@SA?AV?$Local@VString@v8@@@2@PEAVIsolate@2@@Z (public: static class v8::Local<class v8::String> __cdecl v8::String::Empty(class v8::Isolate *))
      161    ?GetAlignedPointerFromEmbedderData@Context@v8@@QEAAPEAXH@Z (public: void * __cdecl v8::Context::GetAlignedPointerFromEmbedderData(int))
      162    ?GetAlignedPointerFromInternalField@Object@v8@@QEAAPEAXH@Z (public: void * __cdecl v8::Object::GetAlignedPointerFromInternalField(int))
      163    ?GetAlignedPointerFromInternalField@Object@v8@@SAPEAXAEBV?$PersistentBase@VObject@v8@@@2@H@Z (public: static void * __cdecl v8::Object::GetAlignedPointerFromInternalField(class v8::PersistentBase<class v8::Object> const &,int))
      164    ?GetData@Isolate@v8@@QEAAPEAXI@Z (public: void * __cdecl v8::Isolate::GetData(unsigned int))
      165    ?GetEmbedderData@Context@v8@@QEAA?AV?$Local@VValue@v8@@@2@H@Z (public: class v8::Local<class v8::Value> __cdecl v8::Context::GetEmbedderData(int))
      166    ?GetExternalStringResource@String@v8@@QEBAPEAVExternalStringResource@12@XZ (public: class v8::String::ExternalStringResource * __cdecl v8::String::GetExternalStringResource(void)const )
      167    ?GetExternalStringResourceBase@String@v8@@QEBAPEAVExternalStringResourceBase@12@PEAW4Encoding@12@@Z (public: class v8::String::ExternalStringResourceBase * __cdecl v8::String::GetExternalStringResourceBase(enum v8::String::Encoding *)const )
      168    ?GetId@Script@v8@@QEAAHXZ (public: int __cdecl v8::Script::GetId(void))
      169    ?GetInternalField@Object@v8@@QEAA?AV?$Local@VValue@v8@@@2@H@Z (public: class v8::Local<class v8::Value> __cdecl v8::Object::GetInternalField(int))
      170    ?GetIsolate@HandleScope@v8@@QEBAPEAVIsolate@2@XZ (public: class v8::Isolate * __cdecl v8::HandleScope::GetIsolate(void)const )
      171    ?GetNativeFunctionTemplate@Extension@v8@@UEAA?AV?$Local@VFunctionTemplate@v8@@@2@PEAVIsolate@2@V?$Local@VString@v8@@@2@@Z (public: virtual class v8::Local<class v8::FunctionTemplate> __cdecl v8::Extension::GetNativeFunctionTemplate(class v8::Isolate *,class v8::Local<class v8::String>))
      172    ?GetNumberOfDataSlots@Isolate@v8@@SAIXZ (public: static unsigned int __cdecl v8::Isolate::GetNumberOfDataSlots(void))
      173    ?InternalFieldCount@Object@v8@@SAHAEBV?$PersistentBase@VObject@v8@@@2@@Z (public: static int __cdecl v8::Object::InternalFieldCount(class v8::PersistentBase<class v8::Object> const &))
      174    ?IsDead@V8@v8@@SA_NXZ (public: static bool __cdecl v8::V8::IsDead(void))
      175    ?IsExecutionTerminating@V8@v8@@SA_NPEAVIsolate@2@@Z (public: static bool __cdecl v8::V8::IsExecutionTerminating(class v8::Isolate *))
      176    ?IsNull@Value@v8@@QEBA_NXZ (public: bool __cdecl v8::Value::IsNull(void)const )
      177    ?IsString@Value@v8@@QEBA_NXZ (public: bool __cdecl v8::Value::IsString(void)const )
      178    ?IsUndefined@Value@v8@@QEBA_NXZ (public: bool __cdecl v8::Value::IsUndefined(void)const )
      179    ?JSStackComparableAddress@TryCatch@v8@@SAPEAXPEAV12@@Z (public: static void * __cdecl v8::TryCatch::JSStackComparableAddress(class v8::TryCatch *))
      180    ?New@Boolean@v8@@SA?AV?$Local@VBoolean@v8@@@2@PEAVIsolate@2@_N@Z (public: static class v8::Local<class v8::Boolean> __cdecl v8::Boolean::New(class v8::Isolate *,bool))
      181    ?NewInstance@Function@v8@@QEBA?AV?$MaybeLocal@VObject@v8@@@2@V?$Local@VContext@v8@@@2@@Z (public: class v8::MaybeLocal<class v8::Object> __cdecl v8::Function::NewInstance(class v8::Local<class v8::Context>)const )
      182    ?QuickIsNull@Value@v8@@AEBA_NXZ (private: bool __cdecl v8::Value::QuickIsNull(void)const )
      183    ?QuickIsString@Value@v8@@AEBA_NXZ (private: bool __cdecl v8::Value::QuickIsString(void)const )
      184    ?QuickIsUndefined@Value@v8@@AEBA_NXZ (private: bool __cdecl v8::Value::QuickIsUndefined(void)const )
      185    ?RemoveGCEpilogueCallback@V8@v8@@SAXP6AXW4GCType@2@W4GCCallbackFlags@2@@Z@Z (public: static void __cdecl v8::V8::RemoveGCEpilogueCallback(void (__cdecl*)(enum v8::GCType,enum v8::GCCallbackFlags)))
      186    ?RemoveGCPrologueCallback@V8@v8@@SAXP6AXW4GCType@2@W4GCCallbackFlags@2@@Z@Z (public: static void __cdecl v8::V8::RemoveGCPrologueCallback(void (__cdecl*)(enum v8::GCType,enum v8::GCCallbackFlags)))
      187    ?RemoveMemoryAllocationCallback@V8@v8@@SAXP6AXW4ObjectSpace@2@W4AllocationAction@2@H@Z@Z (public: static void __cdecl v8::V8::RemoveMemoryAllocationCallback(void (__cdecl*)(enum v8::ObjectSpace,enum v8::AllocationAction,int)))
      188    ?RemoveMessageListeners@V8@v8@@SAXP6AXV?$Local@VMessage@v8@@@2@V?$Local@VValue@v8@@@2@@Z@Z (public: static void __cdecl v8::V8::RemoveMessageListeners(void (__cdecl*)(class v8::Local<class v8::Message>,class v8::Local<class v8::Value>)))
      189    ?Set@Template@v8@@QEAAXPEAVIsolate@2@PEBDV?$Local@VData@v8@@@2@@Z (public: void __cdecl v8::Template::Set(class v8::Isolate *,char const *,class v8::Local<class v8::Data>))
      190    ?SetAllowCodeGenerationFromStringsCallback@V8@v8@@SAXP6A_NV?$Local@VContext@v8@@@2@@Z@Z (public: static void __cdecl v8::V8::SetAllowCodeGenerationFromStringsCallback(bool (__cdecl*)(class v8::Local<class v8::Context>)))
      191    ?SetCaptureStackTraceForUncaughtExceptions@V8@v8@@SAX_NHW4StackTraceOptions@StackTrace@2@@Z (public: static void __cdecl v8::V8::SetCaptureStackTraceForUncaughtExceptions(bool,int,enum v8::StackTrace::StackTraceOptions))
      192    ?SetData@Isolate@v8@@QEAAXIPEAX@Z (public: void __cdecl v8::Isolate::SetData(unsigned int,void *))
      193    ?SetFailedAccessCheckCallbackFunction@V8@v8@@SAXP6AXV?$Local@VObject@v8@@@2@W4AccessType@2@V?$Local@VValue@v8@@@2@@Z@Z (public: static void __cdecl v8::V8::SetFailedAccessCheckCallbackFunction(void (__cdecl*)(class v8::Local<class v8::Object>,enum v8::AccessType,class v8::Local<class v8::Value>)))
      194    ?SetFatalErrorHandler@V8@v8@@SAXP6AXPEBD0@Z@Z (public: static void __cdecl v8::V8::SetFatalErrorHandler(void (__cdecl*)(char const *,char const *)))
      195    ?SetIndexedPropertyHandler@ObjectTemplate@v8@@QEAAXP6AXIAEBV?$PropertyCallbackInfo@VValue@v8@@@2@@ZP6AXIV?$Local@VValue@v8@@@2@0@ZP6AXIAEBV?$PropertyCallbackInfo@VInteger@v8@@@2@@ZP6AXIAEBV?$PropertyCallbackInfo@VBoolean@v8@@@2@@ZP6AXAEBV?$PropertyCallbackInfo@VArray@v8@@@2@@Z2@Z (public: void __cdecl v8::ObjectTemplate::SetIndexedPropertyHandler(void (__cdecl*)(unsigned int,class v8::PropertyCallbackInfo<class v8::Value> const &),void (__cdecl*)(unsigned int,class v8::Local<class v8::Value>,class v8::PropertyCallbackInfo<class v8::Value> const &),void (__cdecl*)(unsigned int,class v8::PropertyCallbackInfo<class v8::Integer> const &),void (__cdecl*)(unsigned int,class v8::PropertyCallbackInfo<class v8::Boolean> const &),void (__cdecl*)(class v8::PropertyCallbackInfo<class v8::Array> const &),class v8::Local<class v8::Value>))
      196    ?TerminateExecution@V8@v8@@SAXPEAVIsolate@2@@Z (public: static void __cdecl v8::V8::TerminateExecution(class v8::Isolate *))
      197    ?ToBoolean@Value@v8@@QEBA?AV?$Local@VBoolean@v8@@@2@XZ (public: class v8::Local<class v8::Boolean> __cdecl v8::Value::ToBoolean(void)const )
      198    ?ToDetailString@Value@v8@@QEBA?AV?$Local@VString@v8@@@2@XZ (public: class v8::Local<class v8::String> __cdecl v8::Value::ToDetailString(void)const )
      199    ?ToInt32@Value@v8@@QEBA?AV?$Local@VInt32@v8@@@2@XZ (public: class v8::Local<class v8::Int32> __cdecl v8::Value::ToInt32(void)const )
      200    ?ToInteger@Value@v8@@QEBA?AV?$Local@VInteger@v8@@@2@XZ (public: class v8::Local<class v8::Integer> __cdecl v8::Value::ToInteger(void)const )
      201    ?ToNumber@Value@v8@@QEBA?AV?$Local@VNumber@v8@@@2@XZ (public: class v8::Local<class v8::Number> __cdecl v8::Value::ToNumber(void)const )
      202    ?ToObject@Value@v8@@QEBA?AV?$Local@VObject@v8@@@2@XZ (public: class v8::Local<class v8::Object> __cdecl v8::Value::ToObject(void)const )
      203    ?ToString@Value@v8@@QEBA?AV?$Local@VString@v8@@@2@XZ (public: class v8::Local<class v8::String> __cdecl v8::Value::ToString(void)const )
      204    ?ToUint32@Value@v8@@QEBA?AV?$Local@VUint32@v8@@@2@XZ (public: class v8::Local<class v8::Uint32> __cdecl v8::Value::ToUint32(void)const )
      205    ?VisitExternalResources@V8@v8@@SAXPEAVExternalResourceVisitor@2@@Z (public: static void __cdecl v8::V8::VisitExternalResources(class v8::ExternalResourceVisitor *))
      206    ?VisitExternalString@ExternalResourceVisitor@v8@@UEAAXV?$Local@VString@v8@@@2@@Z (public: virtual void __cdecl v8::ExternalResourceVisitor::VisitExternalString(class v8::Local<class v8::String>))
      207    ?VisitHandlesForPartialDependence@V8@v8@@SAXPEAVIsolate@2@PEAVPersistentHandleVisitor@2@@Z (public: static void __cdecl v8::V8::VisitHandlesForPartialDependence(class v8::Isolate *,class v8::PersistentHandleVisitor *))
      208    ?VisitHandlesWithClassIds@V8@v8@@SAXPEAVIsolate@2@PEAVPersistentHandleVisitor@2@@Z (public: static void __cdecl v8::V8::VisitHandlesWithClassIds(class v8::Isolate *,class v8::PersistentHandleVisitor *))
      209    ?VisitHandlesWithClassIds@V8@v8@@SAXPEAVPersistentHandleVisitor@2@@Z (public: static void __cdecl v8::V8::VisitHandlesWithClassIds(class v8::PersistentHandleVisitor *))
      210    ?VisitPersistentHandle@PersistentHandleVisitor@v8@@UEAAXPEAV?$Persistent@VValue@v8@@V?$NonCopyablePersistentTraits@VValue@v8@@@2@@2@G@Z (public: virtual void __cdecl v8::PersistentHandleVisitor::VisitPersistentHandle(class v8::Persistent<class v8::Value,class v8::NonCopyablePersistentTraits<class v8::Value> > *,unsigned short))
      211    ?auto_enable@Extension@v8@@QEAA_NXZ (public: bool __cdecl v8::Extension::auto_enable(void))
      212    ?begin@ExtensionConfiguration@v8@@QEBAPEAPEBDXZ (public: char const * * __cdecl v8::ExtensionConfiguration::begin(void)const )
      213    ?code_range_size@ResourceConstraints@v8@@QEBA_KXZ (public: unsigned __int64 __cdecl v8::ResourceConstraints::code_range_size(void)const )
      214    ?data@ExternalOneByteStringResourceImpl@v8@@UEBAPEBDXZ (public: virtual char const * __cdecl v8::ExternalOneByteStringResourceImpl::data(void)const )
      215    ?dependencies@Extension@v8@@QEAAPEAPEBDXZ (public: char const * * __cdecl v8::Extension::dependencies(void))
      216    ?dependency_count@Extension@v8@@QEAAHXZ (public: int __cdecl v8::Extension::dependency_count(void))
      217    ?end@ExtensionConfiguration@v8@@QEBAPEAPEBDXZ (public: char const * * __cdecl v8::ExtensionConfiguration::end(void)const )
      218    ?heap_size_limit@HeapStatistics@v8@@QEAA_KXZ (public: unsigned __int64 __cdecl v8::HeapStatistics::heap_size_limit(void))
      219    ?impl@StreamedSource@ScriptCompiler@v8@@QEBAPEAU1internal@3@XZ (public: struct v8::internal::StreamedSource * __cdecl v8::ScriptCompiler::StreamedSource::impl(void)const )
      220    ?kInternalFieldCount@ArrayBuffer@v8@@2HB (public: static int const v8::ArrayBuffer::kInternalFieldCount)
      221    ?kInternalFieldCount@ArrayBufferView@v8@@2HB (public: static int const v8::ArrayBufferView::kInternalFieldCount)
      222    ?kInternalFieldCount@SharedArrayBuffer@v8@@2HB (public: static int const v8::SharedArrayBuffer::kInternalFieldCount)
      223    ?kMaxLength@String@v8@@2HB (public: static int const v8::String::kMaxLength)
      224    ?kNoColumnInfo@Message@v8@@2HB (public: static int const v8::Message::kNoColumnInfo)
      225    ?kNoLineNumberInfo@Message@v8@@2HB (public: static int const v8::Message::kNoLineNumberInfo)
      226    ?kNoScriptId@UnboundScript@v8@@2HB (public: static int const v8::UnboundScript::kNoScriptId)
      227    ?kNoScriptIdInfo@Message@v8@@2HB (public: static int const v8::Message::kNoScriptIdInfo)
      228    ?length@ExternalOneByteStringResourceImpl@v8@@UEBA_KXZ (public: virtual unsigned __int64 __cdecl v8::ExternalOneByteStringResourceImpl::length(void)const )
      229    ?length@Utf8Value@String@v8@@QEBAHXZ (public: int __cdecl v8::String::Utf8Value::length(void)const )
      230    ?length@Value@String@v8@@QEBAHXZ (public: int __cdecl v8::String::Value::length(void)const )
      231    ?max_available_threads@ResourceConstraints@v8@@QEBAHXZ (public: int __cdecl v8::ResourceConstraints::max_available_threads(void)const )
      232    ?max_executable_size@ResourceConstraints@v8@@QEBAHXZ (public: int __cdecl v8::ResourceConstraints::max_executable_size(void)const )
      233    ?max_old_space_size@ResourceConstraints@v8@@QEBAHXZ (public: int __cdecl v8::ResourceConstraints::max_old_space_size(void)const )
      234    ?max_semi_space_size@ResourceConstraints@v8@@QEBAHXZ (public: int __cdecl v8::ResourceConstraints::max_semi_space_size(void)const )
      235    ?name@Extension@v8@@QEBAPEBDXZ (public: char const * __cdecl v8::Extension::name(void)const )
      236    ?object_count@HeapObjectStatistics@v8@@QEAA_KXZ (public: unsigned __int64 __cdecl v8::HeapObjectStatistics::object_count(void))
      237    ?object_size@HeapObjectStatistics@v8@@QEAA_KXZ (public: unsigned __int64 __cdecl v8::HeapObjectStatistics::object_size(void))
      238    ?object_sub_type@HeapObjectStatistics@v8@@QEAAPEBDXZ (public: char const * __cdecl v8::HeapObjectStatistics::object_sub_type(void))
      239    ?object_type@HeapObjectStatistics@v8@@QEAAPEBDXZ (public: char const * __cdecl v8::HeapObjectStatistics::object_type(void))
      240    ?physical_space_size@HeapSpaceStatistics@v8@@QEAA_KXZ (public: unsigned __int64 __cdecl v8::HeapSpaceStatistics::physical_space_size(void))
      241    ?set_auto_enable@Extension@v8@@QEAAX_N@Z (public: void __cdecl v8::Extension::set_auto_enable(bool))
      242    ?set_code_range_size@ResourceConstraints@v8@@QEAAX_K@Z (public: void __cdecl v8::ResourceConstraints::set_code_range_size(unsigned __int64))
      243    ?set_max_available_threads@ResourceConstraints@v8@@QEAAXH@Z (public: void __cdecl v8::ResourceConstraints::set_max_available_threads(int))
      244    ?set_max_executable_size@ResourceConstraints@v8@@QEAAXH@Z (public: void __cdecl v8::ResourceConstraints::set_max_executable_size(int))
      245    ?set_max_old_space_size@ResourceConstraints@v8@@QEAAXH@Z (public: void __cdecl v8::ResourceConstraints::set_max_old_space_size(int))
      246    ?set_max_semi_space_size@ResourceConstraints@v8@@QEAAXH@Z (public: void __cdecl v8::ResourceConstraints::set_max_semi_space_size(int))
      247    ?set_stack_limit@ResourceConstraints@v8@@QEAAXPEAI@Z (public: void __cdecl v8::ResourceConstraints::set_stack_limit(unsigned int *))
      248    ?source@Extension@v8@@QEBAPEBVExternalOneByteStringResource@String@2@XZ (public: class v8::String::ExternalOneByteStringResource const * __cdecl v8::Extension::source(void)const )
      249    ?source_length@Extension@v8@@QEBA_KXZ (public: unsigned __int64 __cdecl v8::Extension::source_length(void)const )
      250    ?space_available_size@HeapSpaceStatistics@v8@@QEAA_KXZ (public: unsigned __int64 __cdecl v8::HeapSpaceStatistics::space_available_size(void))
      251    ?space_name@HeapSpaceStatistics@v8@@QEAAPEBDXZ (public: char const * __cdecl v8::HeapSpaceStatistics::space_name(void))
      252    ?space_size@HeapSpaceStatistics@v8@@QEAA_KXZ (public: unsigned __int64 __cdecl v8::HeapSpaceStatistics::space_size(void))
      253    ?space_used_size@HeapSpaceStatistics@v8@@QEAA_KXZ (public: unsigned __int64 __cdecl v8::HeapSpaceStatistics::space_used_size(void))
      254    ?stack_limit@ResourceConstraints@v8@@QEBAPEAIXZ (public: unsigned int * __cdecl v8::ResourceConstraints::stack_limit(void)const )
      255    ?total_available_size@HeapStatistics@v8@@QEAA_KXZ (public: unsigned __int64 __cdecl v8::HeapStatistics::total_available_size(void))
      256    ?total_heap_size@HeapStatistics@v8@@QEAA_KXZ (public: unsigned __int64 __cdecl v8::HeapStatistics::total_heap_size(void))
      257    ?total_heap_size_executable@HeapStatistics@v8@@QEAA_KXZ (public: unsigned __int64 __cdecl v8::HeapStatistics::total_heap_size_executable(void))
      258    ?total_physical_size@HeapStatistics@v8@@QEAA_KXZ (public: unsigned __int64 __cdecl v8::HeapStatistics::total_physical_size(void))
      259    ?used_heap_size@HeapStatistics@v8@@QEAA_KXZ (public: unsigned __int64 __cdecl v8::HeapStatistics::used_heap_size(void))
      260    _register_canvas_
